
OME Bird.elf:     file format elf32-littlearm

Sections:
Idx Name          Size      VMA       LMA       File off  Algn
  0 .isr_vector   000001d8  08000000  08000000  00001000  2**0
                  CONTENTS, ALLOC, LOAD, READONLY, DATA
  1 .text         00008920  080001e0  080001e0  000011e0  2**4
                  CONTENTS, ALLOC, LOAD, READONLY, CODE
  2 .rodata       0005bae0  08008b00  08008b00  00009b00  2**2
                  CONTENTS, ALLOC, LOAD, READONLY, DATA
  3 .ARM.extab    00000000  080645e0  080645e0  000660b0  2**0
                  CONTENTS
  4 .ARM          00000008  080645e0  080645e0  000655e0  2**2
                  CONTENTS, ALLOC, LOAD, READONLY, DATA
  5 .preinit_array 00000000  080645e8  080645e8  000660b0  2**0
                  CONTENTS, ALLOC, LOAD, DATA
  6 .init_array   00000004  080645e8  080645e8  000655e8  2**2
                  CONTENTS, ALLOC, LOAD, READONLY, DATA
  7 .fini_array   00000004  080645ec  080645ec  000655ec  2**2
                  CONTENTS, ALLOC, LOAD, READONLY, DATA
  8 .data         000000b0  20000000  080645f0  00066000  2**2
                  CONTENTS, ALLOC, LOAD, DATA
  9 .bss          000013d0  200000b0  080646a0  000660b0  2**3
                  ALLOC
 10 ._user_heap_stack 00000600  20001480  080646a0  00066480  2**0
                  ALLOC
 11 .ARM.attributes 00000030  00000000  00000000  000660b0  2**0
                  CONTENTS, READONLY
 12 .debug_info   0013ba82  00000000  00000000  000660e0  2**0
                  CONTENTS, READONLY, DEBUGGING, OCTETS
 13 .debug_abbrev 000083d1  00000000  00000000  001a1b62  2**0
                  CONTENTS, READONLY, DEBUGGING, OCTETS
 14 .debug_loclists 000261d5  00000000  00000000  001a9f33  2**0
                  CONTENTS, READONLY, DEBUGGING, OCTETS
 15 .debug_aranges 00002118  00000000  00000000  001d0108  2**3
                  CONTENTS, READONLY, DEBUGGING, OCTETS
 16 .debug_rnglists 00005d31  00000000  00000000  001d2220  2**0
                  CONTENTS, READONLY, DEBUGGING, OCTETS
 17 .debug_macro  000337a4  00000000  00000000  001d7f51  2**0
                  CONTENTS, READONLY, DEBUGGING, OCTETS
 18 .debug_line   00042b84  00000000  00000000  0020b6f5  2**0
                  CONTENTS, READONLY, DEBUGGING, OCTETS
 19 .debug_str    001329f6  00000000  00000000  0024e279  2**0
                  CONTENTS, READONLY, DEBUGGING, OCTETS
 20 .comment      00000043  00000000  00000000  00380c6f  2**0
                  CONTENTS, READONLY
 21 .debug_frame  00006c1c  00000000  00000000  00380cb4  2**2
                  CONTENTS, READONLY, DEBUGGING, OCTETS
 22 .debug_line_str 0000005d  00000000  00000000  003878d0  2**0
                  CONTENTS, READONLY, DEBUGGING, OCTETS

Disassembly of section .text:

080001e0 <__do_global_dtors_aux>:
 80001e0:	b510      	push	{r4, lr}
 80001e2:	4c05      	ldr	r4, [pc, #20]	@ (80001f8 <__do_global_dtors_aux+0x18>)
 80001e4:	7823      	ldrb	r3, [r4, #0]
 80001e6:	b933      	cbnz	r3, 80001f6 <__do_global_dtors_aux+0x16>
 80001e8:	4b04      	ldr	r3, [pc, #16]	@ (80001fc <__do_global_dtors_aux+0x1c>)
 80001ea:	b113      	cbz	r3, 80001f2 <__do_global_dtors_aux+0x12>
 80001ec:	4804      	ldr	r0, [pc, #16]	@ (8000200 <__do_global_dtors_aux+0x20>)
 80001ee:	f3af 8000 	nop.w
 80001f2:	2301      	movs	r3, #1
 80001f4:	7023      	strb	r3, [r4, #0]
 80001f6:	bd10      	pop	{r4, pc}
 80001f8:	200000b0 	.word	0x200000b0
 80001fc:	00000000 	.word	0x00000000
 8000200:	08008ae8 	.word	0x08008ae8

08000204 <frame_dummy>:
 8000204:	b508      	push	{r3, lr}
 8000206:	4b03      	ldr	r3, [pc, #12]	@ (8000214 <frame_dummy+0x10>)
 8000208:	b11b      	cbz	r3, 8000212 <frame_dummy+0xe>
 800020a:	4903      	ldr	r1, [pc, #12]	@ (8000218 <frame_dummy+0x14>)
 800020c:	4803      	ldr	r0, [pc, #12]	@ (800021c <frame_dummy+0x18>)
 800020e:	f3af 8000 	nop.w
 8000212:	bd08      	pop	{r3, pc}
 8000214:	00000000 	.word	0x00000000
 8000218:	200000b4 	.word	0x200000b4
 800021c:	08008ae8 	.word	0x08008ae8

08000220 <memchr>:
 8000220:	f001 01ff 	and.w	r1, r1, #255	@ 0xff
 8000224:	2a10      	cmp	r2, #16
 8000226:	db2b      	blt.n	8000280 <memchr+0x60>
 8000228:	f010 0f07 	tst.w	r0, #7
 800022c:	d008      	beq.n	8000240 <memchr+0x20>
 800022e:	f810 3b01 	ldrb.w	r3, [r0], #1
 8000232:	3a01      	subs	r2, #1
 8000234:	428b      	cmp	r3, r1
 8000236:	d02d      	beq.n	8000294 <memchr+0x74>
 8000238:	f010 0f07 	tst.w	r0, #7
 800023c:	b342      	cbz	r2, 8000290 <memchr+0x70>
 800023e:	d1f6      	bne.n	800022e <memchr+0xe>
 8000240:	b4f0      	push	{r4, r5, r6, r7}
 8000242:	ea41 2101 	orr.w	r1, r1, r1, lsl #8
 8000246:	ea41 4101 	orr.w	r1, r1, r1, lsl #16
 800024a:	f022 0407 	bic.w	r4, r2, #7
 800024e:	f07f 0700 	mvns.w	r7, #0
 8000252:	2300      	movs	r3, #0
 8000254:	e8f0 5602 	ldrd	r5, r6, [r0], #8
 8000258:	3c08      	subs	r4, #8
 800025a:	ea85 0501 	eor.w	r5, r5, r1
 800025e:	ea86 0601 	eor.w	r6, r6, r1
 8000262:	fa85 f547 	uadd8	r5, r5, r7
 8000266:	faa3 f587 	sel	r5, r3, r7
 800026a:	fa86 f647 	uadd8	r6, r6, r7
 800026e:	faa5 f687 	sel	r6, r5, r7
 8000272:	b98e      	cbnz	r6, 8000298 <memchr+0x78>
 8000274:	d1ee      	bne.n	8000254 <memchr+0x34>
 8000276:	bcf0      	pop	{r4, r5, r6, r7}
 8000278:	f001 01ff 	and.w	r1, r1, #255	@ 0xff
 800027c:	f002 0207 	and.w	r2, r2, #7
 8000280:	b132      	cbz	r2, 8000290 <memchr+0x70>
 8000282:	f810 3b01 	ldrb.w	r3, [r0], #1
 8000286:	3a01      	subs	r2, #1
 8000288:	ea83 0301 	eor.w	r3, r3, r1
 800028c:	b113      	cbz	r3, 8000294 <memchr+0x74>
 800028e:	d1f8      	bne.n	8000282 <memchr+0x62>
 8000290:	2000      	movs	r0, #0
 8000292:	4770      	bx	lr
 8000294:	3801      	subs	r0, #1
 8000296:	4770      	bx	lr
 8000298:	2d00      	cmp	r5, #0
 800029a:	bf06      	itte	eq
 800029c:	4635      	moveq	r5, r6
 800029e:	3803      	subeq	r0, #3
 80002a0:	3807      	subne	r0, #7
 80002a2:	f015 0f01 	tst.w	r5, #1
 80002a6:	d107      	bne.n	80002b8 <memchr+0x98>
 80002a8:	3001      	adds	r0, #1
 80002aa:	f415 7f80 	tst.w	r5, #256	@ 0x100
 80002ae:	bf02      	ittt	eq
 80002b0:	3001      	addeq	r0, #1
 80002b2:	f415 3fc0 	tsteq.w	r5, #98304	@ 0x18000
 80002b6:	3001      	addeq	r0, #1
 80002b8:	bcf0      	pop	{r4, r5, r6, r7}
 80002ba:	3801      	subs	r0, #1
 80002bc:	4770      	bx	lr
 80002be:	bf00      	nop

080002c0 <__aeabi_drsub>:
 80002c0:	f081 4100 	eor.w	r1, r1, #2147483648	@ 0x80000000
 80002c4:	e002      	b.n	80002cc <__adddf3>
 80002c6:	bf00      	nop

080002c8 <__aeabi_dsub>:
 80002c8:	f083 4300 	eor.w	r3, r3, #2147483648	@ 0x80000000

080002cc <__adddf3>:
 80002cc:	b530      	push	{r4, r5, lr}
 80002ce:	ea4f 0441 	mov.w	r4, r1, lsl #1
 80002d2:	ea4f 0543 	mov.w	r5, r3, lsl #1
 80002d6:	ea94 0f05 	teq	r4, r5
 80002da:	bf08      	it	eq
 80002dc:	ea90 0f02 	teqeq	r0, r2
 80002e0:	bf1f      	itttt	ne
 80002e2:	ea54 0c00 	orrsne.w	ip, r4, r0
 80002e6:	ea55 0c02 	orrsne.w	ip, r5, r2
 80002ea:	ea7f 5c64 	mvnsne.w	ip, r4, asr #21
 80002ee:	ea7f 5c65 	mvnsne.w	ip, r5, asr #21
 80002f2:	f000 80e2 	beq.w	80004ba <__adddf3+0x1ee>
 80002f6:	ea4f 5454 	mov.w	r4, r4, lsr #21
 80002fa:	ebd4 5555 	rsbs	r5, r4, r5, lsr #21
 80002fe:	bfb8      	it	lt
 8000300:	426d      	neglt	r5, r5
 8000302:	dd0c      	ble.n	800031e <__adddf3+0x52>
 8000304:	442c      	add	r4, r5
 8000306:	ea80 0202 	eor.w	r2, r0, r2
 800030a:	ea81 0303 	eor.w	r3, r1, r3
 800030e:	ea82 0000 	eor.w	r0, r2, r0
 8000312:	ea83 0101 	eor.w	r1, r3, r1
 8000316:	ea80 0202 	eor.w	r2, r0, r2
 800031a:	ea81 0303 	eor.w	r3, r1, r3
 800031e:	2d36      	cmp	r5, #54	@ 0x36
 8000320:	bf88      	it	hi
 8000322:	bd30      	pophi	{r4, r5, pc}
 8000324:	f011 4f00 	tst.w	r1, #2147483648	@ 0x80000000
 8000328:	ea4f 3101 	mov.w	r1, r1, lsl #12
 800032c:	f44f 1c80 	mov.w	ip, #1048576	@ 0x100000
 8000330:	ea4c 3111 	orr.w	r1, ip, r1, lsr #12
 8000334:	d002      	beq.n	800033c <__adddf3+0x70>
 8000336:	4240      	negs	r0, r0
 8000338:	eb61 0141 	sbc.w	r1, r1, r1, lsl #1
 800033c:	f013 4f00 	tst.w	r3, #2147483648	@ 0x80000000
 8000340:	ea4f 3303 	mov.w	r3, r3, lsl #12
 8000344:	ea4c 3313 	orr.w	r3, ip, r3, lsr #12
 8000348:	d002      	beq.n	8000350 <__adddf3+0x84>
 800034a:	4252      	negs	r2, r2
 800034c:	eb63 0343 	sbc.w	r3, r3, r3, lsl #1
 8000350:	ea94 0f05 	teq	r4, r5
 8000354:	f000 80a7 	beq.w	80004a6 <__adddf3+0x1da>
 8000358:	f1a4 0401 	sub.w	r4, r4, #1
 800035c:	f1d5 0e20 	rsbs	lr, r5, #32
 8000360:	db0d      	blt.n	800037e <__adddf3+0xb2>
 8000362:	fa02 fc0e 	lsl.w	ip, r2, lr
 8000366:	fa22 f205 	lsr.w	r2, r2, r5
 800036a:	1880      	adds	r0, r0, r2
 800036c:	f141 0100 	adc.w	r1, r1, #0
 8000370:	fa03 f20e 	lsl.w	r2, r3, lr
 8000374:	1880      	adds	r0, r0, r2
 8000376:	fa43 f305 	asr.w	r3, r3, r5
 800037a:	4159      	adcs	r1, r3
 800037c:	e00e      	b.n	800039c <__adddf3+0xd0>
 800037e:	f1a5 0520 	sub.w	r5, r5, #32
 8000382:	f10e 0e20 	add.w	lr, lr, #32
 8000386:	2a01      	cmp	r2, #1
 8000388:	fa03 fc0e 	lsl.w	ip, r3, lr
 800038c:	bf28      	it	cs
 800038e:	f04c 0c02 	orrcs.w	ip, ip, #2
 8000392:	fa43 f305 	asr.w	r3, r3, r5
 8000396:	18c0      	adds	r0, r0, r3
 8000398:	eb51 71e3 	adcs.w	r1, r1, r3, asr #31
 800039c:	f001 4500 	and.w	r5, r1, #2147483648	@ 0x80000000
 80003a0:	d507      	bpl.n	80003b2 <__adddf3+0xe6>
 80003a2:	f04f 0e00 	mov.w	lr, #0
 80003a6:	f1dc 0c00 	rsbs	ip, ip, #0
 80003aa:	eb7e 0000 	sbcs.w	r0, lr, r0
 80003ae:	eb6e 0101 	sbc.w	r1, lr, r1
 80003b2:	f5b1 1f80 	cmp.w	r1, #1048576	@ 0x100000
 80003b6:	d31b      	bcc.n	80003f0 <__adddf3+0x124>
 80003b8:	f5b1 1f00 	cmp.w	r1, #2097152	@ 0x200000
 80003bc:	d30c      	bcc.n	80003d8 <__adddf3+0x10c>
 80003be:	0849      	lsrs	r1, r1, #1
 80003c0:	ea5f 0030 	movs.w	r0, r0, rrx
 80003c4:	ea4f 0c3c 	mov.w	ip, ip, rrx
 80003c8:	f104 0401 	add.w	r4, r4, #1
 80003cc:	ea4f 5244 	mov.w	r2, r4, lsl #21
 80003d0:	f512 0f80 	cmn.w	r2, #4194304	@ 0x400000
 80003d4:	f080 809a 	bcs.w	800050c <__adddf3+0x240>
 80003d8:	f1bc 4f00 	cmp.w	ip, #2147483648	@ 0x80000000
 80003dc:	bf08      	it	eq
 80003de:	ea5f 0c50 	movseq.w	ip, r0, lsr #1
 80003e2:	f150 0000 	adcs.w	r0, r0, #0
 80003e6:	eb41 5104 	adc.w	r1, r1, r4, lsl #20
 80003ea:	ea41 0105 	orr.w	r1, r1, r5
 80003ee:	bd30      	pop	{r4, r5, pc}
 80003f0:	ea5f 0c4c 	movs.w	ip, ip, lsl #1
 80003f4:	4140      	adcs	r0, r0
 80003f6:	eb41 0101 	adc.w	r1, r1, r1
 80003fa:	3c01      	subs	r4, #1
 80003fc:	bf28      	it	cs
 80003fe:	f5b1 1f80 	cmpcs.w	r1, #1048576	@ 0x100000
 8000402:	d2e9      	bcs.n	80003d8 <__adddf3+0x10c>
 8000404:	f091 0f00 	teq	r1, #0
 8000408:	bf04      	itt	eq
 800040a:	4601      	moveq	r1, r0
 800040c:	2000      	moveq	r0, #0
 800040e:	fab1 f381 	clz	r3, r1
 8000412:	bf08      	it	eq
 8000414:	3320      	addeq	r3, #32
 8000416:	f1a3 030b 	sub.w	r3, r3, #11
 800041a:	f1b3 0220 	subs.w	r2, r3, #32
 800041e:	da0c      	bge.n	800043a <__adddf3+0x16e>
 8000420:	320c      	adds	r2, #12
 8000422:	dd08      	ble.n	8000436 <__adddf3+0x16a>
 8000424:	f102 0c14 	add.w	ip, r2, #20
 8000428:	f1c2 020c 	rsb	r2, r2, #12
 800042c:	fa01 f00c 	lsl.w	r0, r1, ip
 8000430:	fa21 f102 	lsr.w	r1, r1, r2
 8000434:	e00c      	b.n	8000450 <__adddf3+0x184>
 8000436:	f102 0214 	add.w	r2, r2, #20
 800043a:	bfd8      	it	le
 800043c:	f1c2 0c20 	rsble	ip, r2, #32
 8000440:	fa01 f102 	lsl.w	r1, r1, r2
 8000444:	fa20 fc0c 	lsr.w	ip, r0, ip
 8000448:	bfdc      	itt	le
 800044a:	ea41 010c 	orrle.w	r1, r1, ip
 800044e:	4090      	lslle	r0, r2
 8000450:	1ae4      	subs	r4, r4, r3
 8000452:	bfa2      	ittt	ge
 8000454:	eb01 5104 	addge.w	r1, r1, r4, lsl #20
 8000458:	4329      	orrge	r1, r5
 800045a:	bd30      	popge	{r4, r5, pc}
 800045c:	ea6f 0404 	mvn.w	r4, r4
 8000460:	3c1f      	subs	r4, #31
 8000462:	da1c      	bge.n	800049e <__adddf3+0x1d2>
 8000464:	340c      	adds	r4, #12
 8000466:	dc0e      	bgt.n	8000486 <__adddf3+0x1ba>
 8000468:	f104 0414 	add.w	r4, r4, #20
 800046c:	f1c4 0220 	rsb	r2, r4, #32
 8000470:	fa20 f004 	lsr.w	r0, r0, r4
 8000474:	fa01 f302 	lsl.w	r3, r1, r2
 8000478:	ea40 0003 	orr.w	r0, r0, r3
 800047c:	fa21 f304 	lsr.w	r3, r1, r4
 8000480:	ea45 0103 	orr.w	r1, r5, r3
 8000484:	bd30      	pop	{r4, r5, pc}
 8000486:	f1c4 040c 	rsb	r4, r4, #12
 800048a:	f1c4 0220 	rsb	r2, r4, #32
 800048e:	fa20 f002 	lsr.w	r0, r0, r2
 8000492:	fa01 f304 	lsl.w	r3, r1, r4
 8000496:	ea40 0003 	orr.w	r0, r0, r3
 800049a:	4629      	mov	r1, r5
 800049c:	bd30      	pop	{r4, r5, pc}
 800049e:	fa21 f004 	lsr.w	r0, r1, r4
 80004a2:	4629      	mov	r1, r5
 80004a4:	bd30      	pop	{r4, r5, pc}
 80004a6:	f094 0f00 	teq	r4, #0
 80004aa:	f483 1380 	eor.w	r3, r3, #1048576	@ 0x100000
 80004ae:	bf06      	itte	eq
 80004b0:	f481 1180 	eoreq.w	r1, r1, #1048576	@ 0x100000
 80004b4:	3401      	addeq	r4, #1
 80004b6:	3d01      	subne	r5, #1
 80004b8:	e74e      	b.n	8000358 <__adddf3+0x8c>
 80004ba:	ea7f 5c64 	mvns.w	ip, r4, asr #21
 80004be:	bf18      	it	ne
 80004c0:	ea7f 5c65 	mvnsne.w	ip, r5, asr #21
 80004c4:	d029      	beq.n	800051a <__adddf3+0x24e>
 80004c6:	ea94 0f05 	teq	r4, r5
 80004ca:	bf08      	it	eq
 80004cc:	ea90 0f02 	teqeq	r0, r2
 80004d0:	d005      	beq.n	80004de <__adddf3+0x212>
 80004d2:	ea54 0c00 	orrs.w	ip, r4, r0
 80004d6:	bf04      	itt	eq
 80004d8:	4619      	moveq	r1, r3
 80004da:	4610      	moveq	r0, r2
 80004dc:	bd30      	pop	{r4, r5, pc}
 80004de:	ea91 0f03 	teq	r1, r3
 80004e2:	bf1e      	ittt	ne
 80004e4:	2100      	movne	r1, #0
 80004e6:	2000      	movne	r0, #0
 80004e8:	bd30      	popne	{r4, r5, pc}
 80004ea:	ea5f 5c54 	movs.w	ip, r4, lsr #21
 80004ee:	d105      	bne.n	80004fc <__adddf3+0x230>
 80004f0:	0040      	lsls	r0, r0, #1
 80004f2:	4149      	adcs	r1, r1
 80004f4:	bf28      	it	cs
 80004f6:	f041 4100 	orrcs.w	r1, r1, #2147483648	@ 0x80000000
 80004fa:	bd30      	pop	{r4, r5, pc}
 80004fc:	f514 0480 	adds.w	r4, r4, #4194304	@ 0x400000
 8000500:	bf3c      	itt	cc
 8000502:	f501 1180 	addcc.w	r1, r1, #1048576	@ 0x100000
 8000506:	bd30      	popcc	{r4, r5, pc}
 8000508:	f001 4500 	and.w	r5, r1, #2147483648	@ 0x80000000
 800050c:	f045 41fe 	orr.w	r1, r5, #2130706432	@ 0x7f000000
 8000510:	f441 0170 	orr.w	r1, r1, #15728640	@ 0xf00000
 8000514:	f04f 0000 	mov.w	r0, #0
 8000518:	bd30      	pop	{r4, r5, pc}
 800051a:	ea7f 5c64 	mvns.w	ip, r4, asr #21
 800051e:	bf1a      	itte	ne
 8000520:	4619      	movne	r1, r3
 8000522:	4610      	movne	r0, r2
 8000524:	ea7f 5c65 	mvnseq.w	ip, r5, asr #21
 8000528:	bf1c      	itt	ne
 800052a:	460b      	movne	r3, r1
 800052c:	4602      	movne	r2, r0
 800052e:	ea50 3401 	orrs.w	r4, r0, r1, lsl #12
 8000532:	bf06      	itte	eq
 8000534:	ea52 3503 	orrseq.w	r5, r2, r3, lsl #12
 8000538:	ea91 0f03 	teqeq	r1, r3
 800053c:	f441 2100 	orrne.w	r1, r1, #524288	@ 0x80000
 8000540:	bd30      	pop	{r4, r5, pc}
 8000542:	bf00      	nop

08000544 <__aeabi_ui2d>:
 8000544:	f090 0f00 	teq	r0, #0
 8000548:	bf04      	itt	eq
 800054a:	2100      	moveq	r1, #0
 800054c:	4770      	bxeq	lr
 800054e:	b530      	push	{r4, r5, lr}
 8000550:	f44f 6480 	mov.w	r4, #1024	@ 0x400
 8000554:	f104 0432 	add.w	r4, r4, #50	@ 0x32
 8000558:	f04f 0500 	mov.w	r5, #0
 800055c:	f04f 0100 	mov.w	r1, #0
 8000560:	e750      	b.n	8000404 <__adddf3+0x138>
 8000562:	bf00      	nop

08000564 <__aeabi_i2d>:
 8000564:	f090 0f00 	teq	r0, #0
 8000568:	bf04      	itt	eq
 800056a:	2100      	moveq	r1, #0
 800056c:	4770      	bxeq	lr
 800056e:	b530      	push	{r4, r5, lr}
 8000570:	f44f 6480 	mov.w	r4, #1024	@ 0x400
 8000574:	f104 0432 	add.w	r4, r4, #50	@ 0x32
 8000578:	f010 4500 	ands.w	r5, r0, #2147483648	@ 0x80000000
 800057c:	bf48      	it	mi
 800057e:	4240      	negmi	r0, r0
 8000580:	f04f 0100 	mov.w	r1, #0
 8000584:	e73e      	b.n	8000404 <__adddf3+0x138>
 8000586:	bf00      	nop

08000588 <__aeabi_f2d>:
 8000588:	0042      	lsls	r2, r0, #1
 800058a:	ea4f 01e2 	mov.w	r1, r2, asr #3
 800058e:	ea4f 0131 	mov.w	r1, r1, rrx
 8000592:	ea4f 7002 	mov.w	r0, r2, lsl #28
 8000596:	bf1f      	itttt	ne
 8000598:	f012 437f 	andsne.w	r3, r2, #4278190080	@ 0xff000000
 800059c:	f093 4f7f 	teqne	r3, #4278190080	@ 0xff000000
 80005a0:	f081 5160 	eorne.w	r1, r1, #939524096	@ 0x38000000
 80005a4:	4770      	bxne	lr
 80005a6:	f032 427f 	bics.w	r2, r2, #4278190080	@ 0xff000000
 80005aa:	bf08      	it	eq
 80005ac:	4770      	bxeq	lr
 80005ae:	f093 4f7f 	teq	r3, #4278190080	@ 0xff000000
 80005b2:	bf04      	itt	eq
 80005b4:	f441 2100 	orreq.w	r1, r1, #524288	@ 0x80000
 80005b8:	4770      	bxeq	lr
 80005ba:	b530      	push	{r4, r5, lr}
 80005bc:	f44f 7460 	mov.w	r4, #896	@ 0x380
 80005c0:	f001 4500 	and.w	r5, r1, #2147483648	@ 0x80000000
 80005c4:	f021 4100 	bic.w	r1, r1, #2147483648	@ 0x80000000
 80005c8:	e71c      	b.n	8000404 <__adddf3+0x138>
 80005ca:	bf00      	nop

080005cc <__aeabi_ul2d>:
 80005cc:	ea50 0201 	orrs.w	r2, r0, r1
 80005d0:	bf08      	it	eq
 80005d2:	4770      	bxeq	lr
 80005d4:	b530      	push	{r4, r5, lr}
 80005d6:	f04f 0500 	mov.w	r5, #0
 80005da:	e00a      	b.n	80005f2 <__aeabi_l2d+0x16>

080005dc <__aeabi_l2d>:
 80005dc:	ea50 0201 	orrs.w	r2, r0, r1
 80005e0:	bf08      	it	eq
 80005e2:	4770      	bxeq	lr
 80005e4:	b530      	push	{r4, r5, lr}
 80005e6:	f011 4500 	ands.w	r5, r1, #2147483648	@ 0x80000000
 80005ea:	d502      	bpl.n	80005f2 <__aeabi_l2d+0x16>
 80005ec:	4240      	negs	r0, r0
 80005ee:	eb61 0141 	sbc.w	r1, r1, r1, lsl #1
 80005f2:	f44f 6480 	mov.w	r4, #1024	@ 0x400
 80005f6:	f104 0432 	add.w	r4, r4, #50	@ 0x32
 80005fa:	ea5f 5c91 	movs.w	ip, r1, lsr #22
 80005fe:	f43f aed8 	beq.w	80003b2 <__adddf3+0xe6>
 8000602:	f04f 0203 	mov.w	r2, #3
 8000606:	ea5f 0cdc 	movs.w	ip, ip, lsr #3
 800060a:	bf18      	it	ne
 800060c:	3203      	addne	r2, #3
 800060e:	ea5f 0cdc 	movs.w	ip, ip, lsr #3
 8000612:	bf18      	it	ne
 8000614:	3203      	addne	r2, #3
 8000616:	eb02 02dc 	add.w	r2, r2, ip, lsr #3
 800061a:	f1c2 0320 	rsb	r3, r2, #32
 800061e:	fa00 fc03 	lsl.w	ip, r0, r3
 8000622:	fa20 f002 	lsr.w	r0, r0, r2
 8000626:	fa01 fe03 	lsl.w	lr, r1, r3
 800062a:	ea40 000e 	orr.w	r0, r0, lr
 800062e:	fa21 f102 	lsr.w	r1, r1, r2
 8000632:	4414      	add	r4, r2
 8000634:	e6bd      	b.n	80003b2 <__adddf3+0xe6>
 8000636:	bf00      	nop

08000638 <__aeabi_d2uiz>:
 8000638:	004a      	lsls	r2, r1, #1
 800063a:	d211      	bcs.n	8000660 <__aeabi_d2uiz+0x28>
 800063c:	f512 1200 	adds.w	r2, r2, #2097152	@ 0x200000
 8000640:	d211      	bcs.n	8000666 <__aeabi_d2uiz+0x2e>
 8000642:	d50d      	bpl.n	8000660 <__aeabi_d2uiz+0x28>
 8000644:	f46f 7378 	mvn.w	r3, #992	@ 0x3e0
 8000648:	ebb3 5262 	subs.w	r2, r3, r2, asr #21
 800064c:	d40e      	bmi.n	800066c <__aeabi_d2uiz+0x34>
 800064e:	ea4f 23c1 	mov.w	r3, r1, lsl #11
 8000652:	f043 4300 	orr.w	r3, r3, #2147483648	@ 0x80000000
 8000656:	ea43 5350 	orr.w	r3, r3, r0, lsr #21
 800065a:	fa23 f002 	lsr.w	r0, r3, r2
 800065e:	4770      	bx	lr
 8000660:	f04f 0000 	mov.w	r0, #0
 8000664:	4770      	bx	lr
 8000666:	ea50 3001 	orrs.w	r0, r0, r1, lsl #12
 800066a:	d102      	bne.n	8000672 <__aeabi_d2uiz+0x3a>
 800066c:	f04f 30ff 	mov.w	r0, #4294967295
 8000670:	4770      	bx	lr
 8000672:	f04f 0000 	mov.w	r0, #0
 8000676:	4770      	bx	lr

08000678 <Update_High_Scores>:
    uint64_t value = *(uint64_t*)address;
    return (uint16_t)(value & 0xFFFF);
}

// Funkcija za pisanje v flash pomnilnik
void Update_High_Scores(uint16_t new_score) {
 8000678:	b570      	push	{r4, r5, r6, lr}
    uint64_t value = *(uint64_t*)address;
 800067a:	4929      	ldr	r1, [pc, #164]	@ (8000720 <Update_High_Scores+0xa8>)
    return (uint16_t)(value & 0xFFFF);
 800067c:	880b      	ldrh	r3, [r1, #0]
void Update_High_Scores(uint16_t new_score) {
 800067e:	b088      	sub	sp, #32
    uint16_t scores[NUM_HIGH_SCORES];
    
    for(int i = 0; i < NUM_HIGH_SCORES; i++) {
        scores[i] = Flash_Read_UInt16(HIGH_SCORES_BASE_ADDRESS + (i * 8));
        if(scores[i] == 0xFFFF) scores[i] = 0;  
 8000680:	f64f 7cff 	movw	ip, #65535	@ 0xffff
 8000684:	4563      	cmp	r3, ip
 8000686:	bf08      	it	eq
 8000688:	2300      	moveq	r3, #0
 800068a:	f8ad 3008 	strh.w	r3, [sp, #8]
    return (uint16_t)(value & 0xFFFF);
 800068e:	890a      	ldrh	r2, [r1, #8]
        if(scores[i] == 0xFFFF) scores[i] = 0;  
 8000690:	4562      	cmp	r2, ip
 8000692:	bf08      	it	eq
 8000694:	2200      	moveq	r2, #0
 8000696:	f8ad 200a 	strh.w	r2, [sp, #10]
    return (uint16_t)(value & 0xFFFF);
 800069a:	8a09      	ldrh	r1, [r1, #16]
        if(scores[i] == 0xFFFF) scores[i] = 0;  
 800069c:	4561      	cmp	r1, ip
 800069e:	bf08      	it	eq
 80006a0:	2100      	moveq	r1, #0
    }
    
    int inserted = 0;
    for(int i = 0; i < NUM_HIGH_SCORES; i++) {
        if(new_score > scores[i] && !inserted) {
 80006a2:	4298      	cmp	r0, r3
 80006a4:	f8ad 100c 	strh.w	r1, [sp, #12]
 80006a8:	d805      	bhi.n	80006b6 <Update_High_Scores+0x3e>
 80006aa:	4290      	cmp	r0, r2
 80006ac:	d834      	bhi.n	8000718 <Update_High_Scores+0xa0>
 80006ae:	4281      	cmp	r1, r0
 80006b0:	d330      	bcc.n	8000714 <Update_High_Scores+0x9c>
                                value);
            }
        }
        HAL_FLASH_Lock();
    }
}
 80006b2:	b008      	add	sp, #32
 80006b4:	bd70      	pop	{r4, r5, r6, pc}
                scores[j] = scores[j-1];
 80006b6:	f8ad 300a 	strh.w	r3, [sp, #10]
 80006ba:	f8ad 200c 	strh.w	r2, [sp, #12]
            for(int j = NUM_HIGH_SCORES - 1; j > i; j--) {
 80006be:	2300      	movs	r3, #0
            scores[i] = new_score;
 80006c0:	aa08      	add	r2, sp, #32
 80006c2:	eb02 0343 	add.w	r3, r2, r3, lsl #1
        eraseInitStruct.TypeErase = FLASH_TYPEERASE_PAGES;
 80006c6:	2400      	movs	r4, #0
            scores[i] = new_score;
 80006c8:	f823 0c18 	strh.w	r0, [r3, #-24]
        eraseInitStruct.TypeErase = FLASH_TYPEERASE_PAGES;
 80006cc:	2502      	movs	r5, #2
        HAL_FLASH_Unlock();
 80006ce:	f004 f873 	bl	80047b8 <HAL_FLASH_Unlock>
        eraseInitStruct.TypeErase = FLASH_TYPEERASE_PAGES;
 80006d2:	22ff      	movs	r2, #255	@ 0xff
 80006d4:	2301      	movs	r3, #1
        if (HAL_FLASHEx_Erase(&eraseInitStruct, &pageError) == HAL_OK) {
 80006d6:	a901      	add	r1, sp, #4
 80006d8:	a804      	add	r0, sp, #16
        eraseInitStruct.TypeErase = FLASH_TYPEERASE_PAGES;
 80006da:	e9cd 4504 	strd	r4, r5, [sp, #16]
 80006de:	e9cd 2306 	strd	r2, r3, [sp, #24]
        if (HAL_FLASHEx_Erase(&eraseInitStruct, &pageError) == HAL_OK) {
 80006e2:	f004 f8b1 	bl	8004848 <HAL_FLASHEx_Erase>
 80006e6:	b988      	cbnz	r0, 800070c <Update_High_Scores+0x94>
 80006e8:	4c0d      	ldr	r4, [pc, #52]	@ (8000720 <Update_High_Scores+0xa8>)
            for(int i = 0; i < NUM_HIGH_SCORES; i++) {
 80006ea:	4e0e      	ldr	r6, [pc, #56]	@ (8000724 <Update_High_Scores+0xac>)
 80006ec:	ad02      	add	r5, sp, #8
                value = (value & ~0xFFFFULL) | scores[i];
 80006ee:	f835 2b02 	ldrh.w	r2, [r5], #2
                HAL_FLASH_Program(FLASH_TYPEPROGRAM_DOUBLEWORD, 
 80006f2:	ea6f 4202 	mvn.w	r2, r2, lsl #16
 80006f6:	4621      	mov	r1, r4
 80006f8:	f04f 33ff 	mov.w	r3, #4294967295
 80006fc:	ea6f 4212 	mvn.w	r2, r2, lsr #16
            for(int i = 0; i < NUM_HIGH_SCORES; i++) {
 8000700:	3408      	adds	r4, #8
                HAL_FLASH_Program(FLASH_TYPEPROGRAM_DOUBLEWORD, 
 8000702:	2000      	movs	r0, #0
 8000704:	f003 ffa0 	bl	8004648 <HAL_FLASH_Program>
            for(int i = 0; i < NUM_HIGH_SCORES; i++) {
 8000708:	42b4      	cmp	r4, r6
 800070a:	d1f0      	bne.n	80006ee <Update_High_Scores+0x76>
        HAL_FLASH_Lock();
 800070c:	f004 f868 	bl	80047e0 <HAL_FLASH_Lock>
}
 8000710:	b008      	add	sp, #32
 8000712:	bd70      	pop	{r4, r5, r6, pc}
    for(int i = 0; i < NUM_HIGH_SCORES; i++) {
 8000714:	2302      	movs	r3, #2
 8000716:	e7d3      	b.n	80006c0 <Update_High_Scores+0x48>
                scores[j] = scores[j-1];
 8000718:	f8ad 200c 	strh.w	r2, [sp, #12]
 800071c:	2301      	movs	r3, #1
 800071e:	e7cf      	b.n	80006c0 <Update_High_Scores+0x48>
 8000720:	0807f800 	.word	0x0807f800
 8000724:	0807f818 	.word	0x0807f818

08000728 <Get_High_Scores>:
    uint64_t value = *(uint64_t*)address;
 8000728:	4b04      	ldr	r3, [pc, #16]	@ (800073c <Get_High_Scores+0x14>)

uint16_t* Get_High_Scores(void) {
    static uint16_t scores[NUM_HIGH_SCORES];
    
    for(int i = 0; i < NUM_HIGH_SCORES; i++) {
        scores[i] = Flash_Read_UInt16(HIGH_SCORES_BASE_ADDRESS + (i * 8));
 800072a:	4805      	ldr	r0, [pc, #20]	@ (8000740 <Get_High_Scores+0x18>)
    return (uint16_t)(value & 0xFFFF);
 800072c:	681a      	ldr	r2, [r3, #0]
 800072e:	8002      	strh	r2, [r0, #0]
 8000730:	689a      	ldr	r2, [r3, #8]
 8000732:	691b      	ldr	r3, [r3, #16]
 8000734:	8042      	strh	r2, [r0, #2]
 8000736:	8083      	strh	r3, [r0, #4]
    }
    
    return scores;
}
 8000738:	4770      	bx	lr
 800073a:	bf00      	nop
 800073c:	0807f800 	.word	0x0807f800
 8000740:	200000cc 	.word	0x200000cc

08000744 <Intro>:
        state = GAME_INTRO_STATE;
        break;
    }
}

uint8_t Intro() {
 8000744:	e92d 47f0 	stmdb	sp!, {r4, r5, r6, r7, r8, r9, sl, lr}
	uint8_t exit_value = 0;
	int a = 0x01;

	switch (intro_state) {
 8000748:	4db0      	ldr	r5, [pc, #704]	@ (8000a0c <Intro+0x2c8>)
 800074a:	7829      	ldrb	r1, [r5, #0]
uint8_t Intro() {
 800074c:	b086      	sub	sp, #24
	switch (intro_state) {
 800074e:	2907      	cmp	r1, #7
 8000750:	f200 8444 	bhi.w	8000fdc <Intro+0x898>
 8000754:	e8df f011 	tbh	[pc, r1, lsl #1]
 8000758:	007a0013 	.word	0x007a0013
 800075c:	000f009a 	.word	0x000f009a
 8000760:	010c00cc 	.word	0x010c00cc
 8000764:	00080126 	.word	0x00080126
		intro_state = INTRO_WAIT_FOR_ANY_KEY;
		exit_value = 0;
		break;

	case INTRO_WAIT_FOR_ANY_KEY:
		key = KBD_get_pressed_key();
 8000768:	f006 fa86 	bl	8006c78 <KBD_get_pressed_key>
 800076c:	4ba8      	ldr	r3, [pc, #672]	@ (8000a10 <Intro+0x2cc>)
		if (key != BTN_NONE) {
 800076e:	2807      	cmp	r0, #7
		key = KBD_get_pressed_key();
 8000770:	7018      	strb	r0, [r3, #0]
		if (key != BTN_NONE) {
 8000772:	f040 8221 	bne.w	8000bb8 <Intro+0x474>
		exit_value = 0;
 8000776:	2000      	movs	r0, #0
		exit_value = 0;
		break;
	}

	return exit_value;
}
 8000778:	b006      	add	sp, #24
 800077a:	e8bd 87f0 	ldmia.w	sp!, {r4, r5, r6, r7, r8, r9, sl, pc}
		OBJ_init();
 800077e:	f002 f8b5 	bl	80028ec <OBJ_init>
		OBJ_init_big_sprite(20, 20);
 8000782:	2114      	movs	r1, #20
 8000784:	4608      	mov	r0, r1
 8000786:	f002 f969 	bl	8002a5c <OBJ_init_big_sprite>
		GFX_draw_gfx_object(&background);
 800078a:	48a2      	ldr	r0, [pc, #648]	@ (8000a14 <Intro+0x2d0>)
			if (TIMUT_stopwatch_has_X_ms_passed(&update_stopwatch_intro_exit, 4000)) {
 800078c:	4fa2      	ldr	r7, [pc, #648]	@ (8000a18 <Intro+0x2d4>)
			if (TIMUT_stopwatch_has_another_X_ms_passed(&update_stopwatch_intro, 7)) {
 800078e:	f8df 829c 	ldr.w	r8, [pc, #668]	@ 8000a2c <Intro+0x2e8>
				GFX_update_moving_gfx_object_location(&misko);
 8000792:	f8df a290 	ldr.w	sl, [pc, #656]	@ 8000a24 <Intro+0x2e0>
		GFX_draw_gfx_object(&background);
 8000796:	f001 f89d 	bl	80018d4 <GFX_draw_gfx_object>
		GFX_draw_one_gfx_object_on_background(&big_sprite, &background);
 800079a:	499e      	ldr	r1, [pc, #632]	@ (8000a14 <Intro+0x2d0>)
 800079c:	489f      	ldr	r0, [pc, #636]	@ (8000a1c <Intro+0x2d8>)
 800079e:	f001 fcbd 	bl	800211c <GFX_draw_one_gfx_object_on_background>
		OBJ_init_flappy_misko_text(59, 32);
 80007a2:	2120      	movs	r1, #32
 80007a4:	203b      	movs	r0, #59	@ 0x3b
 80007a6:	f002 f9dd 	bl	8002b64 <OBJ_init_flappy_misko_text>
		GFX_display_text_object(&flappy_misko_text);
 80007aa:	489d      	ldr	r0, [pc, #628]	@ (8000a20 <Intro+0x2dc>)
 80007ac:	f001 fdca 	bl	8002344 <GFX_display_text_object>
		GFX_set_gfx_object_location(&misko, 0, 120);
 80007b0:	2278      	movs	r2, #120	@ 0x78
 80007b2:	2100      	movs	r1, #0
 80007b4:	489b      	ldr	r0, [pc, #620]	@ (8000a24 <Intro+0x2e0>)
 80007b6:	f001 f97f 	bl	8001ab8 <GFX_set_gfx_object_location>
		GFX_draw_one_gfx_object_on_background(&misko, &background);
 80007ba:	4996      	ldr	r1, [pc, #600]	@ (8000a14 <Intro+0x2d0>)
 80007bc:	4899      	ldr	r0, [pc, #612]	@ (8000a24 <Intro+0x2e0>)
 80007be:	f001 fcad 	bl	800211c <GFX_draw_one_gfx_object_on_background>
		GFX_set_gfx_object_velocity(&misko, 2, 0);
 80007c2:	2200      	movs	r2, #0
 80007c4:	2102      	movs	r1, #2
 80007c6:	4897      	ldr	r0, [pc, #604]	@ (8000a24 <Intro+0x2e0>)
 80007c8:	f001 f9d6 	bl	8001b78 <GFX_set_gfx_object_velocity>
		TIMUT_stopwatch_set_time_mark(&stopwatch_leds);
 80007cc:	4896      	ldr	r0, [pc, #600]	@ (8000a28 <Intro+0x2e4>)
 80007ce:	f006 fc2d 	bl	800702c <TIMUT_stopwatch_set_time_mark>
		TIMUT_stopwatch_set_time_mark(&update_stopwatch_intro);
 80007d2:	4896      	ldr	r0, [pc, #600]	@ (8000a2c <Intro+0x2e8>)
 80007d4:	f006 fc2a 	bl	800702c <TIMUT_stopwatch_set_time_mark>
		TIMUT_stopwatch_set_time_mark(&update_stopwatch_intro_exit);
 80007d8:	488f      	ldr	r0, [pc, #572]	@ (8000a18 <Intro+0x2d4>)
 80007da:	f006 fc27 	bl	800702c <TIMUT_stopwatch_set_time_mark>
		OBJ_init_small_sprite_object(&loading_sprite, 50, 190);
 80007de:	22be      	movs	r2, #190	@ 0xbe
 80007e0:	4893      	ldr	r0, [pc, #588]	@ (8000a30 <Intro+0x2ec>)
 80007e2:	2132      	movs	r1, #50	@ 0x32
 80007e4:	f002 f918 	bl	8002a18 <OBJ_init_small_sprite_object>
		GFX_draw_one_gfx_object_on_background(&loading_sprite, &background);
 80007e8:	498a      	ldr	r1, [pc, #552]	@ (8000a14 <Intro+0x2d0>)
 80007ea:	4891      	ldr	r0, [pc, #580]	@ (8000a30 <Intro+0x2ec>)
 80007ec:	f001 fc96 	bl	800211c <GFX_draw_one_gfx_object_on_background>
		TIMUT_stopwatch_set_time_mark(&loading_text_stopwatch);
 80007f0:	a801      	add	r0, sp, #4
 80007f2:	f006 fc1b 	bl	800702c <TIMUT_stopwatch_set_time_mark>
		OBJ_init_loading_text(96, 196, "LOADING");
 80007f6:	4a8f      	ldr	r2, [pc, #572]	@ (8000a34 <Intro+0x2f0>)
 80007f8:	21c4      	movs	r1, #196	@ 0xc4
 80007fa:	2060      	movs	r0, #96	@ 0x60
 80007fc:	f002 f9c8 	bl	8002b90 <OBJ_init_loading_text>
		GFX_display_text_object(&flappy_misko_text);
 8000800:	4887      	ldr	r0, [pc, #540]	@ (8000a20 <Intro+0x2dc>)
 8000802:	f001 fd9f 	bl	8002344 <GFX_display_text_object>
		int loading_direction = 1;
 8000806:	f04f 0901 	mov.w	r9, #1
		int loading_state = 0;
 800080a:	2600      	movs	r6, #0
	int a = 0x01;
 800080c:	464c      	mov	r4, r9
			if (TIMUT_stopwatch_has_X_ms_passed(&update_stopwatch_intro_exit, 4000)) {
 800080e:	f44f 617a 	mov.w	r1, #4000	@ 0xfa0
 8000812:	4638      	mov	r0, r7
 8000814:	f006 fc10 	bl	8007038 <TIMUT_stopwatch_has_X_ms_passed>
 8000818:	2800      	cmp	r0, #0
 800081a:	f040 8177 	bne.w	8000b0c <Intro+0x3c8>
			if (TIMUT_stopwatch_has_another_X_ms_passed(&update_stopwatch_intro, 7)) {
 800081e:	2107      	movs	r1, #7
 8000820:	4640      	mov	r0, r8
 8000822:	f006 fc17 	bl	8007054 <TIMUT_stopwatch_has_another_X_ms_passed>
 8000826:	2800      	cmp	r0, #0
 8000828:	f040 8196 	bne.w	8000b58 <Intro+0x414>
			if (TIMUT_stopwatch_has_another_X_ms_passed(&loading_text_stopwatch, 100)) {
 800082c:	2164      	movs	r1, #100	@ 0x64
 800082e:	a801      	add	r0, sp, #4
 8000830:	f006 fc10 	bl	8007054 <TIMUT_stopwatch_has_another_X_ms_passed>
 8000834:	2800      	cmp	r0, #0
 8000836:	f000 8153 	beq.w	8000ae0 <Intro+0x39c>
				switch (loading_state) {
 800083a:	2e03      	cmp	r6, #3
 800083c:	f200 83c2 	bhi.w	8000fc4 <Intro+0x880>
 8000840:	e8df f016 	tbh	[pc, r6, lsl #1]
 8000844:	01740136 	.word	0x01740136
 8000848:	00bc00d0 	.word	0x00bc00d0
        GFX_draw_gfx_object(&background);
 800084c:	4871      	ldr	r0, [pc, #452]	@ (8000a14 <Intro+0x2d0>)
 800084e:	f001 f841 	bl	80018d4 <GFX_draw_gfx_object>
        GFX_clear_gfx_object_on_background(&misko, &background);
 8000852:	4970      	ldr	r1, [pc, #448]	@ (8000a14 <Intro+0x2d0>)
 8000854:	4873      	ldr	r0, [pc, #460]	@ (8000a24 <Intro+0x2e0>)
 8000856:	f001 fce1 	bl	800221c <GFX_clear_gfx_object_on_background>
		GFX_clear_gfx_object_on_background(&big_sprite, &background);
 800085a:	496e      	ldr	r1, [pc, #440]	@ (8000a14 <Intro+0x2d0>)
 800085c:	486f      	ldr	r0, [pc, #444]	@ (8000a1c <Intro+0x2d8>)
 800085e:	f001 fcdd 	bl	800221c <GFX_clear_gfx_object_on_background>
        OBJ_init_small_sprite_object(&press_any_key_sprite, 50, 180);
 8000862:	22b4      	movs	r2, #180	@ 0xb4
 8000864:	4874      	ldr	r0, [pc, #464]	@ (8000a38 <Intro+0x2f4>)
 8000866:	2132      	movs	r1, #50	@ 0x32
 8000868:	f002 f8d6 	bl	8002a18 <OBJ_init_small_sprite_object>
		GFX_draw_one_gfx_object_on_background(&press_any_key_sprite, &background);
 800086c:	4969      	ldr	r1, [pc, #420]	@ (8000a14 <Intro+0x2d0>)
 800086e:	4872      	ldr	r0, [pc, #456]	@ (8000a38 <Intro+0x2f4>)
 8000870:	f001 fc54 	bl	800211c <GFX_draw_one_gfx_object_on_background>
		OBJ_init_text_tiny(61, 190, "PRESS ANY KEY TO START", &press_any_key_text);
 8000874:	4b71      	ldr	r3, [pc, #452]	@ (8000a3c <Intro+0x2f8>)
 8000876:	4a72      	ldr	r2, [pc, #456]	@ (8000a40 <Intro+0x2fc>)
 8000878:	21be      	movs	r1, #190	@ 0xbe
 800087a:	203d      	movs	r0, #61	@ 0x3d
 800087c:	f002 f9ba 	bl	8002bf4 <OBJ_init_text_tiny>
        GFX_display_text_object(&press_any_key_text);
 8000880:	486e      	ldr	r0, [pc, #440]	@ (8000a3c <Intro+0x2f8>)
 8000882:	f001 fd5f 	bl	8002344 <GFX_display_text_object>
		intro_state = INTRO_WAIT_FOR_ANY_KEY;
 8000886:	2307      	movs	r3, #7
 8000888:	702b      	strb	r3, [r5, #0]
		break;
 800088a:	e774      	b.n	8000776 <Intro+0x32>
		if (!menu_initialized) {
 800088c:	4f6d      	ldr	r7, [pc, #436]	@ (8000a44 <Intro+0x300>)
 800088e:	783b      	ldrb	r3, [r7, #0]
 8000890:	2b00      	cmp	r3, #0
 8000892:	f000 8324 	beq.w	8000ede <Intro+0x79a>
		if (previous_selected_item != selected_menu_item) {
 8000896:	4c6c      	ldr	r4, [pc, #432]	@ (8000a48 <Intro+0x304>)
 8000898:	4e6c      	ldr	r6, [pc, #432]	@ (8000a4c <Intro+0x308>)
 800089a:	7822      	ldrb	r2, [r4, #0]
 800089c:	6833      	ldr	r3, [r6, #0]
 800089e:	429a      	cmp	r2, r3
 80008a0:	f000 816d 	beq.w	8000b7e <Intro+0x43a>
			GFX_draw_one_gfx_object_on_background(&start_game_sprite, &background);
 80008a4:	495b      	ldr	r1, [pc, #364]	@ (8000a14 <Intro+0x2d0>)
 80008a6:	486a      	ldr	r0, [pc, #424]	@ (8000a50 <Intro+0x30c>)
 80008a8:	f001 fc38 	bl	800211c <GFX_draw_one_gfx_object_on_background>
			GFX_draw_one_gfx_object_on_background(&choose_theme_sprite, &background);
 80008ac:	4959      	ldr	r1, [pc, #356]	@ (8000a14 <Intro+0x2d0>)
 80008ae:	4869      	ldr	r0, [pc, #420]	@ (8000a54 <Intro+0x310>)
 80008b0:	f001 fc34 	bl	800211c <GFX_draw_one_gfx_object_on_background>
			GFX_draw_one_gfx_object_on_background(&high_scores_sprite, &background);
 80008b4:	4957      	ldr	r1, [pc, #348]	@ (8000a14 <Intro+0x2d0>)
 80008b6:	4868      	ldr	r0, [pc, #416]	@ (8000a58 <Intro+0x314>)
 80008b8:	f001 fc30 	bl	800211c <GFX_draw_one_gfx_object_on_background>
			GFX_draw_one_gfx_object_on_background(&finger_or_button_sprite, &background);
 80008bc:	4955      	ldr	r1, [pc, #340]	@ (8000a14 <Intro+0x2d0>)
 80008be:	4867      	ldr	r0, [pc, #412]	@ (8000a5c <Intro+0x318>)
 80008c0:	f001 fc2c 	bl	800211c <GFX_draw_one_gfx_object_on_background>
			GFX_display_text_object(&start_game_text);
 80008c4:	4866      	ldr	r0, [pc, #408]	@ (8000a60 <Intro+0x31c>)
 80008c6:	f001 fd3d 	bl	8002344 <GFX_display_text_object>
			GFX_display_text_object(&choose_theme_text);
 80008ca:	4866      	ldr	r0, [pc, #408]	@ (8000a64 <Intro+0x320>)
 80008cc:	f001 fd3a 	bl	8002344 <GFX_display_text_object>
			GFX_display_text_object(&high_scores_text);
 80008d0:	4865      	ldr	r0, [pc, #404]	@ (8000a68 <Intro+0x324>)
 80008d2:	f001 fd37 	bl	8002344 <GFX_display_text_object>
			GFX_display_text_object(&touch_or_button_text);
 80008d6:	4865      	ldr	r0, [pc, #404]	@ (8000a6c <Intro+0x328>)
 80008d8:	f001 fd34 	bl	8002344 <GFX_display_text_object>
			switch (selected_menu_item) {
 80008dc:	7823      	ldrb	r3, [r4, #0]
 80008de:	2b03      	cmp	r3, #3
 80008e0:	f200 8148 	bhi.w	8000b74 <Intro+0x430>
 80008e4:	e8df f013 	tbh	[pc, r3, lsl #1]
 80008e8:	01800187 	.word	0x01800187
 80008ec:	01790140 	.word	0x01790140
		if (!theme_menu_initialized) {
 80008f0:	4e5f      	ldr	r6, [pc, #380]	@ (8000a70 <Intro+0x32c>)
 80008f2:	7833      	ldrb	r3, [r6, #0]
 80008f4:	2b00      	cmp	r3, #0
 80008f6:	f000 8291 	beq.w	8000e1c <Intro+0x6d8>
		if (previous_selected_theme != selected_theme) {
 80008fa:	4f5e      	ldr	r7, [pc, #376]	@ (8000a74 <Intro+0x330>)
 80008fc:	4c5e      	ldr	r4, [pc, #376]	@ (8000a78 <Intro+0x334>)
 80008fe:	683a      	ldr	r2, [r7, #0]
 8000900:	6823      	ldr	r3, [r4, #0]
 8000902:	429a      	cmp	r2, r3
 8000904:	d01e      	beq.n	8000944 <Intro+0x200>
			GFX_draw_one_gfx_object_on_background(&dark_theme_sprite, &background);
 8000906:	4943      	ldr	r1, [pc, #268]	@ (8000a14 <Intro+0x2d0>)
 8000908:	485c      	ldr	r0, [pc, #368]	@ (8000a7c <Intro+0x338>)
 800090a:	f001 fc07 	bl	800211c <GFX_draw_one_gfx_object_on_background>
			GFX_draw_one_gfx_object_on_background(&light_theme_sprite, &background);
 800090e:	4941      	ldr	r1, [pc, #260]	@ (8000a14 <Intro+0x2d0>)
 8000910:	485b      	ldr	r0, [pc, #364]	@ (8000a80 <Intro+0x33c>)
 8000912:	f001 fc03 	bl	800211c <GFX_draw_one_gfx_object_on_background>
			GFX_display_text_object(&dark_theme_text);
 8000916:	485b      	ldr	r0, [pc, #364]	@ (8000a84 <Intro+0x340>)
 8000918:	f001 fd14 	bl	8002344 <GFX_display_text_object>
			GFX_display_text_object(&light_theme_text);
 800091c:	485a      	ldr	r0, [pc, #360]	@ (8000a88 <Intro+0x344>)
 800091e:	f001 fd11 	bl	8002344 <GFX_display_text_object>
			switch (selected_play_style) {
 8000922:	6823      	ldr	r3, [r4, #0]
 8000924:	2b00      	cmp	r3, #0
 8000926:	f000 8340 	beq.w	8000faa <Intro+0x866>
 800092a:	2b01      	cmp	r3, #1
 800092c:	d105      	bne.n	800093a <Intro+0x1f6>
				OBJ_init_text_small(230, 160, "->", &text_selector);
 800092e:	4b57      	ldr	r3, [pc, #348]	@ (8000a8c <Intro+0x348>)
 8000930:	4a57      	ldr	r2, [pc, #348]	@ (8000a90 <Intro+0x34c>)
 8000932:	21a0      	movs	r1, #160	@ 0xa0
 8000934:	20e6      	movs	r0, #230	@ 0xe6
 8000936:	f002 f93d 	bl	8002bb4 <OBJ_init_text_small>
			GFX_display_text_object(&text_selector);
 800093a:	4854      	ldr	r0, [pc, #336]	@ (8000a8c <Intro+0x348>)
 800093c:	f001 fd02 	bl	8002344 <GFX_display_text_object>
			previous_selected_play_style = selected_play_style;
 8000940:	6823      	ldr	r3, [r4, #0]
 8000942:	603b      	str	r3, [r7, #0]
		key = KBD_get_pressed_key();
 8000944:	f006 f998 	bl	8006c78 <KBD_get_pressed_key>
 8000948:	4b31      	ldr	r3, [pc, #196]	@ (8000a10 <Intro+0x2cc>)
		if (key == BTN_UP || key == BTN_DOWN) {
 800094a:	2801      	cmp	r0, #1
		key = KBD_get_pressed_key();
 800094c:	7018      	strb	r0, [r3, #0]
		if (key == BTN_UP || key == BTN_DOWN) {
 800094e:	f240 8120 	bls.w	8000b92 <Intro+0x44e>
		} else if (key == BTN_OK || key == BTN_ESC) {
 8000952:	3804      	subs	r0, #4
 8000954:	2801      	cmp	r0, #1
 8000956:	f63f af0e 	bhi.w	8000776 <Intro+0x32>
			play_style_menu_initialized = 0;
 800095a:	2300      	movs	r3, #0
			intro_state = INTRO_MAIN_MENU;
 800095c:	2102      	movs	r1, #2
			menu_initialized = 0;
 800095e:	4839      	ldr	r0, [pc, #228]	@ (8000a44 <Intro+0x300>)
			previous_selected_item = -1;
 8000960:	4a3a      	ldr	r2, [pc, #232]	@ (8000a4c <Intro+0x308>)
			play_style_menu_initialized = 0;
 8000962:	7033      	strb	r3, [r6, #0]
			intro_state = INTRO_MAIN_MENU;
 8000964:	7029      	strb	r1, [r5, #0]
			previous_selected_item = -1;
 8000966:	f04f 31ff 	mov.w	r1, #4294967295
			menu_initialized = 0;
 800096a:	7003      	strb	r3, [r0, #0]
			previous_selected_item = -1;
 800096c:	6011      	str	r1, [r2, #0]
 800096e:	e702      	b.n	8000776 <Intro+0x32>
		if (!high_scores_initialized) {
 8000970:	4c48      	ldr	r4, [pc, #288]	@ (8000a94 <Intro+0x350>)
 8000972:	7823      	ldrb	r3, [r4, #0]
 8000974:	2b00      	cmp	r3, #0
 8000976:	f000 81e9 	beq.w	8000d4c <Intro+0x608>
		key = KBD_get_pressed_key();
 800097a:	f006 f97d 	bl	8006c78 <KBD_get_pressed_key>
 800097e:	4b24      	ldr	r3, [pc, #144]	@ (8000a10 <Intro+0x2cc>)
		if (key != BTN_NONE) {
 8000980:	2807      	cmp	r0, #7
		key = KBD_get_pressed_key();
 8000982:	7018      	strb	r0, [r3, #0]
		if (key != BTN_NONE) {
 8000984:	f43f aef7 	beq.w	8000776 <Intro+0x32>
			menu_initialized = 0;
 8000988:	482e      	ldr	r0, [pc, #184]	@ (8000a44 <Intro+0x300>)
			previous_selected_item = -1;
 800098a:	4a30      	ldr	r2, [pc, #192]	@ (8000a4c <Intro+0x308>)
			high_scores_initialized = 0;
 800098c:	2300      	movs	r3, #0
			intro_state = INTRO_MAIN_MENU;
 800098e:	2102      	movs	r1, #2
 8000990:	7029      	strb	r1, [r5, #0]
			menu_initialized = 0;
 8000992:	7003      	strb	r3, [r0, #0]
			previous_selected_item = -1;
 8000994:	f04f 31ff 	mov.w	r1, #4294967295
			GFX_draw_gfx_object(&background);
 8000998:	481e      	ldr	r0, [pc, #120]	@ (8000a14 <Intro+0x2d0>)
			high_scores_initialized = 0;
 800099a:	7023      	strb	r3, [r4, #0]
			previous_selected_item = -1;
 800099c:	6011      	str	r1, [r2, #0]
			GFX_draw_gfx_object(&background);
 800099e:	f000 ff99 	bl	80018d4 <GFX_draw_gfx_object>
 80009a2:	e6e8      	b.n	8000776 <Intro+0x32>
		if (!play_style_menu_initialized) {
 80009a4:	4e3c      	ldr	r6, [pc, #240]	@ (8000a98 <Intro+0x354>)
 80009a6:	7833      	ldrb	r3, [r6, #0]
 80009a8:	2b00      	cmp	r3, #0
 80009aa:	f000 813f 	beq.w	8000c2c <Intro+0x4e8>
		if (previous_selected_play_style != selected_play_style) {
 80009ae:	4f3b      	ldr	r7, [pc, #236]	@ (8000a9c <Intro+0x358>)
 80009b0:	4c3b      	ldr	r4, [pc, #236]	@ (8000aa0 <Intro+0x35c>)
 80009b2:	683a      	ldr	r2, [r7, #0]
 80009b4:	6823      	ldr	r3, [r4, #0]
 80009b6:	429a      	cmp	r2, r3
 80009b8:	d1a5      	bne.n	8000906 <Intro+0x1c2>
 80009ba:	e7c3      	b.n	8000944 <Intro+0x200>
					OBJ_init_loading_text(96, 196, "LOADING...");
 80009bc:	4a39      	ldr	r2, [pc, #228]	@ (8000aa4 <Intro+0x360>)
 80009be:	21c4      	movs	r1, #196	@ 0xc4
 80009c0:	2060      	movs	r0, #96	@ 0x60
 80009c2:	f002 f8e5 	bl	8002b90 <OBJ_init_loading_text>
					GFX_display_text_object(&loading_text);
 80009c6:	4838      	ldr	r0, [pc, #224]	@ (8000aa8 <Intro+0x364>)
 80009c8:	f001 fcbc 	bl	8002344 <GFX_display_text_object>
				GFX_display_text_object(&flappy_misko_text);
 80009cc:	4814      	ldr	r0, [pc, #80]	@ (8000a20 <Intro+0x2dc>)
 80009ce:	f001 fcb9 	bl	8002344 <GFX_display_text_object>
				if (loading_direction == 1) {
 80009d2:	f1b9 0f01 	cmp.w	r9, #1
 80009d6:	f000 82f3 	beq.w	8000fc0 <Intro+0x87c>
				} else if (loading_direction == -1) {
 80009da:	f1b9 3fff 	cmp.w	r9, #4294967295
 80009de:	d17f      	bne.n	8000ae0 <Intro+0x39c>
					loading_state++;
 80009e0:	2602      	movs	r6, #2
 80009e2:	e07d      	b.n	8000ae0 <Intro+0x39c>
					OBJ_init_loading_text(96, 196, "LOADING..");
 80009e4:	4a31      	ldr	r2, [pc, #196]	@ (8000aac <Intro+0x368>)
 80009e6:	21c4      	movs	r1, #196	@ 0xc4
 80009e8:	2060      	movs	r0, #96	@ 0x60
 80009ea:	f002 f8d1 	bl	8002b90 <OBJ_init_loading_text>
					GFX_display_text_object(&loading_text);
 80009ee:	482e      	ldr	r0, [pc, #184]	@ (8000aa8 <Intro+0x364>)
 80009f0:	f001 fca8 	bl	8002344 <GFX_display_text_object>
				GFX_display_text_object(&flappy_misko_text);
 80009f4:	480a      	ldr	r0, [pc, #40]	@ (8000a20 <Intro+0x2dc>)
 80009f6:	f001 fca5 	bl	8002344 <GFX_display_text_object>
				if (loading_direction == 1) {
 80009fa:	f1b9 0f01 	cmp.w	r9, #1
 80009fe:	f000 82db 	beq.w	8000fb8 <Intro+0x874>
				} else if (loading_direction == -1) {
 8000a02:	f1b9 3fff 	cmp.w	r9, #4294967295
 8000a06:	d1eb      	bne.n	80009e0 <Intro+0x29c>
					loading_state++;
 8000a08:	2601      	movs	r6, #1
 8000a0a:	e069      	b.n	8000ae0 <Intro+0x39c>
 8000a0c:	200000e6 	.word	0x200000e6
 8000a10:	20000314 	.word	0x20000314
 8000a14:	20000a34 	.word	0x20000a34
 8000a18:	200002f4 	.word	0x200002f4
 8000a1c:	200007d4 	.word	0x200007d4
 8000a20:	20000538 	.word	0x20000538
 8000a24:	200005c0 	.word	0x200005c0
 8000a28:	2000030c 	.word	0x2000030c
 8000a2c:	200002fc 	.word	0x200002fc
 8000a30:	2000086c 	.word	0x2000086c
 8000a34:	08008b00 	.word	0x08008b00
 8000a38:	200006f0 	.word	0x200006f0
 8000a3c:	200003cc 	.word	0x200003cc
 8000a40:	08008be0 	.word	0x08008be0
 8000a44:	200000ed 	.word	0x200000ed
 8000a48:	20000324 	.word	0x20000324
 8000a4c:	20000008 	.word	0x20000008
 8000a50:	2000099c 	.word	0x2000099c
 8000a54:	20000950 	.word	0x20000950
 8000a58:	20000904 	.word	0x20000904
 8000a5c:	200008b8 	.word	0x200008b8
 8000a60:	2000050c 	.word	0x2000050c
 8000a64:	200004f8 	.word	0x200004f8
 8000a68:	200004e4 	.word	0x200004e4
 8000a6c:	200004d0 	.word	0x200004d0
 8000a70:	200000e4 	.word	0x200000e4
 8000a74:	20000000 	.word	0x20000000
 8000a78:	200000e0 	.word	0x200000e0
 8000a7c:	20000788 	.word	0x20000788
 8000a80:	2000073c 	.word	0x2000073c
 8000a84:	200003f4 	.word	0x200003f4
 8000a88:	200003e0 	.word	0x200003e0
 8000a8c:	200004bc 	.word	0x200004bc
 8000a90:	08008b60 	.word	0x08008b60
 8000a94:	200000dd 	.word	0x200000dd
 8000a98:	200000ec 	.word	0x200000ec
 8000a9c:	20000004 	.word	0x20000004
 8000aa0:	200000e8 	.word	0x200000e8
 8000aa4:	08008b20 	.word	0x08008b20
 8000aa8:	20000520 	.word	0x20000520
 8000aac:	08008b14 	.word	0x08008b14
					GFX_draw_one_gfx_object_on_background(&loading_sprite, &background);
 8000ab0:	498f      	ldr	r1, [pc, #572]	@ (8000cf0 <Intro+0x5ac>)
 8000ab2:	4890      	ldr	r0, [pc, #576]	@ (8000cf4 <Intro+0x5b0>)
 8000ab4:	f001 fb32 	bl	800211c <GFX_draw_one_gfx_object_on_background>
					OBJ_init_loading_text(96, 196, "LOADING");
 8000ab8:	4a8f      	ldr	r2, [pc, #572]	@ (8000cf8 <Intro+0x5b4>)
 8000aba:	21c4      	movs	r1, #196	@ 0xc4
 8000abc:	2060      	movs	r0, #96	@ 0x60
 8000abe:	f002 f867 	bl	8002b90 <OBJ_init_loading_text>
					GFX_display_text_object(&loading_text);
 8000ac2:	488e      	ldr	r0, [pc, #568]	@ (8000cfc <Intro+0x5b8>)
 8000ac4:	f001 fc3e 	bl	8002344 <GFX_display_text_object>
				GFX_display_text_object(&flappy_misko_text);
 8000ac8:	488d      	ldr	r0, [pc, #564]	@ (8000d00 <Intro+0x5bc>)
 8000aca:	f001 fc3b 	bl	8002344 <GFX_display_text_object>
				if (loading_direction == 1) {
 8000ace:	f1b9 0f01 	cmp.w	r9, #1
 8000ad2:	d099      	beq.n	8000a08 <Intro+0x2c4>
				} else if (loading_direction == -1) {
 8000ad4:	f1b9 3fff 	cmp.w	r9, #4294967295
 8000ad8:	f04f 36ff 	mov.w	r6, #4294967295
 8000adc:	bf18      	it	ne
 8000ade:	2600      	movne	r6, #0
			LEDs_write(a);
 8000ae0:	b2e0      	uxtb	r0, r4
 8000ae2:	f005 ff35 	bl	8006950 <LEDs_write>
			if (TIMUT_stopwatch_has_another_X_ms_passed(&stopwatch_leds, 100)) {
 8000ae6:	4887      	ldr	r0, [pc, #540]	@ (8000d04 <Intro+0x5c0>)
 8000ae8:	2164      	movs	r1, #100	@ 0x64
 8000aea:	f006 fab3 	bl	8007054 <TIMUT_stopwatch_has_another_X_ms_passed>
 8000aee:	2800      	cmp	r0, #0
 8000af0:	f43f ae8d 	beq.w	800080e <Intro+0xca>
				a = a << 1;
 8000af4:	0064      	lsls	r4, r4, #1
					a = 0x01;
 8000af6:	2c81      	cmp	r4, #129	@ 0x81
			if (TIMUT_stopwatch_has_X_ms_passed(&update_stopwatch_intro_exit, 4000)) {
 8000af8:	f44f 617a 	mov.w	r1, #4000	@ 0xfa0
 8000afc:	4638      	mov	r0, r7
					a = 0x01;
 8000afe:	bfa8      	it	ge
 8000b00:	2401      	movge	r4, #1
			if (TIMUT_stopwatch_has_X_ms_passed(&update_stopwatch_intro_exit, 4000)) {
 8000b02:	f006 fa99 	bl	8007038 <TIMUT_stopwatch_has_X_ms_passed>
 8000b06:	2800      	cmp	r0, #0
 8000b08:	f43f ae89 	beq.w	800081e <Intro+0xda>
		LEDs_off(0xFF);
 8000b0c:	20ff      	movs	r0, #255	@ 0xff
 8000b0e:	f005 feeb 	bl	80068e8 <LEDs_off>
		GFX_clear_gfx_object_on_background(&misko, &background);
 8000b12:	4977      	ldr	r1, [pc, #476]	@ (8000cf0 <Intro+0x5ac>)
 8000b14:	487c      	ldr	r0, [pc, #496]	@ (8000d08 <Intro+0x5c4>)
 8000b16:	f001 fb81 	bl	800221c <GFX_clear_gfx_object_on_background>
		GFX_clear_gfx_object_on_background(&big_sprite, &background);
 8000b1a:	4975      	ldr	r1, [pc, #468]	@ (8000cf0 <Intro+0x5ac>)
 8000b1c:	487b      	ldr	r0, [pc, #492]	@ (8000d0c <Intro+0x5c8>)
 8000b1e:	f001 fb7d 	bl	800221c <GFX_clear_gfx_object_on_background>
		KBD_flush();
 8000b22:	f006 f8bd 	bl	8006ca0 <KBD_flush>
		intro_state = INTRO_MAIN_MENU;
 8000b26:	2302      	movs	r3, #2
 8000b28:	702b      	strb	r3, [r5, #0]
		break;
 8000b2a:	e624      	b.n	8000776 <Intro+0x32>
					OBJ_init_loading_text(96, 196, "LOADING.");
 8000b2c:	4a78      	ldr	r2, [pc, #480]	@ (8000d10 <Intro+0x5cc>)
 8000b2e:	21c4      	movs	r1, #196	@ 0xc4
 8000b30:	2060      	movs	r0, #96	@ 0x60
 8000b32:	f002 f82d 	bl	8002b90 <OBJ_init_loading_text>
					GFX_display_text_object(&loading_text);
 8000b36:	4871      	ldr	r0, [pc, #452]	@ (8000cfc <Intro+0x5b8>)
 8000b38:	f001 fc04 	bl	8002344 <GFX_display_text_object>
				GFX_display_text_object(&flappy_misko_text);
 8000b3c:	4870      	ldr	r0, [pc, #448]	@ (8000d00 <Intro+0x5bc>)
 8000b3e:	f001 fc01 	bl	8002344 <GFX_display_text_object>
				if (loading_direction == 1) {
 8000b42:	f1b9 0f01 	cmp.w	r9, #1
 8000b46:	f43f af4b 	beq.w	80009e0 <Intro+0x29c>
				} else if (loading_direction == -1) {
 8000b4a:	f1b9 3fff 	cmp.w	r9, #4294967295
 8000b4e:	f47f af5b 	bne.w	8000a08 <Intro+0x2c4>
						loading_direction = 1;
 8000b52:	46b1      	mov	r9, r6
					loading_state--;
 8000b54:	2600      	movs	r6, #0
 8000b56:	e7c3      	b.n	8000ae0 <Intro+0x39c>
				GFX_update_moving_gfx_object_location(&misko);
 8000b58:	4650      	mov	r0, sl
 8000b5a:	f001 f8b9 	bl	8001cd0 <GFX_update_moving_gfx_object_location>
				GFX_draw_one_gfx_object_on_background(&misko, &background);
 8000b5e:	4964      	ldr	r1, [pc, #400]	@ (8000cf0 <Intro+0x5ac>)
 8000b60:	4650      	mov	r0, sl
 8000b62:	f001 fadb 	bl	800211c <GFX_draw_one_gfx_object_on_background>
 8000b66:	e661      	b.n	800082c <Intro+0xe8>
				OBJ_init_text_small(230, 160, "->", &text_selector);
 8000b68:	4b6a      	ldr	r3, [pc, #424]	@ (8000d14 <Intro+0x5d0>)
 8000b6a:	4a6b      	ldr	r2, [pc, #428]	@ (8000d18 <Intro+0x5d4>)
 8000b6c:	21a0      	movs	r1, #160	@ 0xa0
 8000b6e:	20e6      	movs	r0, #230	@ 0xe6
 8000b70:	f002 f820 	bl	8002bb4 <OBJ_init_text_small>
			GFX_display_text_object(&text_selector);
 8000b74:	4867      	ldr	r0, [pc, #412]	@ (8000d14 <Intro+0x5d0>)
 8000b76:	f001 fbe5 	bl	8002344 <GFX_display_text_object>
			previous_selected_item = selected_menu_item;
 8000b7a:	7823      	ldrb	r3, [r4, #0]
 8000b7c:	6033      	str	r3, [r6, #0]
		key = KBD_get_pressed_key();
 8000b7e:	f006 f87b 	bl	8006c78 <KBD_get_pressed_key>
 8000b82:	4b66      	ldr	r3, [pc, #408]	@ (8000d1c <Intro+0x5d8>)
 8000b84:	7018      	strb	r0, [r3, #0]
		if (key == BTN_UP) {
 8000b86:	b950      	cbnz	r0, 8000b9e <Intro+0x45a>
			if (selected_menu_item == 0) {
 8000b88:	7823      	ldrb	r3, [r4, #0]
 8000b8a:	b9e3      	cbnz	r3, 8000bc6 <Intro+0x482>
				selected_menu_item = MENU_ITEMS_COUNT - 1;
 8000b8c:	2303      	movs	r3, #3
 8000b8e:	7023      	strb	r3, [r4, #0]
 8000b90:	e5f1      	b.n	8000776 <Intro+0x32>
			selected_play_style = !selected_play_style;
 8000b92:	6823      	ldr	r3, [r4, #0]
 8000b94:	fab3 f383 	clz	r3, r3
 8000b98:	095b      	lsrs	r3, r3, #5
 8000b9a:	6023      	str	r3, [r4, #0]
 8000b9c:	e5eb      	b.n	8000776 <Intro+0x32>
		} else if (key == BTN_DOWN) {
 8000b9e:	2801      	cmp	r0, #1
 8000ba0:	d014      	beq.n	8000bcc <Intro+0x488>
		} else if (key == BTN_OK) {
 8000ba2:	2804      	cmp	r0, #4
 8000ba4:	f47f ade7 	bne.w	8000776 <Intro+0x32>
			switch (selected_menu_item) {
 8000ba8:	7823      	ldrb	r3, [r4, #0]
 8000baa:	2b03      	cmp	r3, #3
 8000bac:	f63f ade3 	bhi.w	8000776 <Intro+0x32>
 8000bb0:	e8df f003 	tbb	[pc, r3]
 8000bb4:	282d3237 	.word	0x282d3237
            GFX_draw_gfx_object(&background);
 8000bb8:	484d      	ldr	r0, [pc, #308]	@ (8000cf0 <Intro+0x5ac>)
			intro_state = INTRO_INIT;
 8000bba:	2300      	movs	r3, #0
 8000bbc:	702b      	strb	r3, [r5, #0]
            GFX_draw_gfx_object(&background);
 8000bbe:	f000 fe89 	bl	80018d4 <GFX_draw_gfx_object>
			exit_value = 1;
 8000bc2:	2001      	movs	r0, #1
 8000bc4:	e5d8      	b.n	8000778 <Intro+0x34>
				selected_menu_item--;
 8000bc6:	3b01      	subs	r3, #1
 8000bc8:	7023      	strb	r3, [r4, #0]
 8000bca:	e5d4      	b.n	8000776 <Intro+0x32>
			if (selected_menu_item == MENU_ITEMS_COUNT - 1) {
 8000bcc:	7823      	ldrb	r3, [r4, #0]
 8000bce:	2b03      	cmp	r3, #3
				selected_menu_item = 0;
 8000bd0:	bf0c      	ite	eq
 8000bd2:	2300      	moveq	r3, #0
				selected_menu_item++;
 8000bd4:	3301      	addne	r3, #1
 8000bd6:	7023      	strb	r3, [r4, #0]
 8000bd8:	e5cd      	b.n	8000776 <Intro+0x32>
				OBJ_init_text_small(230, 200, "->", &text_selector);
 8000bda:	4b4e      	ldr	r3, [pc, #312]	@ (8000d14 <Intro+0x5d0>)
 8000bdc:	4a4e      	ldr	r2, [pc, #312]	@ (8000d18 <Intro+0x5d4>)
 8000bde:	21c8      	movs	r1, #200	@ 0xc8
 8000be0:	20e6      	movs	r0, #230	@ 0xe6
 8000be2:	f001 ffe7 	bl	8002bb4 <OBJ_init_text_small>
				break;
 8000be6:	e7c5      	b.n	8000b74 <Intro+0x430>
				OBJ_init_text_small(230, 120, "->", &text_selector);
 8000be8:	4b4a      	ldr	r3, [pc, #296]	@ (8000d14 <Intro+0x5d0>)
 8000bea:	4a4b      	ldr	r2, [pc, #300]	@ (8000d18 <Intro+0x5d4>)
 8000bec:	2178      	movs	r1, #120	@ 0x78
 8000bee:	20e6      	movs	r0, #230	@ 0xe6
 8000bf0:	f001 ffe0 	bl	8002bb4 <OBJ_init_text_small>
				break;
 8000bf4:	e7be      	b.n	8000b74 <Intro+0x430>
				OBJ_init_text_small(230, 80, "->", &text_selector);
 8000bf6:	4b47      	ldr	r3, [pc, #284]	@ (8000d14 <Intro+0x5d0>)
 8000bf8:	4a47      	ldr	r2, [pc, #284]	@ (8000d18 <Intro+0x5d4>)
 8000bfa:	2150      	movs	r1, #80	@ 0x50
 8000bfc:	20e6      	movs	r0, #230	@ 0xe6
 8000bfe:	f001 ffd9 	bl	8002bb4 <OBJ_init_text_small>
				break;
 8000c02:	e7b7      	b.n	8000b74 <Intro+0x430>
				intro_state = INTRO_PLAY_WITH;
 8000c04:	2206      	movs	r2, #6
				menu_initialized = 0;
 8000c06:	2300      	movs	r3, #0
				intro_state = INTRO_PLAY_WITH;
 8000c08:	702a      	strb	r2, [r5, #0]
				menu_initialized = 0;
 8000c0a:	703b      	strb	r3, [r7, #0]
				break;
 8000c0c:	e5b3      	b.n	8000776 <Intro+0x32>
				intro_state = INTRO_HIGH_SCORES;
 8000c0e:	2205      	movs	r2, #5
				menu_initialized = 0;
 8000c10:	2300      	movs	r3, #0
				intro_state = INTRO_HIGH_SCORES;
 8000c12:	702a      	strb	r2, [r5, #0]
				menu_initialized = 0;
 8000c14:	703b      	strb	r3, [r7, #0]
				break;
 8000c16:	e5ae      	b.n	8000776 <Intro+0x32>
				intro_state = INTRO_CHOOSE_THEME;
 8000c18:	2204      	movs	r2, #4
				menu_initialized = 0;
 8000c1a:	2300      	movs	r3, #0
				intro_state = INTRO_CHOOSE_THEME;
 8000c1c:	702a      	strb	r2, [r5, #0]
				menu_initialized = 0;
 8000c1e:	703b      	strb	r3, [r7, #0]
				break;
 8000c20:	e5a9      	b.n	8000776 <Intro+0x32>
				menu_initialized = 0;
 8000c22:	2200      	movs	r2, #0
				intro_state = INTRO_PRESS_ANY_KEY;
 8000c24:	2301      	movs	r3, #1
				menu_initialized = 0;
 8000c26:	703a      	strb	r2, [r7, #0]
				intro_state = INTRO_PRESS_ANY_KEY;
 8000c28:	702b      	strb	r3, [r5, #0]
				break;
 8000c2a:	e5a4      	b.n	8000776 <Intro+0x32>
			GFX_draw_gfx_object(&background);
 8000c2c:	4830      	ldr	r0, [pc, #192]	@ (8000cf0 <Intro+0x5ac>)
			previous_selected_play_style = selected_play_style;
 8000c2e:	4c3c      	ldr	r4, [pc, #240]	@ (8000d20 <Intro+0x5dc>)
			GFX_draw_gfx_object(&background);
 8000c30:	f000 fe50 	bl	80018d4 <GFX_draw_gfx_object>
			OBJ_init_big_sprite(20, 10);
 8000c34:	210a      	movs	r1, #10
 8000c36:	2014      	movs	r0, #20
 8000c38:	f001 ff10 	bl	8002a5c <OBJ_init_big_sprite>
			GFX_draw_one_gfx_object_on_background(&big_sprite, &background);
 8000c3c:	492c      	ldr	r1, [pc, #176]	@ (8000cf0 <Intro+0x5ac>)
 8000c3e:	4833      	ldr	r0, [pc, #204]	@ (8000d0c <Intro+0x5c8>)
 8000c40:	f001 fa6c 	bl	800211c <GFX_draw_one_gfx_object_on_background>
			OBJ_init_flappy_misko_text(30, 22);
 8000c44:	2116      	movs	r1, #22
 8000c46:	201e      	movs	r0, #30
 8000c48:	f001 ff8c 	bl	8002b64 <OBJ_init_flappy_misko_text>
			GFX_display_text_object(&flappy_misko_text);
 8000c4c:	482c      	ldr	r0, [pc, #176]	@ (8000d00 <Intro+0x5bc>)
 8000c4e:	f001 fb79 	bl	8002344 <GFX_display_text_object>
			GFX_set_gfx_object_location(&misko, 240, 22);
 8000c52:	2216      	movs	r2, #22
 8000c54:	21f0      	movs	r1, #240	@ 0xf0
 8000c56:	482c      	ldr	r0, [pc, #176]	@ (8000d08 <Intro+0x5c4>)
 8000c58:	f000 ff2e 	bl	8001ab8 <GFX_set_gfx_object_location>
			GFX_draw_one_gfx_object_on_background(&misko, &background);
 8000c5c:	4924      	ldr	r1, [pc, #144]	@ (8000cf0 <Intro+0x5ac>)
 8000c5e:	482a      	ldr	r0, [pc, #168]	@ (8000d08 <Intro+0x5c4>)
 8000c60:	f001 fa5c 	bl	800211c <GFX_draw_one_gfx_object_on_background>
			OBJ_init_small_sprite_object(&play_with_sprite, 50, 70);
 8000c64:	482f      	ldr	r0, [pc, #188]	@ (8000d24 <Intro+0x5e0>)
 8000c66:	2246      	movs	r2, #70	@ 0x46
 8000c68:	2132      	movs	r1, #50	@ 0x32
 8000c6a:	f001 fed5 	bl	8002a18 <OBJ_init_small_sprite_object>
			OBJ_init_small_sprite_object(&buttons_sprite, 50, 110);
 8000c6e:	482e      	ldr	r0, [pc, #184]	@ (8000d28 <Intro+0x5e4>)
 8000c70:	226e      	movs	r2, #110	@ 0x6e
 8000c72:	2132      	movs	r1, #50	@ 0x32
 8000c74:	f001 fed0 	bl	8002a18 <OBJ_init_small_sprite_object>
			OBJ_init_small_sprite_object(&touchscreen_sprite, 50, 150);
 8000c78:	2296      	movs	r2, #150	@ 0x96
 8000c7a:	482c      	ldr	r0, [pc, #176]	@ (8000d2c <Intro+0x5e8>)
 8000c7c:	2132      	movs	r1, #50	@ 0x32
 8000c7e:	f001 fecb 	bl	8002a18 <OBJ_init_small_sprite_object>
			GFX_draw_one_gfx_object_on_background(&play_with_sprite, &background);
 8000c82:	491b      	ldr	r1, [pc, #108]	@ (8000cf0 <Intro+0x5ac>)
 8000c84:	4827      	ldr	r0, [pc, #156]	@ (8000d24 <Intro+0x5e0>)
 8000c86:	f001 fa49 	bl	800211c <GFX_draw_one_gfx_object_on_background>
			GFX_draw_one_gfx_object_on_background(&buttons_sprite, &background);
 8000c8a:	4919      	ldr	r1, [pc, #100]	@ (8000cf0 <Intro+0x5ac>)
 8000c8c:	4826      	ldr	r0, [pc, #152]	@ (8000d28 <Intro+0x5e4>)
 8000c8e:	f001 fa45 	bl	800211c <GFX_draw_one_gfx_object_on_background>
			GFX_draw_one_gfx_object_on_background(&touchscreen_sprite, &background);
 8000c92:	4917      	ldr	r1, [pc, #92]	@ (8000cf0 <Intro+0x5ac>)
 8000c94:	4825      	ldr	r0, [pc, #148]	@ (8000d2c <Intro+0x5e8>)
 8000c96:	f001 fa41 	bl	800211c <GFX_draw_one_gfx_object_on_background>
			OBJ_init_text_small(60, 80, "PLAY WITH:", &choose_theme_text);
 8000c9a:	4b25      	ldr	r3, [pc, #148]	@ (8000d30 <Intro+0x5ec>)
 8000c9c:	4a25      	ldr	r2, [pc, #148]	@ (8000d34 <Intro+0x5f0>)
 8000c9e:	2150      	movs	r1, #80	@ 0x50
 8000ca0:	203c      	movs	r0, #60	@ 0x3c
 8000ca2:	f001 ff87 	bl	8002bb4 <OBJ_init_text_small>
			OBJ_init_text_small(60, 120, "BUTTONS", &dark_theme_text);
 8000ca6:	4b24      	ldr	r3, [pc, #144]	@ (8000d38 <Intro+0x5f4>)
 8000ca8:	4a24      	ldr	r2, [pc, #144]	@ (8000d3c <Intro+0x5f8>)
 8000caa:	2178      	movs	r1, #120	@ 0x78
 8000cac:	203c      	movs	r0, #60	@ 0x3c
 8000cae:	f001 ff81 	bl	8002bb4 <OBJ_init_text_small>
			OBJ_init_text_small(60, 160, "TOUCHSCREEN", &light_theme_text);
 8000cb2:	4b23      	ldr	r3, [pc, #140]	@ (8000d40 <Intro+0x5fc>)
 8000cb4:	4a23      	ldr	r2, [pc, #140]	@ (8000d44 <Intro+0x600>)
 8000cb6:	21a0      	movs	r1, #160	@ 0xa0
 8000cb8:	203c      	movs	r0, #60	@ 0x3c
 8000cba:	f001 ff7b 	bl	8002bb4 <OBJ_init_text_small>
			GFX_display_text_object(&choose_theme_text);
 8000cbe:	481c      	ldr	r0, [pc, #112]	@ (8000d30 <Intro+0x5ec>)
 8000cc0:	f001 fb40 	bl	8002344 <GFX_display_text_object>
			GFX_display_text_object(&dark_theme_text);
 8000cc4:	481c      	ldr	r0, [pc, #112]	@ (8000d38 <Intro+0x5f4>)
 8000cc6:	f001 fb3d 	bl	8002344 <GFX_display_text_object>
			GFX_display_text_object(&light_theme_text);
 8000cca:	481d      	ldr	r0, [pc, #116]	@ (8000d40 <Intro+0x5fc>)
 8000ccc:	f001 fb3a 	bl	8002344 <GFX_display_text_object>
			OBJ_init_text_small(230, 120, "->", &text_selector);
 8000cd0:	4b10      	ldr	r3, [pc, #64]	@ (8000d14 <Intro+0x5d0>)
 8000cd2:	4a11      	ldr	r2, [pc, #68]	@ (8000d18 <Intro+0x5d4>)
 8000cd4:	2178      	movs	r1, #120	@ 0x78
 8000cd6:	20e6      	movs	r0, #230	@ 0xe6
 8000cd8:	f001 ff6c 	bl	8002bb4 <OBJ_init_text_small>
			GFX_display_text_object(&text_selector);
 8000cdc:	480d      	ldr	r0, [pc, #52]	@ (8000d14 <Intro+0x5d0>)
 8000cde:	f001 fb31 	bl	8002344 <GFX_display_text_object>
			previous_selected_play_style = selected_play_style;
 8000ce2:	4b19      	ldr	r3, [pc, #100]	@ (8000d48 <Intro+0x604>)
 8000ce4:	6822      	ldr	r2, [r4, #0]
 8000ce6:	601a      	str	r2, [r3, #0]
			play_style_menu_initialized = 1;
 8000ce8:	2301      	movs	r3, #1
 8000cea:	7033      	strb	r3, [r6, #0]
		if (previous_selected_play_style != selected_play_style) {
 8000cec:	e62a      	b.n	8000944 <Intro+0x200>
 8000cee:	bf00      	nop
 8000cf0:	20000a34 	.word	0x20000a34
 8000cf4:	2000086c 	.word	0x2000086c
 8000cf8:	08008b00 	.word	0x08008b00
 8000cfc:	20000520 	.word	0x20000520
 8000d00:	20000538 	.word	0x20000538
 8000d04:	2000030c 	.word	0x2000030c
 8000d08:	200005c0 	.word	0x200005c0
 8000d0c:	200007d4 	.word	0x200007d4
 8000d10:	08008b08 	.word	0x08008b08
 8000d14:	200004bc 	.word	0x200004bc
 8000d18:	08008b60 	.word	0x08008b60
 8000d1c:	20000314 	.word	0x20000314
 8000d20:	200000e8 	.word	0x200000e8
 8000d24:	200006a4 	.word	0x200006a4
 8000d28:	20000658 	.word	0x20000658
 8000d2c:	2000060c 	.word	0x2000060c
 8000d30:	200004f8 	.word	0x200004f8
 8000d34:	08008bc0 	.word	0x08008bc0
 8000d38:	200003f4 	.word	0x200003f4
 8000d3c:	08008bcc 	.word	0x08008bcc
 8000d40:	200003e0 	.word	0x200003e0
 8000d44:	08008bd4 	.word	0x08008bd4
 8000d48:	20000004 	.word	0x20000004
			GFX_draw_gfx_object(&background);
 8000d4c:	48aa      	ldr	r0, [pc, #680]	@ (8000ff8 <Intro+0x8b4>)
 8000d4e:	f000 fdc1 	bl	80018d4 <GFX_draw_gfx_object>
			OBJ_init_high_score_sprite_large(30, 30);
 8000d52:	211e      	movs	r1, #30
 8000d54:	4608      	mov	r0, r1
 8000d56:	f001 fea7 	bl	8002aa8 <OBJ_init_high_score_sprite_large>
			GFX_draw_one_gfx_object_on_background(&high_score_sprite_large,&background);
 8000d5a:	49a7      	ldr	r1, [pc, #668]	@ (8000ff8 <Intro+0x8b4>)
 8000d5c:	48a7      	ldr	r0, [pc, #668]	@ (8000ffc <Intro+0x8b8>)
 8000d5e:	f001 f9dd 	bl	800211c <GFX_draw_one_gfx_object_on_background>
			uint16_t *high_scores = Get_High_Scores();
 8000d62:	f7ff fce1 	bl	8000728 <Get_High_Scores>
			OBJ_init_text_big(67, 40, "HIGH SCORES:", &high_scores_menu_text);
 8000d66:	4ba6      	ldr	r3, [pc, #664]	@ (8001000 <Intro+0x8bc>)
 8000d68:	4aa6      	ldr	r2, [pc, #664]	@ (8001004 <Intro+0x8c0>)
			uint16_t *high_scores = Get_High_Scores();
 8000d6a:	4606      	mov	r6, r0
			OBJ_init_text_big(67, 40, "HIGH SCORES:", &high_scores_menu_text);
 8000d6c:	2128      	movs	r1, #40	@ 0x28
 8000d6e:	2043      	movs	r0, #67	@ 0x43
 8000d70:	f001 ff30 	bl	8002bd4 <OBJ_init_text_big>
			GFX_display_text_object(&high_scores_menu_text);
 8000d74:	48a2      	ldr	r0, [pc, #648]	@ (8001000 <Intro+0x8bc>)
 8000d76:	f001 fae5 	bl	8002344 <GFX_display_text_object>
			sprintf(score_text, "%d", high_scores[0]);
 8000d7a:	8832      	ldrh	r2, [r6, #0]
 8000d7c:	49a2      	ldr	r1, [pc, #648]	@ (8001008 <Intro+0x8c4>)
 8000d7e:	a801      	add	r0, sp, #4
 8000d80:	f006 feb2 	bl	8007ae8 <siprintf>
			OBJ_init_text_big(50, 75, "1.", &high_score1_text);
 8000d84:	4ba1      	ldr	r3, [pc, #644]	@ (800100c <Intro+0x8c8>)
 8000d86:	4aa2      	ldr	r2, [pc, #648]	@ (8001010 <Intro+0x8cc>)
 8000d88:	214b      	movs	r1, #75	@ 0x4b
 8000d8a:	2032      	movs	r0, #50	@ 0x32
 8000d8c:	f001 ff22 	bl	8002bd4 <OBJ_init_text_big>
			OBJ_init_text_big(95, 75, score_text, &high_score1_text_value);
 8000d90:	4ba0      	ldr	r3, [pc, #640]	@ (8001014 <Intro+0x8d0>)
 8000d92:	aa01      	add	r2, sp, #4
 8000d94:	214b      	movs	r1, #75	@ 0x4b
 8000d96:	205f      	movs	r0, #95	@ 0x5f
 8000d98:	f001 ff1c 	bl	8002bd4 <OBJ_init_text_big>
			GFX_display_text_object(&high_score1_text);
 8000d9c:	489b      	ldr	r0, [pc, #620]	@ (800100c <Intro+0x8c8>)
 8000d9e:	f001 fad1 	bl	8002344 <GFX_display_text_object>
			GFX_display_text_object(&high_score1_text_value);
 8000da2:	489c      	ldr	r0, [pc, #624]	@ (8001014 <Intro+0x8d0>)
 8000da4:	f001 face 	bl	8002344 <GFX_display_text_object>
			sprintf(score_text, "%d", high_scores[1]);
 8000da8:	8872      	ldrh	r2, [r6, #2]
 8000daa:	4997      	ldr	r1, [pc, #604]	@ (8001008 <Intro+0x8c4>)
 8000dac:	a801      	add	r0, sp, #4
 8000dae:	f006 fe9b 	bl	8007ae8 <siprintf>
			OBJ_init_text_big(50, 110, "2.", &high_score2_text);
 8000db2:	4b99      	ldr	r3, [pc, #612]	@ (8001018 <Intro+0x8d4>)
 8000db4:	4a99      	ldr	r2, [pc, #612]	@ (800101c <Intro+0x8d8>)
 8000db6:	216e      	movs	r1, #110	@ 0x6e
 8000db8:	2032      	movs	r0, #50	@ 0x32
 8000dba:	f001 ff0b 	bl	8002bd4 <OBJ_init_text_big>
			OBJ_init_text_big(95, 110, score_text, &high_score2_text_value);
 8000dbe:	4b98      	ldr	r3, [pc, #608]	@ (8001020 <Intro+0x8dc>)
 8000dc0:	aa01      	add	r2, sp, #4
 8000dc2:	216e      	movs	r1, #110	@ 0x6e
 8000dc4:	205f      	movs	r0, #95	@ 0x5f
 8000dc6:	f001 ff05 	bl	8002bd4 <OBJ_init_text_big>
			GFX_display_text_object(&high_score2_text);
 8000dca:	4893      	ldr	r0, [pc, #588]	@ (8001018 <Intro+0x8d4>)
 8000dcc:	f001 faba 	bl	8002344 <GFX_display_text_object>
			GFX_display_text_object(&high_score2_text_value);
 8000dd0:	4893      	ldr	r0, [pc, #588]	@ (8001020 <Intro+0x8dc>)
 8000dd2:	f001 fab7 	bl	8002344 <GFX_display_text_object>
			sprintf(score_text, "%d", high_scores[2]);
 8000dd6:	88b2      	ldrh	r2, [r6, #4]
 8000dd8:	498b      	ldr	r1, [pc, #556]	@ (8001008 <Intro+0x8c4>)
 8000dda:	a801      	add	r0, sp, #4
 8000ddc:	f006 fe84 	bl	8007ae8 <siprintf>
			OBJ_init_text_big(50, 145, "3.", &high_score3_text);
 8000de0:	4b90      	ldr	r3, [pc, #576]	@ (8001024 <Intro+0x8e0>)
 8000de2:	4a91      	ldr	r2, [pc, #580]	@ (8001028 <Intro+0x8e4>)
 8000de4:	2191      	movs	r1, #145	@ 0x91
 8000de6:	2032      	movs	r0, #50	@ 0x32
 8000de8:	f001 fef4 	bl	8002bd4 <OBJ_init_text_big>
			OBJ_init_text_big(95, 145, score_text, &high_score3_text_value);
 8000dec:	4b8f      	ldr	r3, [pc, #572]	@ (800102c <Intro+0x8e8>)
 8000dee:	aa01      	add	r2, sp, #4
 8000df0:	2191      	movs	r1, #145	@ 0x91
 8000df2:	205f      	movs	r0, #95	@ 0x5f
 8000df4:	f001 feee 	bl	8002bd4 <OBJ_init_text_big>
			GFX_display_text_object(&high_score3_text);
 8000df8:	488a      	ldr	r0, [pc, #552]	@ (8001024 <Intro+0x8e0>)
 8000dfa:	f001 faa3 	bl	8002344 <GFX_display_text_object>
			GFX_display_text_object(&high_score3_text_value);
 8000dfe:	488b      	ldr	r0, [pc, #556]	@ (800102c <Intro+0x8e8>)
 8000e00:	f001 faa0 	bl	8002344 <GFX_display_text_object>
			OBJ_init_text_tiny(50, 185, "PRESS ANY KEY TO GO BACK", &press_to_go_back_text);
 8000e04:	4b8a      	ldr	r3, [pc, #552]	@ (8001030 <Intro+0x8ec>)
 8000e06:	4a8b      	ldr	r2, [pc, #556]	@ (8001034 <Intro+0x8f0>)
 8000e08:	21b9      	movs	r1, #185	@ 0xb9
 8000e0a:	2032      	movs	r0, #50	@ 0x32
 8000e0c:	f001 fef2 	bl	8002bf4 <OBJ_init_text_tiny>
			GFX_display_text_object(&press_to_go_back_text);
 8000e10:	4887      	ldr	r0, [pc, #540]	@ (8001030 <Intro+0x8ec>)
 8000e12:	f001 fa97 	bl	8002344 <GFX_display_text_object>
			high_scores_initialized = 1;
 8000e16:	2301      	movs	r3, #1
 8000e18:	7023      	strb	r3, [r4, #0]
 8000e1a:	e5ae      	b.n	800097a <Intro+0x236>
			GFX_draw_gfx_object(&background);
 8000e1c:	4876      	ldr	r0, [pc, #472]	@ (8000ff8 <Intro+0x8b4>)
			previous_selected_theme = selected_theme;
 8000e1e:	4c86      	ldr	r4, [pc, #536]	@ (8001038 <Intro+0x8f4>)
			GFX_draw_gfx_object(&background);
 8000e20:	f000 fd58 	bl	80018d4 <GFX_draw_gfx_object>
			OBJ_init_big_sprite(20, 10);
 8000e24:	210a      	movs	r1, #10
 8000e26:	2014      	movs	r0, #20
 8000e28:	f001 fe18 	bl	8002a5c <OBJ_init_big_sprite>
			GFX_draw_one_gfx_object_on_background(&big_sprite, &background);
 8000e2c:	4972      	ldr	r1, [pc, #456]	@ (8000ff8 <Intro+0x8b4>)
 8000e2e:	4883      	ldr	r0, [pc, #524]	@ (800103c <Intro+0x8f8>)
 8000e30:	f001 f974 	bl	800211c <GFX_draw_one_gfx_object_on_background>
			OBJ_init_flappy_misko_text(30, 22);
 8000e34:	2116      	movs	r1, #22
 8000e36:	201e      	movs	r0, #30
 8000e38:	f001 fe94 	bl	8002b64 <OBJ_init_flappy_misko_text>
			GFX_display_text_object(&flappy_misko_text);
 8000e3c:	4880      	ldr	r0, [pc, #512]	@ (8001040 <Intro+0x8fc>)
 8000e3e:	f001 fa81 	bl	8002344 <GFX_display_text_object>
			GFX_set_gfx_object_location(&misko, 240, 22);
 8000e42:	2216      	movs	r2, #22
 8000e44:	21f0      	movs	r1, #240	@ 0xf0
 8000e46:	487f      	ldr	r0, [pc, #508]	@ (8001044 <Intro+0x900>)
 8000e48:	f000 fe36 	bl	8001ab8 <GFX_set_gfx_object_location>
			GFX_draw_one_gfx_object_on_background(&misko, &background);
 8000e4c:	496a      	ldr	r1, [pc, #424]	@ (8000ff8 <Intro+0x8b4>)
 8000e4e:	487d      	ldr	r0, [pc, #500]	@ (8001044 <Intro+0x900>)
 8000e50:	f001 f964 	bl	800211c <GFX_draw_one_gfx_object_on_background>
			OBJ_init_small_sprite_object(&choose_theme_sprite, 50, 70);
 8000e54:	487c      	ldr	r0, [pc, #496]	@ (8001048 <Intro+0x904>)
 8000e56:	2246      	movs	r2, #70	@ 0x46
 8000e58:	2132      	movs	r1, #50	@ 0x32
 8000e5a:	f001 fddd 	bl	8002a18 <OBJ_init_small_sprite_object>
			OBJ_init_small_sprite_object(&dark_theme_sprite, 50, 110);
 8000e5e:	487b      	ldr	r0, [pc, #492]	@ (800104c <Intro+0x908>)
 8000e60:	226e      	movs	r2, #110	@ 0x6e
 8000e62:	2132      	movs	r1, #50	@ 0x32
 8000e64:	f001 fdd8 	bl	8002a18 <OBJ_init_small_sprite_object>
			OBJ_init_small_sprite_object(&light_theme_sprite, 50, 150);
 8000e68:	2296      	movs	r2, #150	@ 0x96
 8000e6a:	4879      	ldr	r0, [pc, #484]	@ (8001050 <Intro+0x90c>)
 8000e6c:	2132      	movs	r1, #50	@ 0x32
 8000e6e:	f001 fdd3 	bl	8002a18 <OBJ_init_small_sprite_object>
			GFX_draw_one_gfx_object_on_background(&choose_theme_sprite, &background);
 8000e72:	4961      	ldr	r1, [pc, #388]	@ (8000ff8 <Intro+0x8b4>)
 8000e74:	4874      	ldr	r0, [pc, #464]	@ (8001048 <Intro+0x904>)
 8000e76:	f001 f951 	bl	800211c <GFX_draw_one_gfx_object_on_background>
			GFX_draw_one_gfx_object_on_background(&dark_theme_sprite, &background);
 8000e7a:	495f      	ldr	r1, [pc, #380]	@ (8000ff8 <Intro+0x8b4>)
 8000e7c:	4873      	ldr	r0, [pc, #460]	@ (800104c <Intro+0x908>)
 8000e7e:	f001 f94d 	bl	800211c <GFX_draw_one_gfx_object_on_background>
			GFX_draw_one_gfx_object_on_background(&light_theme_sprite, &background);
 8000e82:	495d      	ldr	r1, [pc, #372]	@ (8000ff8 <Intro+0x8b4>)
 8000e84:	4872      	ldr	r0, [pc, #456]	@ (8001050 <Intro+0x90c>)
 8000e86:	f001 f949 	bl	800211c <GFX_draw_one_gfx_object_on_background>
			OBJ_init_text_small(60, 80, "CHOOSE THEME:", &choose_theme_text);
 8000e8a:	4b72      	ldr	r3, [pc, #456]	@ (8001054 <Intro+0x910>)
 8000e8c:	4a72      	ldr	r2, [pc, #456]	@ (8001058 <Intro+0x914>)
 8000e8e:	2150      	movs	r1, #80	@ 0x50
 8000e90:	203c      	movs	r0, #60	@ 0x3c
 8000e92:	f001 fe8f 	bl	8002bb4 <OBJ_init_text_small>
			OBJ_init_text_small(60, 120, "DARK", &dark_theme_text);
 8000e96:	4b71      	ldr	r3, [pc, #452]	@ (800105c <Intro+0x918>)
 8000e98:	4a71      	ldr	r2, [pc, #452]	@ (8001060 <Intro+0x91c>)
 8000e9a:	2178      	movs	r1, #120	@ 0x78
 8000e9c:	203c      	movs	r0, #60	@ 0x3c
 8000e9e:	f001 fe89 	bl	8002bb4 <OBJ_init_text_small>
			OBJ_init_text_small(60, 160, "LIGHT", &light_theme_text);
 8000ea2:	4b70      	ldr	r3, [pc, #448]	@ (8001064 <Intro+0x920>)
 8000ea4:	4a70      	ldr	r2, [pc, #448]	@ (8001068 <Intro+0x924>)
 8000ea6:	21a0      	movs	r1, #160	@ 0xa0
 8000ea8:	203c      	movs	r0, #60	@ 0x3c
 8000eaa:	f001 fe83 	bl	8002bb4 <OBJ_init_text_small>
			GFX_display_text_object(&choose_theme_text);
 8000eae:	4869      	ldr	r0, [pc, #420]	@ (8001054 <Intro+0x910>)
 8000eb0:	f001 fa48 	bl	8002344 <GFX_display_text_object>
			GFX_display_text_object(&dark_theme_text);
 8000eb4:	4869      	ldr	r0, [pc, #420]	@ (800105c <Intro+0x918>)
 8000eb6:	f001 fa45 	bl	8002344 <GFX_display_text_object>
			GFX_display_text_object(&light_theme_text);
 8000eba:	486a      	ldr	r0, [pc, #424]	@ (8001064 <Intro+0x920>)
 8000ebc:	f001 fa42 	bl	8002344 <GFX_display_text_object>
			OBJ_init_text_small(230, 120, "->", &text_selector);
 8000ec0:	4b6a      	ldr	r3, [pc, #424]	@ (800106c <Intro+0x928>)
 8000ec2:	4a6b      	ldr	r2, [pc, #428]	@ (8001070 <Intro+0x92c>)
 8000ec4:	2178      	movs	r1, #120	@ 0x78
 8000ec6:	20e6      	movs	r0, #230	@ 0xe6
 8000ec8:	f001 fe74 	bl	8002bb4 <OBJ_init_text_small>
			GFX_display_text_object(&text_selector);
 8000ecc:	4867      	ldr	r0, [pc, #412]	@ (800106c <Intro+0x928>)
 8000ece:	f001 fa39 	bl	8002344 <GFX_display_text_object>
			previous_selected_theme = selected_theme;
 8000ed2:	4b68      	ldr	r3, [pc, #416]	@ (8001074 <Intro+0x930>)
 8000ed4:	6822      	ldr	r2, [r4, #0]
 8000ed6:	601a      	str	r2, [r3, #0]
			theme_menu_initialized = 1;
 8000ed8:	2301      	movs	r3, #1
 8000eda:	7033      	strb	r3, [r6, #0]
		if (previous_selected_theme != selected_theme) {
 8000edc:	e532      	b.n	8000944 <Intro+0x200>
			GFX_draw_gfx_object(&background);
 8000ede:	4846      	ldr	r0, [pc, #280]	@ (8000ff8 <Intro+0x8b4>)
 8000ee0:	f000 fcf8 	bl	80018d4 <GFX_draw_gfx_object>
			OBJ_init_big_sprite(20, 10);
 8000ee4:	210a      	movs	r1, #10
 8000ee6:	2014      	movs	r0, #20
 8000ee8:	f001 fdb8 	bl	8002a5c <OBJ_init_big_sprite>
			GFX_draw_one_gfx_object_on_background(&big_sprite, &background);
 8000eec:	4942      	ldr	r1, [pc, #264]	@ (8000ff8 <Intro+0x8b4>)
 8000eee:	4853      	ldr	r0, [pc, #332]	@ (800103c <Intro+0x8f8>)
 8000ef0:	f001 f914 	bl	800211c <GFX_draw_one_gfx_object_on_background>
			OBJ_init_flappy_misko_text(30, 22);
 8000ef4:	2116      	movs	r1, #22
 8000ef6:	201e      	movs	r0, #30
 8000ef8:	f001 fe34 	bl	8002b64 <OBJ_init_flappy_misko_text>
			GFX_display_text_object(&flappy_misko_text);
 8000efc:	4850      	ldr	r0, [pc, #320]	@ (8001040 <Intro+0x8fc>)
 8000efe:	f001 fa21 	bl	8002344 <GFX_display_text_object>
			GFX_set_gfx_object_location(&misko2, 240, 22);
 8000f02:	2216      	movs	r2, #22
 8000f04:	21f0      	movs	r1, #240	@ 0xf0
 8000f06:	485c      	ldr	r0, [pc, #368]	@ (8001078 <Intro+0x934>)
 8000f08:	f000 fdd6 	bl	8001ab8 <GFX_set_gfx_object_location>
			GFX_draw_one_gfx_object_on_background(&misko2, &background);
 8000f0c:	493a      	ldr	r1, [pc, #232]	@ (8000ff8 <Intro+0x8b4>)
 8000f0e:	485a      	ldr	r0, [pc, #360]	@ (8001078 <Intro+0x934>)
 8000f10:	f001 f904 	bl	800211c <GFX_draw_one_gfx_object_on_background>
			OBJ_init_small_sprite_object(&start_game_sprite, 50, 70);
 8000f14:	4859      	ldr	r0, [pc, #356]	@ (800107c <Intro+0x938>)
 8000f16:	2246      	movs	r2, #70	@ 0x46
 8000f18:	2132      	movs	r1, #50	@ 0x32
 8000f1a:	f001 fd7d 	bl	8002a18 <OBJ_init_small_sprite_object>
			OBJ_init_small_sprite_object(&choose_theme_sprite, 50, 110);
 8000f1e:	484a      	ldr	r0, [pc, #296]	@ (8001048 <Intro+0x904>)
 8000f20:	226e      	movs	r2, #110	@ 0x6e
 8000f22:	2132      	movs	r1, #50	@ 0x32
 8000f24:	f001 fd78 	bl	8002a18 <OBJ_init_small_sprite_object>
			OBJ_init_small_sprite_object(&high_scores_sprite, 50, 150);
 8000f28:	4855      	ldr	r0, [pc, #340]	@ (8001080 <Intro+0x93c>)
 8000f2a:	2296      	movs	r2, #150	@ 0x96
 8000f2c:	2132      	movs	r1, #50	@ 0x32
 8000f2e:	f001 fd73 	bl	8002a18 <OBJ_init_small_sprite_object>
			OBJ_init_small_sprite_object(&finger_or_button_sprite, 50, 190);
 8000f32:	22be      	movs	r2, #190	@ 0xbe
 8000f34:	4853      	ldr	r0, [pc, #332]	@ (8001084 <Intro+0x940>)
 8000f36:	2132      	movs	r1, #50	@ 0x32
 8000f38:	f001 fd6e 	bl	8002a18 <OBJ_init_small_sprite_object>
			GFX_draw_one_gfx_object_on_background(&start_game_sprite, &background);
 8000f3c:	492e      	ldr	r1, [pc, #184]	@ (8000ff8 <Intro+0x8b4>)
 8000f3e:	484f      	ldr	r0, [pc, #316]	@ (800107c <Intro+0x938>)
 8000f40:	f001 f8ec 	bl	800211c <GFX_draw_one_gfx_object_on_background>
			GFX_draw_one_gfx_object_on_background(&choose_theme_sprite,&background);
 8000f44:	492c      	ldr	r1, [pc, #176]	@ (8000ff8 <Intro+0x8b4>)
 8000f46:	4840      	ldr	r0, [pc, #256]	@ (8001048 <Intro+0x904>)
 8000f48:	f001 f8e8 	bl	800211c <GFX_draw_one_gfx_object_on_background>
			GFX_draw_one_gfx_object_on_background(&high_scores_sprite, &background);
 8000f4c:	492a      	ldr	r1, [pc, #168]	@ (8000ff8 <Intro+0x8b4>)
 8000f4e:	484c      	ldr	r0, [pc, #304]	@ (8001080 <Intro+0x93c>)
 8000f50:	f001 f8e4 	bl	800211c <GFX_draw_one_gfx_object_on_background>
			GFX_draw_one_gfx_object_on_background(&finger_or_button_sprite, &background);
 8000f54:	4928      	ldr	r1, [pc, #160]	@ (8000ff8 <Intro+0x8b4>)
 8000f56:	484b      	ldr	r0, [pc, #300]	@ (8001084 <Intro+0x940>)
 8000f58:	f001 f8e0 	bl	800211c <GFX_draw_one_gfx_object_on_background>
			OBJ_init_text_small(60, 80, "START GAME", &start_game_text);
 8000f5c:	4b4a      	ldr	r3, [pc, #296]	@ (8001088 <Intro+0x944>)
 8000f5e:	4a4b      	ldr	r2, [pc, #300]	@ (800108c <Intro+0x948>)
 8000f60:	2150      	movs	r1, #80	@ 0x50
 8000f62:	203c      	movs	r0, #60	@ 0x3c
 8000f64:	f001 fe26 	bl	8002bb4 <OBJ_init_text_small>
			OBJ_init_text_small(60, 120, "CHOOSE THEME", &choose_theme_text);
 8000f68:	4b3a      	ldr	r3, [pc, #232]	@ (8001054 <Intro+0x910>)
 8000f6a:	4a49      	ldr	r2, [pc, #292]	@ (8001090 <Intro+0x94c>)
 8000f6c:	2178      	movs	r1, #120	@ 0x78
 8000f6e:	203c      	movs	r0, #60	@ 0x3c
 8000f70:	f001 fe20 	bl	8002bb4 <OBJ_init_text_small>
			OBJ_init_text_small(60, 160, "HIGH SCORES", &high_scores_text);
 8000f74:	4b47      	ldr	r3, [pc, #284]	@ (8001094 <Intro+0x950>)
 8000f76:	4a48      	ldr	r2, [pc, #288]	@ (8001098 <Intro+0x954>)
 8000f78:	21a0      	movs	r1, #160	@ 0xa0
 8000f7a:	203c      	movs	r0, #60	@ 0x3c
 8000f7c:	f001 fe1a 	bl	8002bb4 <OBJ_init_text_small>
			OBJ_init_text_small(60, 200, "PLAY WITH", &touch_or_button_text);
 8000f80:	4b46      	ldr	r3, [pc, #280]	@ (800109c <Intro+0x958>)
 8000f82:	4a47      	ldr	r2, [pc, #284]	@ (80010a0 <Intro+0x95c>)
 8000f84:	21c8      	movs	r1, #200	@ 0xc8
 8000f86:	203c      	movs	r0, #60	@ 0x3c
 8000f88:	f001 fe14 	bl	8002bb4 <OBJ_init_text_small>
			GFX_display_text_object(&start_game_text);
 8000f8c:	483e      	ldr	r0, [pc, #248]	@ (8001088 <Intro+0x944>)
 8000f8e:	f001 f9d9 	bl	8002344 <GFX_display_text_object>
			GFX_display_text_object(&choose_theme_text);
 8000f92:	4830      	ldr	r0, [pc, #192]	@ (8001054 <Intro+0x910>)
 8000f94:	f001 f9d6 	bl	8002344 <GFX_display_text_object>
			GFX_display_text_object(&high_scores_text);
 8000f98:	483e      	ldr	r0, [pc, #248]	@ (8001094 <Intro+0x950>)
 8000f9a:	f001 f9d3 	bl	8002344 <GFX_display_text_object>
			GFX_display_text_object(&touch_or_button_text);
 8000f9e:	483f      	ldr	r0, [pc, #252]	@ (800109c <Intro+0x958>)
 8000fa0:	f001 f9d0 	bl	8002344 <GFX_display_text_object>
			menu_initialized = 1;
 8000fa4:	2301      	movs	r3, #1
 8000fa6:	703b      	strb	r3, [r7, #0]
 8000fa8:	e475      	b.n	8000896 <Intro+0x152>
				OBJ_init_text_small(230, 120, "->", &text_selector);
 8000faa:	4b30      	ldr	r3, [pc, #192]	@ (800106c <Intro+0x928>)
 8000fac:	4a30      	ldr	r2, [pc, #192]	@ (8001070 <Intro+0x92c>)
 8000fae:	2178      	movs	r1, #120	@ 0x78
 8000fb0:	20e6      	movs	r0, #230	@ 0xe6
 8000fb2:	f001 fdff 	bl	8002bb4 <OBJ_init_text_small>
				break;
 8000fb6:	e4c0      	b.n	800093a <Intro+0x1f6>
						loading_direction = -1;
 8000fb8:	f04f 39ff 	mov.w	r9, #4294967295
					loading_state++;
 8000fbc:	2603      	movs	r6, #3
 8000fbe:	e58f      	b.n	8000ae0 <Intro+0x39c>
 8000fc0:	2604      	movs	r6, #4
 8000fc2:	e58d      	b.n	8000ae0 <Intro+0x39c>
				GFX_display_text_object(&flappy_misko_text);
 8000fc4:	481e      	ldr	r0, [pc, #120]	@ (8001040 <Intro+0x8fc>)
 8000fc6:	f001 f9bd 	bl	8002344 <GFX_display_text_object>
				if (loading_direction == 1) {
 8000fca:	f1b9 0f01 	cmp.w	r9, #1
 8000fce:	d010      	beq.n	8000ff2 <Intro+0x8ae>
				} else if (loading_direction == -1) {
 8000fd0:	f1b9 3fff 	cmp.w	r9, #4294967295
 8000fd4:	f47f ad84 	bne.w	8000ae0 <Intro+0x39c>
					loading_state--;
 8000fd8:	3e01      	subs	r6, #1
					if (loading_state == 0) {
 8000fda:	e581      	b.n	8000ae0 <Intro+0x39c>
		printf("Intro(): Error - unknown state (%d)", intro_state);
 8000fdc:	4831      	ldr	r0, [pc, #196]	@ (80010a4 <Intro+0x960>)
 8000fde:	f006 fcbd 	bl	800795c <iprintf>
		HAL_Delay(5000);
 8000fe2:	f241 3088 	movw	r0, #5000	@ 0x1388
 8000fe6:	f002 fc01 	bl	80037ec <HAL_Delay>
		intro_state = INTRO_INIT;
 8000fea:	2300      	movs	r3, #0
 8000fec:	702b      	strb	r3, [r5, #0]
		break;
 8000fee:	f7ff bbc2 	b.w	8000776 <Intro+0x32>
					loading_state++;
 8000ff2:	3601      	adds	r6, #1
					if (loading_state == 3) {
 8000ff4:	e574      	b.n	8000ae0 <Intro+0x39c>
 8000ff6:	bf00      	nop
 8000ff8:	20000a34 	.word	0x20000a34
 8000ffc:	20000820 	.word	0x20000820
 8001000:	200004a8 	.word	0x200004a8
 8001004:	08008b84 	.word	0x08008b84
 8001008:	08008b94 	.word	0x08008b94
 800100c:	20000494 	.word	0x20000494
 8001010:	08008b98 	.word	0x08008b98
 8001014:	20000430 	.word	0x20000430
 8001018:	20000480 	.word	0x20000480
 800101c:	08008b9c 	.word	0x08008b9c
 8001020:	2000041c 	.word	0x2000041c
 8001024:	2000046c 	.word	0x2000046c
 8001028:	08008ba0 	.word	0x08008ba0
 800102c:	20000408 	.word	0x20000408
 8001030:	20000458 	.word	0x20000458
 8001034:	08008ba4 	.word	0x08008ba4
 8001038:	200000e0 	.word	0x200000e0
 800103c:	200007d4 	.word	0x200007d4
 8001040:	20000538 	.word	0x20000538
 8001044:	200005c0 	.word	0x200005c0
 8001048:	20000950 	.word	0x20000950
 800104c:	20000788 	.word	0x20000788
 8001050:	2000073c 	.word	0x2000073c
 8001054:	200004f8 	.word	0x200004f8
 8001058:	08008b64 	.word	0x08008b64
 800105c:	200003f4 	.word	0x200003f4
 8001060:	08008b74 	.word	0x08008b74
 8001064:	200003e0 	.word	0x200003e0
 8001068:	08008b7c 	.word	0x08008b7c
 800106c:	200004bc 	.word	0x200004bc
 8001070:	08008b60 	.word	0x08008b60
 8001074:	20000000 	.word	0x20000000
 8001078:	20000574 	.word	0x20000574
 800107c:	2000099c 	.word	0x2000099c
 8001080:	20000904 	.word	0x20000904
 8001084:	200008b8 	.word	0x200008b8
 8001088:	2000050c 	.word	0x2000050c
 800108c:	08008b2c 	.word	0x08008b2c
 8001090:	08008b38 	.word	0x08008b38
 8001094:	200004e4 	.word	0x200004e4
 8001098:	08008b48 	.word	0x08008b48
 800109c:	200004d0 	.word	0x200004d0
 80010a0:	08008b54 	.word	0x08008b54
 80010a4:	08008bf8 	.word	0x08008bf8

080010a8 <GamePlay_UpdateChanges>:

void GamePlay_UpdateChanges(void) {
 80010a8:	b510      	push	{r4, lr}
	static stopwatch_handle_t update_stopwatch_misko;
	static uint8_t timers_initialized = 0;

	if (!timers_initialized) {
 80010aa:	4c20      	ldr	r4, [pc, #128]	@ (800112c <GamePlay_UpdateChanges+0x84>)
 80010ac:	7823      	ldrb	r3, [r4, #0]
 80010ae:	b33b      	cbz	r3, 8001100 <GamePlay_UpdateChanges+0x58>
		TIMUT_stopwatch_set_time_mark(&update_stopwatch_misko);
		timers_initialized = 1;
	}

	GFX_display_text_object(&score_text);
 80010b0:	481f      	ldr	r0, [pc, #124]	@ (8001130 <GamePlay_UpdateChanges+0x88>)
 80010b2:	f001 f947 	bl	8002344 <GFX_display_text_object>
	GFX_display_text_object(&score_box_title);
 80010b6:	481f      	ldr	r0, [pc, #124]	@ (8001134 <GamePlay_UpdateChanges+0x8c>)
 80010b8:	f001 f944 	bl	8002344 <GFX_display_text_object>

	if (TIMUT_stopwatch_has_another_X_ms_passed(&update_stopwatch_misko, 10)) {
 80010bc:	481e      	ldr	r0, [pc, #120]	@ (8001138 <GamePlay_UpdateChanges+0x90>)
 80010be:	210a      	movs	r1, #10
 80010c0:	f005 ffc8 	bl	8007054 <TIMUT_stopwatch_has_another_X_ms_passed>
 80010c4:	b900      	cbnz	r0, 80010c8 <GamePlay_UpdateChanges+0x20>
			GFX_draw_obstacle_pair_on_background(&obstacle_pair3, &background);
		}

	}

}
 80010c6:	bd10      	pop	{r4, pc}
		GFX_update_moving_gfx_object_location(&misko);
 80010c8:	481c      	ldr	r0, [pc, #112]	@ (800113c <GamePlay_UpdateChanges+0x94>)
 80010ca:	f000 fe01 	bl	8001cd0 <GFX_update_moving_gfx_object_location>
		GFX_draw_one_gfx_object_on_background(&misko, &background);
 80010ce:	491c      	ldr	r1, [pc, #112]	@ (8001140 <GamePlay_UpdateChanges+0x98>)
 80010d0:	481a      	ldr	r0, [pc, #104]	@ (800113c <GamePlay_UpdateChanges+0x94>)
 80010d2:	f001 f823 	bl	800211c <GFX_draw_one_gfx_object_on_background>
		if (obstacle_pair1_spawned == 1) {
 80010d6:	4b1b      	ldr	r3, [pc, #108]	@ (8001144 <GamePlay_UpdateChanges+0x9c>)
 80010d8:	681b      	ldr	r3, [r3, #0]
 80010da:	2b01      	cmp	r3, #1
 80010dc:	d01e      	beq.n	800111c <GamePlay_UpdateChanges+0x74>
		if (obstacle_pair2_spawned == 1) {
 80010de:	4b1a      	ldr	r3, [pc, #104]	@ (8001148 <GamePlay_UpdateChanges+0xa0>)
 80010e0:	681b      	ldr	r3, [r3, #0]
 80010e2:	2b01      	cmp	r3, #1
 80010e4:	d012      	beq.n	800110c <GamePlay_UpdateChanges+0x64>
		if (obstacle_pair3_spawned == 1) {
 80010e6:	4b19      	ldr	r3, [pc, #100]	@ (800114c <GamePlay_UpdateChanges+0xa4>)
 80010e8:	681b      	ldr	r3, [r3, #0]
 80010ea:	2b01      	cmp	r3, #1
 80010ec:	d1eb      	bne.n	80010c6 <GamePlay_UpdateChanges+0x1e>
			GFX_update_obstacle_pair_location(&obstacle_pair3);
 80010ee:	4818      	ldr	r0, [pc, #96]	@ (8001150 <GamePlay_UpdateChanges+0xa8>)
 80010f0:	f001 fa4a 	bl	8002588 <GFX_update_obstacle_pair_location>
}
 80010f4:	e8bd 4010 	ldmia.w	sp!, {r4, lr}
			GFX_draw_obstacle_pair_on_background(&obstacle_pair3, &background);
 80010f8:	4911      	ldr	r1, [pc, #68]	@ (8001140 <GamePlay_UpdateChanges+0x98>)
 80010fa:	4815      	ldr	r0, [pc, #84]	@ (8001150 <GamePlay_UpdateChanges+0xa8>)
 80010fc:	f001 bb58 	b.w	80027b0 <GFX_draw_obstacle_pair_on_background>
		TIMUT_stopwatch_set_time_mark(&update_stopwatch_misko);
 8001100:	480d      	ldr	r0, [pc, #52]	@ (8001138 <GamePlay_UpdateChanges+0x90>)
 8001102:	f005 ff93 	bl	800702c <TIMUT_stopwatch_set_time_mark>
		timers_initialized = 1;
 8001106:	2301      	movs	r3, #1
 8001108:	7023      	strb	r3, [r4, #0]
 800110a:	e7d1      	b.n	80010b0 <GamePlay_UpdateChanges+0x8>
			GFX_update_obstacle_pair_location(&obstacle_pair2);
 800110c:	4811      	ldr	r0, [pc, #68]	@ (8001154 <GamePlay_UpdateChanges+0xac>)
 800110e:	f001 fa3b 	bl	8002588 <GFX_update_obstacle_pair_location>
			GFX_draw_obstacle_pair_on_background(&obstacle_pair2, &background);
 8001112:	490b      	ldr	r1, [pc, #44]	@ (8001140 <GamePlay_UpdateChanges+0x98>)
 8001114:	480f      	ldr	r0, [pc, #60]	@ (8001154 <GamePlay_UpdateChanges+0xac>)
 8001116:	f001 fb4b 	bl	80027b0 <GFX_draw_obstacle_pair_on_background>
 800111a:	e7e4      	b.n	80010e6 <GamePlay_UpdateChanges+0x3e>
			GFX_update_obstacle_pair_location(&obstacle_pair1);
 800111c:	480e      	ldr	r0, [pc, #56]	@ (8001158 <GamePlay_UpdateChanges+0xb0>)
 800111e:	f001 fa33 	bl	8002588 <GFX_update_obstacle_pair_location>
			GFX_draw_obstacle_pair_on_background(&obstacle_pair1, &background);
 8001122:	4907      	ldr	r1, [pc, #28]	@ (8001140 <GamePlay_UpdateChanges+0x98>)
 8001124:	480c      	ldr	r0, [pc, #48]	@ (8001158 <GamePlay_UpdateChanges+0xb0>)
 8001126:	f001 fb43 	bl	80027b0 <GFX_draw_obstacle_pair_on_background>
 800112a:	e7d8      	b.n	80010de <GamePlay_UpdateChanges+0x36>
 800112c:	200000dc 	.word	0x200000dc
 8001130:	2000054c 	.word	0x2000054c
 8001134:	20000560 	.word	0x20000560
 8001138:	200000d4 	.word	0x200000d4
 800113c:	200005c0 	.word	0x200005c0
 8001140:	20000a34 	.word	0x20000a34
 8001144:	2000011c 	.word	0x2000011c
 8001148:	20000118 	.word	0x20000118
 800114c:	20000114 	.word	0x20000114
 8001150:	20000120 	.word	0x20000120
 8001154:	200001b8 	.word	0x200001b8
 8001158:	20000250 	.word	0x20000250

0800115c <GamePlay>:

uint8_t GamePlay() {
 800115c:	e92d 4ff0 	stmdb	sp!, {r4, r5, r6, r7, r8, r9, sl, fp, lr}
	static GAMEPLAY_states_t gameplay_state = GAMEPLAY_INIT;
	uint8_t exit_value = 0;

	switch (gameplay_state) {
 8001160:	4ca6      	ldr	r4, [pc, #664]	@ (80013fc <GamePlay+0x2a0>)
 8001162:	f894 8000 	ldrb.w	r8, [r4]
uint8_t GamePlay() {
 8001166:	b083      	sub	sp, #12
	switch (gameplay_state) {
 8001168:	f1b8 0f00 	cmp.w	r8, #0
 800116c:	d012      	beq.n	8001194 <GamePlay+0x38>
 800116e:	f1b8 0f01 	cmp.w	r8, #1
 8001172:	d055      	beq.n	8001220 <GamePlay+0xc4>
		}

		break;

	default:
		printf("GamePlay(): Error - unknown state (%d)", gameplay_state);
 8001174:	4641      	mov	r1, r8
 8001176:	48a2      	ldr	r0, [pc, #648]	@ (8001400 <GamePlay+0x2a4>)
 8001178:	f006 fbf0 	bl	800795c <iprintf>
		HAL_Delay(5000);
 800117c:	f241 3088 	movw	r0, #5000	@ 0x1388
 8001180:	f002 fb34 	bl	80037ec <HAL_Delay>
		gameplay_state = GAMEPLAY_INIT;
		exit_value = 0;
		break;
 8001184:	2300      	movs	r3, #0
    exit_value = 0;
 8001186:	f04f 0800 	mov.w	r8, #0
	}

	return exit_value;
}
 800118a:	4640      	mov	r0, r8
		gameplay_state = GAMEPLAY_INIT;
 800118c:	7023      	strb	r3, [r4, #0]
}
 800118e:	b003      	add	sp, #12
 8001190:	e8bd 8ff0 	ldmia.w	sp!, {r4, r5, r6, r7, r8, r9, sl, fp, pc}
    OBJ_init();
 8001194:	f001 fbaa 	bl	80028ec <OBJ_init>
    game_status.score = 0;
 8001198:	4b9a      	ldr	r3, [pc, #616]	@ (8001404 <GamePlay+0x2a8>)
    OBJ_set_score_text_value(game_status.score);
 800119a:	4640      	mov	r0, r8
    game_status.score = 0;
 800119c:	f8a3 8000 	strh.w	r8, [r3]
    OBJ_set_score_text_value(game_status.score);
 80011a0:	f001 fcd0 	bl	8002b44 <OBJ_set_score_text_value>
    GFX_display_text_object(&score_box_title);
 80011a4:	4898      	ldr	r0, [pc, #608]	@ (8001408 <GamePlay+0x2ac>)
 80011a6:	f001 f8cd 	bl	8002344 <GFX_display_text_object>
    GFX_display_text_object(&score_text);
 80011aa:	4898      	ldr	r0, [pc, #608]	@ (800140c <GamePlay+0x2b0>)
 80011ac:	f001 f8ca 	bl	8002344 <GFX_display_text_object>
    time_mark = 0;
 80011b0:	4b97      	ldr	r3, [pc, #604]	@ (8001410 <GamePlay+0x2b4>)
    moving_obstacles = 0;
 80011b2:	4998      	ldr	r1, [pc, #608]	@ (8001414 <GamePlay+0x2b8>)
    time_mark = 0;
 80011b4:	f8c3 8000 	str.w	r8, [r3]
    obstacle_pair1_spawned = 0;
 80011b8:	4b97      	ldr	r3, [pc, #604]	@ (8001418 <GamePlay+0x2bc>)
    obstacle_number = 0;
 80011ba:	4a98      	ldr	r2, [pc, #608]	@ (800141c <GamePlay+0x2c0>)
    obstacle_pair1_spawned = 0;
 80011bc:	f8c3 8000 	str.w	r8, [r3]
    obstacle_pair3_spawned = 0;
 80011c0:	4b97      	ldr	r3, [pc, #604]	@ (8001420 <GamePlay+0x2c4>)
    moving_obstacles = 0;
 80011c2:	f8c1 8000 	str.w	r8, [r1]
    obstacle_pair3_spawned = 0;
 80011c6:	f8c3 8000 	str.w	r8, [r3]
    obstacle_pair2_cleaned = 0;
 80011ca:	4b96      	ldr	r3, [pc, #600]	@ (8001424 <GamePlay+0x2c8>)
    obstacle_pair2_spawned = 0;
 80011cc:	4996      	ldr	r1, [pc, #600]	@ (8001428 <GamePlay+0x2cc>)
    obstacle_number = 0;
 80011ce:	f8c2 8000 	str.w	r8, [r2]
    obstacle_pair2_cleaned = 0;
 80011d2:	f8c3 8000 	str.w	r8, [r3]
    obstacle_pair1_cleaned = 0;
 80011d6:	4a95      	ldr	r2, [pc, #596]	@ (800142c <GamePlay+0x2d0>)
    obstacle_pair1_scored = 0;
 80011d8:	4b95      	ldr	r3, [pc, #596]	@ (8001430 <GamePlay+0x2d4>)
    obstacle_pair2_spawned = 0;
 80011da:	f8c1 8000 	str.w	r8, [r1]
    obstacle_pair3_cleaned = 0;
 80011de:	4995      	ldr	r1, [pc, #596]	@ (8001434 <GamePlay+0x2d8>)
    obstacle_pair1_cleaned = 0;
 80011e0:	f8c2 8000 	str.w	r8, [r2]
    obstacle_pair1_scored = 0;
 80011e4:	f8c3 8000 	str.w	r8, [r3]
    obstacle_pair2_scored = 0;
 80011e8:	4a93      	ldr	r2, [pc, #588]	@ (8001438 <GamePlay+0x2dc>)
    obstacle_pair3_scored = 0;
 80011ea:	4b94      	ldr	r3, [pc, #592]	@ (800143c <GamePlay+0x2e0>)
    GFX_clear_gfx_object_on_background(&misko, &background);
 80011ec:	4894      	ldr	r0, [pc, #592]	@ (8001440 <GamePlay+0x2e4>)
    obstacle_pair3_cleaned = 0;
 80011ee:	f8c1 8000 	str.w	r8, [r1]
    GFX_clear_gfx_object_on_background(&misko, &background);
 80011f2:	4994      	ldr	r1, [pc, #592]	@ (8001444 <GamePlay+0x2e8>)
    obstacle_pair3_scored = 0;
 80011f4:	f8c3 8000 	str.w	r8, [r3]
    obstacle_pair2_scored = 0;
 80011f8:	f8c2 8000 	str.w	r8, [r2]
    GFX_clear_gfx_object_on_background(&misko, &background);
 80011fc:	f001 f80e 	bl	800221c <GFX_clear_gfx_object_on_background>
    GFX_set_gfx_object_location(&misko, 80, 120);  
 8001200:	2278      	movs	r2, #120	@ 0x78
 8001202:	2150      	movs	r1, #80	@ 0x50
 8001204:	488e      	ldr	r0, [pc, #568]	@ (8001440 <GamePlay+0x2e4>)
 8001206:	f000 fc57 	bl	8001ab8 <GFX_set_gfx_object_location>
    GFX_set_gfx_object_velocity(&misko, 0, 0);
 800120a:	488d      	ldr	r0, [pc, #564]	@ (8001440 <GamePlay+0x2e4>)
 800120c:	4642      	mov	r2, r8
 800120e:	4641      	mov	r1, r8
 8001210:	f000 fcb2 	bl	8001b78 <GFX_set_gfx_object_velocity>
    GFX_draw_one_gfx_object_on_background(&misko, &background);
 8001214:	498b      	ldr	r1, [pc, #556]	@ (8001444 <GamePlay+0x2e8>)
 8001216:	488a      	ldr	r0, [pc, #552]	@ (8001440 <GamePlay+0x2e4>)
 8001218:	f000 ff80 	bl	800211c <GFX_draw_one_gfx_object_on_background>
    break;
 800121c:	2301      	movs	r3, #1
 800121e:	e7b2      	b.n	8001186 <GamePlay+0x2a>
		KBD_flush();
 8001220:	f005 fd3e 	bl	8006ca0 <KBD_flush>
		GFX_clear_gfx_object_on_background(&press_ok_sprite, &background);
 8001224:	4987      	ldr	r1, [pc, #540]	@ (8001444 <GamePlay+0x2e8>)
 8001226:	4888      	ldr	r0, [pc, #544]	@ (8001448 <GamePlay+0x2ec>)
 8001228:	f8df b240 	ldr.w	fp, [pc, #576]	@ 800146c <GamePlay+0x310>
 800122c:	f8df a220 	ldr.w	sl, [pc, #544]	@ 8001450 <GamePlay+0x2f4>
 8001230:	4c83      	ldr	r4, [pc, #524]	@ (8001440 <GamePlay+0x2e4>)
				TIMUT_stopwatch_set_time_mark(&stopwatch_jump);
 8001232:	f8df 923c 	ldr.w	r9, [pc, #572]	@ 8001470 <GamePlay+0x314>
		GFX_clear_gfx_object_on_background(&press_ok_sprite, &background);
 8001236:	f000 fff1 	bl	800221c <GFX_clear_gfx_object_on_background>
			KBD_scan();
 800123a:	f005 fcf3 	bl	8006c24 <KBD_scan>
			pressed_button = KBD_get_pressed_key();
 800123e:	f005 fd1b 	bl	8006c78 <KBD_get_pressed_key>
			if (pressed_button == BTN_OK) {
 8001242:	2804      	cmp	r0, #4
			pressed_button = KBD_get_pressed_key();
 8001244:	f88b 0000 	strb.w	r0, [fp]
			if (pressed_button == BTN_OK) {
 8001248:	f000 80ae 	beq.w	80013a8 <GamePlay+0x24c>
			if (TIMUT_stopwatch_has_X_ms_passed(&stopwatch_jump, 200)) {
 800124c:	21c8      	movs	r1, #200	@ 0xc8
 800124e:	4648      	mov	r0, r9
 8001250:	f005 fef2 	bl	8007038 <TIMUT_stopwatch_has_X_ms_passed>
 8001254:	2800      	cmp	r0, #0
 8001256:	f040 80bb 	bne.w	80013d0 <GamePlay+0x274>
			if (TIMUT_stopwatch_has_another_X_ms_passed(&stopwatch_obstacles,
 800125a:	487c      	ldr	r0, [pc, #496]	@ (800144c <GamePlay+0x2f0>)
 800125c:	f240 51dc 	movw	r1, #1500	@ 0x5dc
 8001260:	f005 fef8 	bl	8007054 <TIMUT_stopwatch_has_another_X_ms_passed>
 8001264:	b150      	cbz	r0, 800127c <GamePlay+0x120>
				if (obstacle_number == 1) {
 8001266:	4e6d      	ldr	r6, [pc, #436]	@ (800141c <GamePlay+0x2c0>)
 8001268:	6835      	ldr	r5, [r6, #0]
 800126a:	2d01      	cmp	r5, #1
 800126c:	f000 815b 	beq.w	8001526 <GamePlay+0x3ca>
				} else if (obstacle_number == 2) {
 8001270:	2d02      	cmp	r5, #2
 8001272:	f000 818a 	beq.w	800158a <GamePlay+0x42e>
				} else if (obstacle_number == 3) {
 8001276:	2d03      	cmp	r5, #3
 8001278:	f000 81a5 	beq.w	80015c6 <GamePlay+0x46a>
			GamePlay_UpdateChanges();
 800127c:	f7ff ff14 	bl	80010a8 <GamePlay_UpdateChanges>
			GFX_get_object_movement_area(&misko, &movement_area);
 8001280:	4973      	ldr	r1, [pc, #460]	@ (8001450 <GamePlay+0x2f4>)
 8001282:	4620      	mov	r0, r4
 8001284:	f000 fdb0 	bl	8001de8 <GFX_get_object_movement_area>
			if (movement_area.y_max == 239) {
 8001288:	f9ba 3006 	ldrsh.w	r3, [sl, #6]
 800128c:	2bef      	cmp	r3, #239	@ 0xef
 800128e:	f000 8173 	beq.w	8001578 <GamePlay+0x41c>
			GFX_get_obstacle_pair_movement_area(&obstacle_pair1,
 8001292:	4d70      	ldr	r5, [pc, #448]	@ (8001454 <GamePlay+0x2f8>)
 8001294:	496e      	ldr	r1, [pc, #440]	@ (8001450 <GamePlay+0x2f4>)
 8001296:	4628      	mov	r0, r5
 8001298:	f001 fa96 	bl	80027c8 <GFX_get_obstacle_pair_movement_area>
			GFX_get_obstacle_pair_movement_area(&obstacle_pair2,
 800129c:	496c      	ldr	r1, [pc, #432]	@ (8001450 <GamePlay+0x2f4>)
 800129e:	486e      	ldr	r0, [pc, #440]	@ (8001458 <GamePlay+0x2fc>)
 80012a0:	f001 fa92 	bl	80027c8 <GFX_get_obstacle_pair_movement_area>
			GFX_get_obstacle_pair_movement_area(&obstacle_pair3,
 80012a4:	496a      	ldr	r1, [pc, #424]	@ (8001450 <GamePlay+0x2f4>)
 80012a6:	486d      	ldr	r0, [pc, #436]	@ (800145c <GamePlay+0x300>)
 80012a8:	f001 fa8e 	bl	80027c8 <GFX_get_obstacle_pair_movement_area>
			if (obstacle_pair1.bottom.location.x_min == 1
 80012ac:	f9b5 3058 	ldrsh.w	r3, [r5, #88]	@ 0x58
 80012b0:	2b01      	cmp	r3, #1
 80012b2:	f000 80df 	beq.w	8001474 <GamePlay+0x318>
			if (obstacle_pair2.bottom.location.x_min == 1
 80012b6:	4f68      	ldr	r7, [pc, #416]	@ (8001458 <GamePlay+0x2fc>)
 80012b8:	f9b7 3058 	ldrsh.w	r3, [r7, #88]	@ 0x58
 80012bc:	2b01      	cmp	r3, #1
 80012be:	f000 80ed 	beq.w	800149c <GamePlay+0x340>
			if (obstacle_pair3.bottom.location.x_min == 1
 80012c2:	4e66      	ldr	r6, [pc, #408]	@ (800145c <GamePlay+0x300>)
 80012c4:	f9b6 3058 	ldrsh.w	r3, [r6, #88]	@ 0x58
 80012c8:	2b01      	cmp	r3, #1
 80012ca:	f000 8088 	beq.w	80013de <GamePlay+0x282>
			if ((GFX_are_gfx_objects_overlapping(&misko, &obstacle_pair1.top)
 80012ce:	4961      	ldr	r1, [pc, #388]	@ (8001454 <GamePlay+0x2f8>)
 80012d0:	4620      	mov	r0, r4
 80012d2:	f000 fdc1 	bl	8001e58 <GFX_are_gfx_objects_overlapping>
 80012d6:	b120      	cbz	r0, 80012e2 <GamePlay+0x186>
					&& obstacle_pair1_spawned == 1)
 80012d8:	4b4f      	ldr	r3, [pc, #316]	@ (8001418 <GamePlay+0x2bc>)
 80012da:	681b      	ldr	r3, [r3, #0]
 80012dc:	2b01      	cmp	r3, #1
 80012de:	f000 813f 	beq.w	8001560 <GamePlay+0x404>
					|| (GFX_are_gfx_objects_overlapping(&misko,
 80012e2:	495f      	ldr	r1, [pc, #380]	@ (8001460 <GamePlay+0x304>)
 80012e4:	4620      	mov	r0, r4
 80012e6:	f000 fdb7 	bl	8001e58 <GFX_are_gfx_objects_overlapping>
 80012ea:	b120      	cbz	r0, 80012f6 <GamePlay+0x19a>
							&& obstacle_pair1_spawned == 1)
 80012ec:	4b4a      	ldr	r3, [pc, #296]	@ (8001418 <GamePlay+0x2bc>)
 80012ee:	681b      	ldr	r3, [r3, #0]
 80012f0:	2b01      	cmp	r3, #1
 80012f2:	f000 8135 	beq.w	8001560 <GamePlay+0x404>
					|| (GFX_are_gfx_objects_overlapping(&misko,
 80012f6:	4958      	ldr	r1, [pc, #352]	@ (8001458 <GamePlay+0x2fc>)
 80012f8:	4620      	mov	r0, r4
 80012fa:	f000 fdad 	bl	8001e58 <GFX_are_gfx_objects_overlapping>
 80012fe:	b120      	cbz	r0, 800130a <GamePlay+0x1ae>
							&obstacle_pair2.top) && obstacle_pair2_spawned == 1)
 8001300:	4b49      	ldr	r3, [pc, #292]	@ (8001428 <GamePlay+0x2cc>)
 8001302:	681b      	ldr	r3, [r3, #0]
 8001304:	2b01      	cmp	r3, #1
 8001306:	f000 812b 	beq.w	8001560 <GamePlay+0x404>
					|| (GFX_are_gfx_objects_overlapping(&misko,
 800130a:	4956      	ldr	r1, [pc, #344]	@ (8001464 <GamePlay+0x308>)
 800130c:	4620      	mov	r0, r4
 800130e:	f000 fda3 	bl	8001e58 <GFX_are_gfx_objects_overlapping>
 8001312:	b120      	cbz	r0, 800131e <GamePlay+0x1c2>
							&& obstacle_pair2_spawned == 1)
 8001314:	4b44      	ldr	r3, [pc, #272]	@ (8001428 <GamePlay+0x2cc>)
 8001316:	681b      	ldr	r3, [r3, #0]
 8001318:	2b01      	cmp	r3, #1
 800131a:	f000 8121 	beq.w	8001560 <GamePlay+0x404>
					|| (GFX_are_gfx_objects_overlapping(&misko,
 800131e:	494f      	ldr	r1, [pc, #316]	@ (800145c <GamePlay+0x300>)
 8001320:	4620      	mov	r0, r4
 8001322:	f000 fd99 	bl	8001e58 <GFX_are_gfx_objects_overlapping>
 8001326:	b120      	cbz	r0, 8001332 <GamePlay+0x1d6>
							&obstacle_pair3.top) && obstacle_pair3_spawned == 1)
 8001328:	4b3d      	ldr	r3, [pc, #244]	@ (8001420 <GamePlay+0x2c4>)
 800132a:	681b      	ldr	r3, [r3, #0]
 800132c:	2b01      	cmp	r3, #1
 800132e:	f000 8117 	beq.w	8001560 <GamePlay+0x404>
					|| (GFX_are_gfx_objects_overlapping(&misko,
 8001332:	494d      	ldr	r1, [pc, #308]	@ (8001468 <GamePlay+0x30c>)
 8001334:	4620      	mov	r0, r4
 8001336:	f000 fd8f 	bl	8001e58 <GFX_are_gfx_objects_overlapping>
 800133a:	b120      	cbz	r0, 8001346 <GamePlay+0x1ea>
							&& obstacle_pair3_spawned == 1)) {
 800133c:	4b38      	ldr	r3, [pc, #224]	@ (8001420 <GamePlay+0x2c4>)
 800133e:	681b      	ldr	r3, [r3, #0]
 8001340:	2b01      	cmp	r3, #1
 8001342:	f000 810d 	beq.w	8001560 <GamePlay+0x404>
			if (misko.location.x_center > obstacle_pair1.top.location.x_min
 8001346:	f9b4 3014 	ldrsh.w	r3, [r4, #20]
 800134a:	f9b5 200c 	ldrsh.w	r2, [r5, #12]
 800134e:	429a      	cmp	r2, r3
 8001350:	da04      	bge.n	800135c <GamePlay+0x200>
					&& obstacle_pair1_spawned == 1 && !obstacle_pair1_scored) {
 8001352:	4a31      	ldr	r2, [pc, #196]	@ (8001418 <GamePlay+0x2bc>)
 8001354:	6812      	ldr	r2, [r2, #0]
 8001356:	2a01      	cmp	r2, #1
 8001358:	f000 80af 	beq.w	80014ba <GamePlay+0x35e>
			if (misko.location.x_center > obstacle_pair2.top.location.x_min
 800135c:	f9b7 200c 	ldrsh.w	r2, [r7, #12]
 8001360:	429a      	cmp	r2, r3
 8001362:	da04      	bge.n	800136e <GamePlay+0x212>
					&& obstacle_pair2_spawned == 1 && !obstacle_pair2_scored) {
 8001364:	4a30      	ldr	r2, [pc, #192]	@ (8001428 <GamePlay+0x2cc>)
 8001366:	6815      	ldr	r5, [r2, #0]
 8001368:	2d01      	cmp	r5, #1
 800136a:	f000 80be 	beq.w	80014ea <GamePlay+0x38e>
			if (misko.location.x_center > obstacle_pair3.top.location.x_min
 800136e:	f9b6 200c 	ldrsh.w	r2, [r6, #12]
 8001372:	429a      	cmp	r2, r3
 8001374:	f6bf af61 	bge.w	800123a <GamePlay+0xde>
					&& obstacle_pair3_spawned == 1 && !obstacle_pair3_scored) {
 8001378:	4a29      	ldr	r2, [pc, #164]	@ (8001420 <GamePlay+0x2c4>)
 800137a:	6815      	ldr	r5, [r2, #0]
 800137c:	2d01      	cmp	r5, #1
 800137e:	f47f af5c 	bne.w	800123a <GamePlay+0xde>
 8001382:	4f2e      	ldr	r7, [pc, #184]	@ (800143c <GamePlay+0x2e0>)
 8001384:	683a      	ldr	r2, [r7, #0]
 8001386:	2a00      	cmp	r2, #0
 8001388:	f47f af57 	bne.w	800123a <GamePlay+0xde>
				if (misko.location.x_center
 800138c:	f9b6 2014 	ldrsh.w	r2, [r6, #20]
 8001390:	429a      	cmp	r2, r3
 8001392:	f6bf af52 	bge.w	800123a <GamePlay+0xde>
					game_status.score += 1;
 8001396:	4b1b      	ldr	r3, [pc, #108]	@ (8001404 <GamePlay+0x2a8>)
 8001398:	8818      	ldrh	r0, [r3, #0]
 800139a:	3001      	adds	r0, #1
 800139c:	b200      	sxth	r0, r0
 800139e:	8018      	strh	r0, [r3, #0]
					OBJ_set_score_text_value(game_status.score);
 80013a0:	f001 fbd0 	bl	8002b44 <OBJ_set_score_text_value>
					obstacle_pair3_scored = 1;
 80013a4:	603d      	str	r5, [r7, #0]
 80013a6:	e748      	b.n	800123a <GamePlay+0xde>
				if (moving_obstacles == 0) {
 80013a8:	4b1a      	ldr	r3, [pc, #104]	@ (8001414 <GamePlay+0x2b8>)
 80013aa:	681a      	ldr	r2, [r3, #0]
 80013ac:	2a00      	cmp	r2, #0
 80013ae:	f000 80b2 	beq.w	8001516 <GamePlay+0x3ba>
				TIMUT_stopwatch_set_time_mark(&stopwatch_jump);
 80013b2:	4648      	mov	r0, r9
 80013b4:	f005 fe3a 	bl	800702c <TIMUT_stopwatch_set_time_mark>
				GFX_set_gfx_object_velocity(&misko, 0, 2);
 80013b8:	2100      	movs	r1, #0
 80013ba:	4620      	mov	r0, r4
 80013bc:	2202      	movs	r2, #2
 80013be:	f000 fbdb 	bl	8001b78 <GFX_set_gfx_object_velocity>
			if (TIMUT_stopwatch_has_X_ms_passed(&stopwatch_jump, 200)) {
 80013c2:	21c8      	movs	r1, #200	@ 0xc8
 80013c4:	4648      	mov	r0, r9
 80013c6:	f005 fe37 	bl	8007038 <TIMUT_stopwatch_has_X_ms_passed>
 80013ca:	2800      	cmp	r0, #0
 80013cc:	f43f af45 	beq.w	800125a <GamePlay+0xfe>
				GFX_set_gfx_object_velocity(&misko, 0, -2);
 80013d0:	f06f 0201 	mvn.w	r2, #1
 80013d4:	2100      	movs	r1, #0
 80013d6:	4620      	mov	r0, r4
 80013d8:	f000 fbce 	bl	8001b78 <GFX_set_gfx_object_velocity>
 80013dc:	e73d      	b.n	800125a <GamePlay+0xfe>
					&& obstacle_pair3_cleaned == 0) {
 80013de:	4915      	ldr	r1, [pc, #84]	@ (8001434 <GamePlay+0x2d8>)
 80013e0:	680a      	ldr	r2, [r1, #0]
 80013e2:	2a00      	cmp	r2, #0
 80013e4:	f47f af73 	bne.w	80012ce <GamePlay+0x172>
				obstacle_pair3_cleaned = 1;
 80013e8:	600b      	str	r3, [r1, #0]
				obstacle_pair3_spawned = 0;
 80013ea:	4b0d      	ldr	r3, [pc, #52]	@ (8001420 <GamePlay+0x2c4>)
				GFX_clear_obstacle_pair_on_background(&obstacle_pair3,
 80013ec:	4915      	ldr	r1, [pc, #84]	@ (8001444 <GamePlay+0x2e8>)
				obstacle_pair3_spawned = 0;
 80013ee:	601a      	str	r2, [r3, #0]
				obstacle_pair3_scored = 0;
 80013f0:	4b12      	ldr	r3, [pc, #72]	@ (800143c <GamePlay+0x2e0>)
				GFX_clear_obstacle_pair_on_background(&obstacle_pair3,
 80013f2:	4630      	mov	r0, r6
				obstacle_pair3_scored = 0;
 80013f4:	601a      	str	r2, [r3, #0]
				GFX_clear_obstacle_pair_on_background(&obstacle_pair3,
 80013f6:	f001 fa47 	bl	8002888 <GFX_clear_obstacle_pair_on_background>
 80013fa:	e768      	b.n	80012ce <GamePlay+0x172>
 80013fc:	200000d3 	.word	0x200000d3
 8001400:	08008c40 	.word	0x08008c40
 8001404:	20000af0 	.word	0x20000af0
 8001408:	20000560 	.word	0x20000560
 800140c:	2000054c 	.word	0x2000054c
 8001410:	200000f4 	.word	0x200000f4
 8001414:	200000f8 	.word	0x200000f8
 8001418:	2000011c 	.word	0x2000011c
 800141c:	200000f0 	.word	0x200000f0
 8001420:	20000114 	.word	0x20000114
 8001424:	2000010c 	.word	0x2000010c
 8001428:	20000118 	.word	0x20000118
 800142c:	20000110 	.word	0x20000110
 8001430:	20000104 	.word	0x20000104
 8001434:	20000108 	.word	0x20000108
 8001438:	20000100 	.word	0x20000100
 800143c:	200000fc 	.word	0x200000fc
 8001440:	200005c0 	.word	0x200005c0
 8001444:	20000a34 	.word	0x20000a34
 8001448:	200009e8 	.word	0x200009e8
 800144c:	200002ec 	.word	0x200002ec
 8001450:	20000318 	.word	0x20000318
 8001454:	20000250 	.word	0x20000250
 8001458:	200001b8 	.word	0x200001b8
 800145c:	20000120 	.word	0x20000120
 8001460:	2000029c 	.word	0x2000029c
 8001464:	20000204 	.word	0x20000204
 8001468:	2000016c 	.word	0x2000016c
 800146c:	2000000c 	.word	0x2000000c
 8001470:	20000304 	.word	0x20000304
					&& obstacle_pair1_cleaned == 0) {
 8001474:	4962      	ldr	r1, [pc, #392]	@ (8001600 <GamePlay+0x4a4>)
 8001476:	680a      	ldr	r2, [r1, #0]
 8001478:	2a00      	cmp	r2, #0
 800147a:	f47f af1c 	bne.w	80012b6 <GamePlay+0x15a>
				obstacle_pair1_cleaned = 1;
 800147e:	600b      	str	r3, [r1, #0]
				obstacle_pair1_spawned = 0;
 8001480:	4b60      	ldr	r3, [pc, #384]	@ (8001604 <GamePlay+0x4a8>)
			if (obstacle_pair2.bottom.location.x_min == 1
 8001482:	4f61      	ldr	r7, [pc, #388]	@ (8001608 <GamePlay+0x4ac>)
				obstacle_pair1_spawned = 0;
 8001484:	601a      	str	r2, [r3, #0]
				obstacle_pair1_scored = 0;
 8001486:	4b61      	ldr	r3, [pc, #388]	@ (800160c <GamePlay+0x4b0>)
				GFX_clear_obstacle_pair_on_background(&obstacle_pair1,
 8001488:	4961      	ldr	r1, [pc, #388]	@ (8001610 <GamePlay+0x4b4>)
				obstacle_pair1_scored = 0;
 800148a:	601a      	str	r2, [r3, #0]
				GFX_clear_obstacle_pair_on_background(&obstacle_pair1,
 800148c:	4628      	mov	r0, r5
 800148e:	f001 f9fb 	bl	8002888 <GFX_clear_obstacle_pair_on_background>
			if (obstacle_pair2.bottom.location.x_min == 1
 8001492:	f9b7 3058 	ldrsh.w	r3, [r7, #88]	@ 0x58
 8001496:	2b01      	cmp	r3, #1
 8001498:	f47f af13 	bne.w	80012c2 <GamePlay+0x166>
					&& obstacle_pair2_cleaned == 0) {
 800149c:	495d      	ldr	r1, [pc, #372]	@ (8001614 <GamePlay+0x4b8>)
 800149e:	680a      	ldr	r2, [r1, #0]
 80014a0:	2a00      	cmp	r2, #0
 80014a2:	f47f af0e 	bne.w	80012c2 <GamePlay+0x166>
				obstacle_pair2_cleaned = 1;
 80014a6:	600b      	str	r3, [r1, #0]
				obstacle_pair2_spawned = 0;
 80014a8:	4b5b      	ldr	r3, [pc, #364]	@ (8001618 <GamePlay+0x4bc>)
				GFX_clear_obstacle_pair_on_background(&obstacle_pair2,
 80014aa:	4959      	ldr	r1, [pc, #356]	@ (8001610 <GamePlay+0x4b4>)
				obstacle_pair2_spawned = 0;
 80014ac:	601a      	str	r2, [r3, #0]
				obstacle_pair2_scored = 0;
 80014ae:	4b5b      	ldr	r3, [pc, #364]	@ (800161c <GamePlay+0x4c0>)
				GFX_clear_obstacle_pair_on_background(&obstacle_pair2,
 80014b0:	4638      	mov	r0, r7
				obstacle_pair2_scored = 0;
 80014b2:	601a      	str	r2, [r3, #0]
				GFX_clear_obstacle_pair_on_background(&obstacle_pair2,
 80014b4:	f001 f9e8 	bl	8002888 <GFX_clear_obstacle_pair_on_background>
 80014b8:	e703      	b.n	80012c2 <GamePlay+0x166>
					&& obstacle_pair1_spawned == 1 && !obstacle_pair1_scored) {
 80014ba:	4954      	ldr	r1, [pc, #336]	@ (800160c <GamePlay+0x4b0>)
 80014bc:	6808      	ldr	r0, [r1, #0]
 80014be:	2800      	cmp	r0, #0
 80014c0:	f47f af4c 	bne.w	800135c <GamePlay+0x200>
				if (misko.location.x_center
 80014c4:	f9b5 0014 	ldrsh.w	r0, [r5, #20]
 80014c8:	4298      	cmp	r0, r3
 80014ca:	f6bf af47 	bge.w	800135c <GamePlay+0x200>
					game_status.score += 1;
 80014ce:	4b54      	ldr	r3, [pc, #336]	@ (8001620 <GamePlay+0x4c4>)
 80014d0:	9201      	str	r2, [sp, #4]
 80014d2:	8818      	ldrh	r0, [r3, #0]
 80014d4:	3001      	adds	r0, #1
 80014d6:	b200      	sxth	r0, r0
 80014d8:	8018      	strh	r0, [r3, #0]
					OBJ_set_score_text_value(game_status.score);
 80014da:	f001 fb33 	bl	8002b44 <OBJ_set_score_text_value>
					obstacle_pair1_scored = 1;
 80014de:	494b      	ldr	r1, [pc, #300]	@ (800160c <GamePlay+0x4b0>)
 80014e0:	9a01      	ldr	r2, [sp, #4]
			if (misko.location.x_center > obstacle_pair2.top.location.x_min
 80014e2:	f9b4 3014 	ldrsh.w	r3, [r4, #20]
					obstacle_pair1_scored = 1;
 80014e6:	600a      	str	r2, [r1, #0]
 80014e8:	e738      	b.n	800135c <GamePlay+0x200>
					&& obstacle_pair2_spawned == 1 && !obstacle_pair2_scored) {
 80014ea:	4a4c      	ldr	r2, [pc, #304]	@ (800161c <GamePlay+0x4c0>)
 80014ec:	6811      	ldr	r1, [r2, #0]
 80014ee:	2900      	cmp	r1, #0
 80014f0:	f47f af3d 	bne.w	800136e <GamePlay+0x212>
				if (misko.location.x_center
 80014f4:	f9b7 1014 	ldrsh.w	r1, [r7, #20]
 80014f8:	4299      	cmp	r1, r3
 80014fa:	f6bf af38 	bge.w	800136e <GamePlay+0x212>
					game_status.score += 1;
 80014fe:	4b48      	ldr	r3, [pc, #288]	@ (8001620 <GamePlay+0x4c4>)
 8001500:	8818      	ldrh	r0, [r3, #0]
 8001502:	3001      	adds	r0, #1
 8001504:	b200      	sxth	r0, r0
 8001506:	8018      	strh	r0, [r3, #0]
					OBJ_set_score_text_value(game_status.score);
 8001508:	f001 fb1c 	bl	8002b44 <OBJ_set_score_text_value>
					obstacle_pair2_scored = 1;
 800150c:	4a43      	ldr	r2, [pc, #268]	@ (800161c <GamePlay+0x4c0>)
			if (misko.location.x_center > obstacle_pair3.top.location.x_min
 800150e:	f9b4 3014 	ldrsh.w	r3, [r4, #20]
					obstacle_pair2_scored = 1;
 8001512:	6015      	str	r5, [r2, #0]
 8001514:	e72b      	b.n	800136e <GamePlay+0x212>
					moving_obstacles = 1;
 8001516:	2501      	movs	r5, #1
					TIMUT_stopwatch_set_time_mark(&stopwatch_obstacles);
 8001518:	4842      	ldr	r0, [pc, #264]	@ (8001624 <GamePlay+0x4c8>)
					moving_obstacles = 1;
 800151a:	601d      	str	r5, [r3, #0]
					TIMUT_stopwatch_set_time_mark(&stopwatch_obstacles);
 800151c:	f005 fd86 	bl	800702c <TIMUT_stopwatch_set_time_mark>
					obstacle_number = 1;
 8001520:	4b41      	ldr	r3, [pc, #260]	@ (8001628 <GamePlay+0x4cc>)
 8001522:	601d      	str	r5, [r3, #0]
 8001524:	e745      	b.n	80013b2 <GamePlay+0x256>
							MATH_randomise_distance_between_obstacles();
 8001526:	f001 f9bf 	bl	80028a8 <MATH_randomise_distance_between_obstacles>
 800152a:	4f40      	ldr	r7, [pc, #256]	@ (800162c <GamePlay+0x4d0>)
 800152c:	6038      	str	r0, [r7, #0]
					OBJ_init_obstacle_pair(&obstacle_pair1);
 800152e:	4840      	ldr	r0, [pc, #256]	@ (8001630 <GamePlay+0x4d4>)
 8001530:	f001 fae4 	bl	8002afc <OBJ_init_obstacle_pair>
					GFX_init_obstacle_pair_location(&obstacle_pair1, 269,
 8001534:	f9b7 3002 	ldrsh.w	r3, [r7, #2]
 8001538:	f9b7 2000 	ldrsh.w	r2, [r7]
 800153c:	483c      	ldr	r0, [pc, #240]	@ (8001630 <GamePlay+0x4d4>)
 800153e:	f240 110d 	movw	r1, #269	@ 0x10d
 8001542:	f000 ff13 	bl	800236c <GFX_init_obstacle_pair_location>
					GFX_set_obstacle_pair_x_axis_velocity(&obstacle_pair1, -1);
 8001546:	483a      	ldr	r0, [pc, #232]	@ (8001630 <GamePlay+0x4d4>)
 8001548:	f04f 31ff 	mov.w	r1, #4294967295
 800154c:	f001 f812 	bl	8002574 <GFX_set_obstacle_pair_x_axis_velocity>
					obstacle_pair1_spawned = 1;
 8001550:	4b2c      	ldr	r3, [pc, #176]	@ (8001604 <GamePlay+0x4a8>)
 8001552:	601d      	str	r5, [r3, #0]
					obstacle_pair1_cleaned = 0;
 8001554:	4b2a      	ldr	r3, [pc, #168]	@ (8001600 <GamePlay+0x4a4>)
 8001556:	2200      	movs	r2, #0
 8001558:	601a      	str	r2, [r3, #0]
					obstacle_number = 2;
 800155a:	2302      	movs	r3, #2
 800155c:	6033      	str	r3, [r6, #0]
 800155e:	e68d      	b.n	800127c <GamePlay+0x120>
				Update_High_Scores(game_status.score);
 8001560:	4b2f      	ldr	r3, [pc, #188]	@ (8001620 <GamePlay+0x4c4>)
 8001562:	8818      	ldrh	r0, [r3, #0]
 8001564:	f7ff f888 	bl	8000678 <Update_High_Scores>
				uint16_t *high_scores = Get_High_Scores();
 8001568:	f7ff f8de 	bl	8000728 <Get_High_Scores>
				printf("High Scores: 1. %d   2. %d   3. %d\n", high_scores[0],
 800156c:	8842      	ldrh	r2, [r0, #2]
 800156e:	8801      	ldrh	r1, [r0, #0]
 8001570:	8883      	ldrh	r3, [r0, #4]
 8001572:	4830      	ldr	r0, [pc, #192]	@ (8001634 <GamePlay+0x4d8>)
 8001574:	f006 f9f2 	bl	800795c <iprintf>
				GFX_set_gfx_object_velocity(&misko, 0, 0);
 8001578:	2200      	movs	r2, #0
 800157a:	482f      	ldr	r0, [pc, #188]	@ (8001638 <GamePlay+0x4dc>)
 800157c:	4611      	mov	r1, r2
 800157e:	f000 fafb 	bl	8001b78 <GFX_set_gfx_object_velocity>
}
 8001582:	4640      	mov	r0, r8
 8001584:	b003      	add	sp, #12
 8001586:	e8bd 8ff0 	ldmia.w	sp!, {r4, r5, r6, r7, r8, r9, sl, fp, pc}
							MATH_randomise_distance_between_obstacles();
 800158a:	f001 f98d 	bl	80028a8 <MATH_randomise_distance_between_obstacles>
 800158e:	4d27      	ldr	r5, [pc, #156]	@ (800162c <GamePlay+0x4d0>)
 8001590:	6028      	str	r0, [r5, #0]
					OBJ_init_obstacle_pair(&obstacle_pair2);
 8001592:	481d      	ldr	r0, [pc, #116]	@ (8001608 <GamePlay+0x4ac>)
 8001594:	f001 fab2 	bl	8002afc <OBJ_init_obstacle_pair>
					GFX_init_obstacle_pair_location(&obstacle_pair2, 269,
 8001598:	f9b5 3002 	ldrsh.w	r3, [r5, #2]
 800159c:	f9b5 2000 	ldrsh.w	r2, [r5]
 80015a0:	4819      	ldr	r0, [pc, #100]	@ (8001608 <GamePlay+0x4ac>)
 80015a2:	f240 110d 	movw	r1, #269	@ 0x10d
 80015a6:	f000 fee1 	bl	800236c <GFX_init_obstacle_pair_location>
					GFX_set_obstacle_pair_x_axis_velocity(&obstacle_pair2, -1);
 80015aa:	f04f 31ff 	mov.w	r1, #4294967295
 80015ae:	4816      	ldr	r0, [pc, #88]	@ (8001608 <GamePlay+0x4ac>)
 80015b0:	f000 ffe0 	bl	8002574 <GFX_set_obstacle_pair_x_axis_velocity>
					obstacle_pair2_spawned = 1;
 80015b4:	4a18      	ldr	r2, [pc, #96]	@ (8001618 <GamePlay+0x4bc>)
					obstacle_pair2_cleaned = 0;
 80015b6:	4b17      	ldr	r3, [pc, #92]	@ (8001614 <GamePlay+0x4b8>)
					obstacle_pair2_spawned = 1;
 80015b8:	2101      	movs	r1, #1
 80015ba:	6011      	str	r1, [r2, #0]
					obstacle_pair2_cleaned = 0;
 80015bc:	2200      	movs	r2, #0
 80015be:	601a      	str	r2, [r3, #0]
					obstacle_number = 3;
 80015c0:	2303      	movs	r3, #3
 80015c2:	6033      	str	r3, [r6, #0]
 80015c4:	e65a      	b.n	800127c <GamePlay+0x120>
							MATH_randomise_distance_between_obstacles();
 80015c6:	f001 f96f 	bl	80028a8 <MATH_randomise_distance_between_obstacles>
 80015ca:	4d18      	ldr	r5, [pc, #96]	@ (800162c <GamePlay+0x4d0>)
 80015cc:	6028      	str	r0, [r5, #0]
					OBJ_init_obstacle_pair(&obstacle_pair3);
 80015ce:	481b      	ldr	r0, [pc, #108]	@ (800163c <GamePlay+0x4e0>)
 80015d0:	f001 fa94 	bl	8002afc <OBJ_init_obstacle_pair>
					GFX_init_obstacle_pair_location(&obstacle_pair3, 269,
 80015d4:	f9b5 3002 	ldrsh.w	r3, [r5, #2]
 80015d8:	f9b5 2000 	ldrsh.w	r2, [r5]
 80015dc:	4817      	ldr	r0, [pc, #92]	@ (800163c <GamePlay+0x4e0>)
 80015de:	f240 110d 	movw	r1, #269	@ 0x10d
 80015e2:	f000 fec3 	bl	800236c <GFX_init_obstacle_pair_location>
					GFX_set_obstacle_pair_x_axis_velocity(&obstacle_pair3, -1);
 80015e6:	f04f 31ff 	mov.w	r1, #4294967295
 80015ea:	4814      	ldr	r0, [pc, #80]	@ (800163c <GamePlay+0x4e0>)
 80015ec:	f000 ffc2 	bl	8002574 <GFX_set_obstacle_pair_x_axis_velocity>
					obstacle_pair3_spawned = 1;
 80015f0:	4913      	ldr	r1, [pc, #76]	@ (8001640 <GamePlay+0x4e4>)
					obstacle_pair3_cleaned = 0;
 80015f2:	4a14      	ldr	r2, [pc, #80]	@ (8001644 <GamePlay+0x4e8>)
					obstacle_pair3_spawned = 1;
 80015f4:	2301      	movs	r3, #1
 80015f6:	600b      	str	r3, [r1, #0]
					obstacle_number = 1;
 80015f8:	6033      	str	r3, [r6, #0]
					obstacle_pair3_cleaned = 0;
 80015fa:	2300      	movs	r3, #0
 80015fc:	6013      	str	r3, [r2, #0]
					obstacle_number = 1;
 80015fe:	e63d      	b.n	800127c <GamePlay+0x120>
 8001600:	20000110 	.word	0x20000110
 8001604:	2000011c 	.word	0x2000011c
 8001608:	200001b8 	.word	0x200001b8
 800160c:	20000104 	.word	0x20000104
 8001610:	20000a34 	.word	0x20000a34
 8001614:	2000010c 	.word	0x2000010c
 8001618:	20000118 	.word	0x20000118
 800161c:	20000100 	.word	0x20000100
 8001620:	20000af0 	.word	0x20000af0
 8001624:	200002ec 	.word	0x200002ec
 8001628:	200000f0 	.word	0x200000f0
 800162c:	200002e8 	.word	0x200002e8
 8001630:	20000250 	.word	0x20000250
 8001634:	08008c1c 	.word	0x08008c1c
 8001638:	200005c0 	.word	0x200005c0
 800163c:	20000120 	.word	0x20000120
 8001640:	20000114 	.word	0x20000114
 8001644:	20000108 	.word	0x20000108

08001648 <GameOver>:

uint8_t GameOver() {
 8001648:	b5f0      	push	{r4, r5, r6, r7, lr}
    static GAMEOVER_states_t state = GAMEOVER_SCREEN;
    uint8_t exit_value = 0;

    switch (state) {
 800164a:	4d5e      	ldr	r5, [pc, #376]	@ (80017c4 <GameOver+0x17c>)
 800164c:	782c      	ldrb	r4, [r5, #0]
uint8_t GameOver() {
 800164e:	b087      	sub	sp, #28
    switch (state) {
 8001650:	b144      	cbz	r4, 8001664 <GameOver+0x1c>
 8001652:	2c01      	cmp	r4, #1
 8001654:	f000 8091 	beq.w	800177a <GameOver+0x132>
            exit_value = (key == BTN_ESC) ? 1 : 2;  
        }
        break;

    default:
        state = GAMEOVER_SCREEN;
 8001658:	2300      	movs	r3, #0
 800165a:	702b      	strb	r3, [r5, #0]
        exit_value = 0;
 800165c:	2400      	movs	r4, #0
        break;
    }

    return exit_value;
}
 800165e:	4620      	mov	r0, r4
 8001660:	b007      	add	sp, #28
 8001662:	bdf0      	pop	{r4, r5, r6, r7, pc}
        KBD_flush();
 8001664:	f005 fb1c 	bl	8006ca0 <KBD_flush>
        HAL_Delay(300);
 8001668:	f44f 7096 	mov.w	r0, #300	@ 0x12c
 800166c:	f002 f8be 	bl	80037ec <HAL_Delay>
        obstacle_pair2_spawned = 0;
 8001670:	4b55      	ldr	r3, [pc, #340]	@ (80017c8 <GameOver+0x180>)
        obstacle_pair1_spawned = 0;
 8001672:	4956      	ldr	r1, [pc, #344]	@ (80017cc <GameOver+0x184>)
        obstacle_pair2_spawned = 0;
 8001674:	601c      	str	r4, [r3, #0]
        obstacle_pair1_cleaned = 0;
 8001676:	4b56      	ldr	r3, [pc, #344]	@ (80017d0 <GameOver+0x188>)
        obstacle_pair3_spawned = 0;
 8001678:	4a56      	ldr	r2, [pc, #344]	@ (80017d4 <GameOver+0x18c>)
        obstacle_pair1_cleaned = 0;
 800167a:	601c      	str	r4, [r3, #0]
        obstacle_pair3_cleaned = 0;
 800167c:	4b56      	ldr	r3, [pc, #344]	@ (80017d8 <GameOver+0x190>)
        obstacle_pair1_spawned = 0;
 800167e:	600c      	str	r4, [r1, #0]
        obstacle_pair3_cleaned = 0;
 8001680:	601c      	str	r4, [r3, #0]
        obstacle_pair2_scored = 0;
 8001682:	4b56      	ldr	r3, [pc, #344]	@ (80017dc <GameOver+0x194>)
        obstacle_pair2_cleaned = 0;
 8001684:	4956      	ldr	r1, [pc, #344]	@ (80017e0 <GameOver+0x198>)
        obstacle_pair3_spawned = 0;
 8001686:	6014      	str	r4, [r2, #0]
        obstacle_pair2_scored = 0;
 8001688:	601c      	str	r4, [r3, #0]
        obstacle_pair1_scored = 0;
 800168a:	4a56      	ldr	r2, [pc, #344]	@ (80017e4 <GameOver+0x19c>)
        moving_obstacles = 0;
 800168c:	4b56      	ldr	r3, [pc, #344]	@ (80017e8 <GameOver+0x1a0>)
        obstacle_pair2_cleaned = 0;
 800168e:	600c      	str	r4, [r1, #0]
        obstacle_pair3_scored = 0;
 8001690:	4956      	ldr	r1, [pc, #344]	@ (80017ec <GameOver+0x1a4>)
        obstacle_pair1_scored = 0;
 8001692:	6014      	str	r4, [r2, #0]
        moving_obstacles = 0;
 8001694:	601c      	str	r4, [r3, #0]
        time_mark = 0;
 8001696:	4a56      	ldr	r2, [pc, #344]	@ (80017f0 <GameOver+0x1a8>)
        obstacle_number = 0;
 8001698:	4b56      	ldr	r3, [pc, #344]	@ (80017f4 <GameOver+0x1ac>)
        GFX_clear_obstacle_pair_on_background(&obstacle_pair1, &background);
 800169a:	4857      	ldr	r0, [pc, #348]	@ (80017f8 <GameOver+0x1b0>)
        obstacle_pair3_scored = 0;
 800169c:	600c      	str	r4, [r1, #0]
        GFX_clear_obstacle_pair_on_background(&obstacle_pair1, &background);
 800169e:	4957      	ldr	r1, [pc, #348]	@ (80017fc <GameOver+0x1b4>)
        time_mark = 0;
 80016a0:	6014      	str	r4, [r2, #0]
        obstacle_number = 0;
 80016a2:	601c      	str	r4, [r3, #0]
        GFX_clear_obstacle_pair_on_background(&obstacle_pair1, &background);
 80016a4:	f001 f8f0 	bl	8002888 <GFX_clear_obstacle_pair_on_background>
        GFX_clear_obstacle_pair_on_background(&obstacle_pair2, &background);
 80016a8:	4954      	ldr	r1, [pc, #336]	@ (80017fc <GameOver+0x1b4>)
 80016aa:	4855      	ldr	r0, [pc, #340]	@ (8001800 <GameOver+0x1b8>)
        sprintf(score_text_2, "%d", game_status.score);
 80016ac:	4f55      	ldr	r7, [pc, #340]	@ (8001804 <GameOver+0x1bc>)
        GFX_clear_obstacle_pair_on_background(&obstacle_pair2, &background);
 80016ae:	f001 f8eb 	bl	8002888 <GFX_clear_obstacle_pair_on_background>
        GFX_clear_obstacle_pair_on_background(&obstacle_pair3, &background);
 80016b2:	4952      	ldr	r1, [pc, #328]	@ (80017fc <GameOver+0x1b4>)
 80016b4:	4854      	ldr	r0, [pc, #336]	@ (8001808 <GameOver+0x1c0>)
 80016b6:	f001 f8e7 	bl	8002888 <GFX_clear_obstacle_pair_on_background>
        GFX_clear_gfx_object_on_background(&misko, &background);
 80016ba:	4950      	ldr	r1, [pc, #320]	@ (80017fc <GameOver+0x1b4>)
 80016bc:	4853      	ldr	r0, [pc, #332]	@ (800180c <GameOver+0x1c4>)
 80016be:	f000 fdad 	bl	800221c <GFX_clear_gfx_object_on_background>
        GFX_draw_gfx_object(&background);
 80016c2:	484e      	ldr	r0, [pc, #312]	@ (80017fc <GameOver+0x1b4>)
 80016c4:	f000 f906 	bl	80018d4 <GFX_draw_gfx_object>
        OBJ_init_high_score_sprite_large(30, 30);
 80016c8:	211e      	movs	r1, #30
 80016ca:	4608      	mov	r0, r1
 80016cc:	f001 f9ec 	bl	8002aa8 <OBJ_init_high_score_sprite_large>
        GFX_draw_one_gfx_object_on_background(&high_score_sprite_large,&background);
 80016d0:	494a      	ldr	r1, [pc, #296]	@ (80017fc <GameOver+0x1b4>)
 80016d2:	484f      	ldr	r0, [pc, #316]	@ (8001810 <GameOver+0x1c8>)
 80016d4:	f000 fd22 	bl	800211c <GFX_draw_one_gfx_object_on_background>
        uint16_t *high_scores_2 = Get_High_Scores();
 80016d8:	f7ff f826 	bl	8000728 <Get_High_Scores>
        OBJ_init_text_big(75, 40, "GAME OVER!", &high_score_menu_text);
 80016dc:	4b4d      	ldr	r3, [pc, #308]	@ (8001814 <GameOver+0x1cc>)
 80016de:	4a4e      	ldr	r2, [pc, #312]	@ (8001818 <GameOver+0x1d0>)
 80016e0:	2128      	movs	r1, #40	@ 0x28
        uint16_t *high_scores_2 = Get_High_Scores();
 80016e2:	4606      	mov	r6, r0
        OBJ_init_text_big(75, 40, "GAME OVER!", &high_score_menu_text);
 80016e4:	204b      	movs	r0, #75	@ 0x4b
 80016e6:	f001 fa75 	bl	8002bd4 <OBJ_init_text_big>
        GFX_display_text_object(&high_score_menu_text);
 80016ea:	484a      	ldr	r0, [pc, #296]	@ (8001814 <GameOver+0x1cc>)
 80016ec:	f000 fe2a 	bl	8002344 <GFX_display_text_object>
        OBJ_init_text_small(50, 85, "YOUR SCORE:", &your_hs_text);
 80016f0:	4b4a      	ldr	r3, [pc, #296]	@ (800181c <GameOver+0x1d4>)
 80016f2:	4a4b      	ldr	r2, [pc, #300]	@ (8001820 <GameOver+0x1d8>)
 80016f4:	2155      	movs	r1, #85	@ 0x55
 80016f6:	2032      	movs	r0, #50	@ 0x32
 80016f8:	f001 fa5c 	bl	8002bb4 <OBJ_init_text_small>
        GFX_display_text_object(&your_hs_text);
 80016fc:	4847      	ldr	r0, [pc, #284]	@ (800181c <GameOver+0x1d4>)
 80016fe:	f000 fe21 	bl	8002344 <GFX_display_text_object>
        sprintf(score_text_2, "%d", game_status.score);
 8001702:	f9b7 2000 	ldrsh.w	r2, [r7]
 8001706:	4947      	ldr	r1, [pc, #284]	@ (8001824 <GameOver+0x1dc>)
 8001708:	a801      	add	r0, sp, #4
 800170a:	f006 f9ed 	bl	8007ae8 <siprintf>
        OBJ_init_text_small(195, 85, score_text_2, &your_hs_value_text);
 800170e:	4b46      	ldr	r3, [pc, #280]	@ (8001828 <GameOver+0x1e0>)
 8001710:	aa01      	add	r2, sp, #4
 8001712:	2155      	movs	r1, #85	@ 0x55
 8001714:	20c3      	movs	r0, #195	@ 0xc3
 8001716:	f001 fa4d 	bl	8002bb4 <OBJ_init_text_small>
        GFX_display_text_object(&your_hs_value_text);
 800171a:	4843      	ldr	r0, [pc, #268]	@ (8001828 <GameOver+0x1e0>)
 800171c:	f000 fe12 	bl	8002344 <GFX_display_text_object>
        OBJ_init_text_small(50, 115, "HIGHEST SCORE:", &biggest_hs_text); 
 8001720:	4b42      	ldr	r3, [pc, #264]	@ (800182c <GameOver+0x1e4>)
 8001722:	4a43      	ldr	r2, [pc, #268]	@ (8001830 <GameOver+0x1e8>)
 8001724:	2173      	movs	r1, #115	@ 0x73
 8001726:	2032      	movs	r0, #50	@ 0x32
 8001728:	f001 fa44 	bl	8002bb4 <OBJ_init_text_small>
        GFX_display_text_object(&biggest_hs_text);
 800172c:	483f      	ldr	r0, [pc, #252]	@ (800182c <GameOver+0x1e4>)
 800172e:	f000 fe09 	bl	8002344 <GFX_display_text_object>
        sprintf(score_text_2, "%d", high_scores_2[0]);
 8001732:	8832      	ldrh	r2, [r6, #0]
 8001734:	493b      	ldr	r1, [pc, #236]	@ (8001824 <GameOver+0x1dc>)
 8001736:	a801      	add	r0, sp, #4
 8001738:	f006 f9d6 	bl	8007ae8 <siprintf>
        OBJ_init_text_small(233, 115, score_text_2, &high_score1_text_value);
 800173c:	4b3d      	ldr	r3, [pc, #244]	@ (8001834 <GameOver+0x1ec>)
 800173e:	aa01      	add	r2, sp, #4
 8001740:	2173      	movs	r1, #115	@ 0x73
 8001742:	20e9      	movs	r0, #233	@ 0xe9
 8001744:	f001 fa36 	bl	8002bb4 <OBJ_init_text_small>
        GFX_display_text_object(&high_score1_text_value);
 8001748:	483a      	ldr	r0, [pc, #232]	@ (8001834 <GameOver+0x1ec>)
 800174a:	f000 fdfb 	bl	8002344 <GFX_display_text_object>
        OBJ_init_text_tiny(43, 170, "PRESS OK TO RESTART OR ESC", &press_to_go_back_text);
 800174e:	4b3a      	ldr	r3, [pc, #232]	@ (8001838 <GameOver+0x1f0>)
 8001750:	4a3a      	ldr	r2, [pc, #232]	@ (800183c <GameOver+0x1f4>)
 8001752:	21aa      	movs	r1, #170	@ 0xaa
 8001754:	202b      	movs	r0, #43	@ 0x2b
 8001756:	f001 fa4d 	bl	8002bf4 <OBJ_init_text_tiny>
        GFX_display_text_object(&press_to_go_back_text);
 800175a:	4837      	ldr	r0, [pc, #220]	@ (8001838 <GameOver+0x1f0>)
 800175c:	f000 fdf2 	bl	8002344 <GFX_display_text_object>
        OBJ_init_text_tiny(43, 185, "TO GO BACK TO THE MAIN MENU", &press_to_go_back_text2);
 8001760:	4b37      	ldr	r3, [pc, #220]	@ (8001840 <GameOver+0x1f8>)
 8001762:	4a38      	ldr	r2, [pc, #224]	@ (8001844 <GameOver+0x1fc>)
 8001764:	21b9      	movs	r1, #185	@ 0xb9
 8001766:	202b      	movs	r0, #43	@ 0x2b
 8001768:	f001 fa44 	bl	8002bf4 <OBJ_init_text_tiny>
        GFX_display_text_object(&press_to_go_back_text2);
 800176c:	4834      	ldr	r0, [pc, #208]	@ (8001840 <GameOver+0x1f8>)
 800176e:	f000 fde9 	bl	8002344 <GFX_display_text_object>
        state = GAMEOVER_WAIT_FOR_ANY_KEY;
 8001772:	2301      	movs	r3, #1
        game_status.score = 0;
 8001774:	803c      	strh	r4, [r7, #0]
        state = GAMEOVER_WAIT_FOR_ANY_KEY;
 8001776:	702b      	strb	r3, [r5, #0]
        break;
 8001778:	e770      	b.n	800165c <GameOver+0x14>
        key = KBD_get_pressed_key();
 800177a:	f005 fa7d 	bl	8006c78 <KBD_get_pressed_key>
 800177e:	4e32      	ldr	r6, [pc, #200]	@ (8001848 <GameOver+0x200>)
        if (key == BTN_OK || key == BTN_ESC) {
 8001780:	1f03      	subs	r3, r0, #4
 8001782:	2b01      	cmp	r3, #1
        key = KBD_get_pressed_key();
 8001784:	7030      	strb	r0, [r6, #0]
        if (key == BTN_OK || key == BTN_ESC) {
 8001786:	f63f af69 	bhi.w	800165c <GameOver+0x14>
            GFX_clear_gfx_object_on_background(&misko, &background);
 800178a:	491c      	ldr	r1, [pc, #112]	@ (80017fc <GameOver+0x1b4>)
 800178c:	481f      	ldr	r0, [pc, #124]	@ (800180c <GameOver+0x1c4>)
 800178e:	f000 fd45 	bl	800221c <GFX_clear_gfx_object_on_background>
            GFX_set_gfx_object_location(&misko, 80, 120);  
 8001792:	2278      	movs	r2, #120	@ 0x78
 8001794:	2150      	movs	r1, #80	@ 0x50
 8001796:	481d      	ldr	r0, [pc, #116]	@ (800180c <GameOver+0x1c4>)
 8001798:	f000 f98e 	bl	8001ab8 <GFX_set_gfx_object_location>
            GFX_set_gfx_object_velocity(&misko, 0, 0);
 800179c:	2200      	movs	r2, #0
 800179e:	4611      	mov	r1, r2
 80017a0:	481a      	ldr	r0, [pc, #104]	@ (800180c <GameOver+0x1c4>)
 80017a2:	f000 f9e9 	bl	8001b78 <GFX_set_gfx_object_velocity>
			game_status.score = 0;
 80017a6:	2700      	movs	r7, #0
 80017a8:	4b16      	ldr	r3, [pc, #88]	@ (8001804 <GameOver+0x1bc>)
            OBJ_set_score_text_value(game_status.score); 
 80017aa:	4638      	mov	r0, r7
			game_status.score = 0;
 80017ac:	801f      	strh	r7, [r3, #0]
            OBJ_set_score_text_value(game_status.score); 
 80017ae:	f001 f9c9 	bl	8002b44 <OBJ_set_score_text_value>
            GFX_display_text_object(&score_text);        
 80017b2:	4826      	ldr	r0, [pc, #152]	@ (800184c <GameOver+0x204>)
 80017b4:	f000 fdc6 	bl	8002344 <GFX_display_text_object>
            exit_value = (key == BTN_ESC) ? 1 : 2;  
 80017b8:	7833      	ldrb	r3, [r6, #0]
            state = GAMEOVER_SCREEN;  
 80017ba:	702f      	strb	r7, [r5, #0]
            exit_value = (key == BTN_ESC) ? 1 : 2;  
 80017bc:	2b05      	cmp	r3, #5
 80017be:	bf18      	it	ne
 80017c0:	2402      	movne	r4, #2
 80017c2:	e74c      	b.n	800165e <GameOver+0x16>
 80017c4:	200000d2 	.word	0x200000d2
 80017c8:	20000118 	.word	0x20000118
 80017cc:	2000011c 	.word	0x2000011c
 80017d0:	20000110 	.word	0x20000110
 80017d4:	20000114 	.word	0x20000114
 80017d8:	20000108 	.word	0x20000108
 80017dc:	20000100 	.word	0x20000100
 80017e0:	2000010c 	.word	0x2000010c
 80017e4:	20000104 	.word	0x20000104
 80017e8:	200000f8 	.word	0x200000f8
 80017ec:	200000fc 	.word	0x200000fc
 80017f0:	200000f4 	.word	0x200000f4
 80017f4:	200000f0 	.word	0x200000f0
 80017f8:	20000250 	.word	0x20000250
 80017fc:	20000a34 	.word	0x20000a34
 8001800:	200001b8 	.word	0x200001b8
 8001804:	20000af0 	.word	0x20000af0
 8001808:	20000120 	.word	0x20000120
 800180c:	200005c0 	.word	0x200005c0
 8001810:	20000820 	.word	0x20000820
 8001814:	200003b8 	.word	0x200003b8
 8001818:	08008c68 	.word	0x08008c68
 800181c:	200003a4 	.word	0x200003a4
 8001820:	08008c74 	.word	0x08008c74
 8001824:	08008b94 	.word	0x08008b94
 8001828:	2000037c 	.word	0x2000037c
 800182c:	20000390 	.word	0x20000390
 8001830:	08008c80 	.word	0x08008c80
 8001834:	20000430 	.word	0x20000430
 8001838:	20000458 	.word	0x20000458
 800183c:	08008c90 	.word	0x08008c90
 8001840:	20000444 	.word	0x20000444
 8001844:	08008cac 	.word	0x08008cac
 8001848:	20000314 	.word	0x20000314
 800184c:	2000054c 	.word	0x2000054c

08001850 <Game>:
void Game() {
 8001850:	b538      	push	{r3, r4, r5, lr}
    switch (state) {
 8001852:	4d1b      	ldr	r5, [pc, #108]	@ (80018c0 <Game+0x70>)
 8001854:	782c      	ldrb	r4, [r5, #0]
 8001856:	2c01      	cmp	r4, #1
 8001858:	d00d      	beq.n	8001876 <Game+0x26>
 800185a:	2c02      	cmp	r4, #2
 800185c:	d019      	beq.n	8001892 <Game+0x42>
 800185e:	b18c      	cbz	r4, 8001884 <Game+0x34>
        printf("Game(): Error - undefined state (%d)", state);
 8001860:	4621      	mov	r1, r4
 8001862:	4818      	ldr	r0, [pc, #96]	@ (80018c4 <Game+0x74>)
 8001864:	f006 f87a 	bl	800795c <iprintf>
        HAL_Delay(5000);
 8001868:	f241 3088 	movw	r0, #5000	@ 0x1388
 800186c:	f001 ffbe 	bl	80037ec <HAL_Delay>
        state = GAME_INTRO_STATE;
 8001870:	2300      	movs	r3, #0
 8001872:	702b      	strb	r3, [r5, #0]
}
 8001874:	bd38      	pop	{r3, r4, r5, pc}
        exit_value = GamePlay();
 8001876:	f7ff fc71 	bl	800115c <GamePlay>
        if (exit_value != 0) {
 800187a:	2800      	cmp	r0, #0
 800187c:	d0fa      	beq.n	8001874 <Game+0x24>
            state = GAME_OVER_STATE;
 800187e:	2302      	movs	r3, #2
 8001880:	702b      	strb	r3, [r5, #0]
}
 8001882:	bd38      	pop	{r3, r4, r5, pc}
        exit_value = Intro();
 8001884:	f7fe ff5e 	bl	8000744 <Intro>
        if (exit_value != 0) {
 8001888:	2800      	cmp	r0, #0
 800188a:	d0f3      	beq.n	8001874 <Game+0x24>
            state = GAME_PLAY_STATE;
 800188c:	2301      	movs	r3, #1
 800188e:	702b      	strb	r3, [r5, #0]
}
 8001890:	bd38      	pop	{r3, r4, r5, pc}
        exit_value = GameOver();
 8001892:	f7ff fed9 	bl	8001648 <GameOver>
        if (exit_value == 1) {  
 8001896:	2801      	cmp	r0, #1
 8001898:	d007      	beq.n	80018aa <Game+0x5a>
        else if (exit_value == 2) {  
 800189a:	2802      	cmp	r0, #2
 800189c:	d1ea      	bne.n	8001874 <Game+0x24>
            intro_state = INTRO_PRESS_ANY_KEY;  
 800189e:	4b0a      	ldr	r3, [pc, #40]	@ (80018c8 <Game+0x78>)
            state = GAME_INTRO_STATE;
 80018a0:	2100      	movs	r1, #0
            intro_state = INTRO_PRESS_ANY_KEY;  
 80018a2:	2201      	movs	r2, #1
            state = GAME_INTRO_STATE;
 80018a4:	7029      	strb	r1, [r5, #0]
            intro_state = INTRO_PRESS_ANY_KEY;  
 80018a6:	701a      	strb	r2, [r3, #0]
}
 80018a8:	bd38      	pop	{r3, r4, r5, pc}
            intro_state = INTRO_MAIN_MENU;  
 80018aa:	4907      	ldr	r1, [pc, #28]	@ (80018c8 <Game+0x78>)
            menu_initialized = 0;  
 80018ac:	4807      	ldr	r0, [pc, #28]	@ (80018cc <Game+0x7c>)
            previous_selected_item = -1;
 80018ae:	4a08      	ldr	r2, [pc, #32]	@ (80018d0 <Game+0x80>)
            intro_state = INTRO_MAIN_MENU;  
 80018b0:	700c      	strb	r4, [r1, #0]
            state = GAME_INTRO_STATE;
 80018b2:	2300      	movs	r3, #0
            previous_selected_item = -1;
 80018b4:	f04f 31ff 	mov.w	r1, #4294967295
            state = GAME_INTRO_STATE;
 80018b8:	702b      	strb	r3, [r5, #0]
            menu_initialized = 0;  
 80018ba:	7003      	strb	r3, [r0, #0]
            previous_selected_item = -1;
 80018bc:	6011      	str	r1, [r2, #0]
}
 80018be:	bd38      	pop	{r3, r4, r5, pc}
 80018c0:	200000e5 	.word	0x200000e5
 80018c4:	08008cc8 	.word	0x08008cc8
 80018c8:	200000e6 	.word	0x200000e6
 80018cc:	200000ed 	.word	0x200000ed
 80018d0:	20000008 	.word	0x20000008

080018d4 <GFX_draw_gfx_object>:




void GFX_draw_gfx_object(graphic_object_t *gfx_object)
{
 80018d4:	b510      	push	{r4, lr}
 80018d6:	4604      	mov	r4, r0

	ILI9341_SetDisplayWindow( gfx_object->location.x_min, gfx_object->location.y_min, gfx_object->image.size_x, gfx_object->image.size_y);
 80018d8:	f9b0 100e 	ldrsh.w	r1, [r0, #14]
 80018dc:	88e3      	ldrh	r3, [r4, #6]
 80018de:	f9b0 000c 	ldrsh.w	r0, [r0, #12]
 80018e2:	88a2      	ldrh	r2, [r4, #4]
 80018e4:	f005 fa88 	bl	8006df8 <ILI9341_SetDisplayWindow>

	ILI9341_SendData((LCD_IO_Data_t *) gfx_object->image.image_array, gfx_object->image.size );
 80018e8:	68a1      	ldr	r1, [r4, #8]
 80018ea:	6820      	ldr	r0, [r4, #0]
}
 80018ec:	e8bd 4010 	ldmia.w	sp!, {r4, lr}
	ILI9341_SendData((LCD_IO_Data_t *) gfx_object->image.image_array, gfx_object->image.size );
 80018f0:	f005 ba62 	b.w	8006db8 <ILI9341_SendData>

080018f4 <GFX_init_location_restrictions>:



// the limiting values are still allowed
void GFX_init_location_restrictions(graphic_object_t *gfx_object, location_t *canvas_location)
{
 80018f4:	e92d 4ff8 	stmdb	sp!, {r3, r4, r5, r6, r7, r8, r9, sl, fp, lr}
	// top left corner restrictions
	gfx_object->top_left_limits.X_MIN = canvas_location->x_min;
 80018f8:	f9b1 9000 	ldrsh.w	r9, [r1]
	gfx_object->top_left_limits.Y_MIN = canvas_location->y_min;
 80018fc:	f9b1 7002 	ldrsh.w	r7, [r1, #2]

	gfx_object->top_left_limits.X_MAX = canvas_location->x_max - gfx_object->image.size_x;
 8001900:	f9b1 5004 	ldrsh.w	r5, [r1, #4]
	gfx_object->top_left_limits.Y_MAX = canvas_location->y_max - gfx_object->image.size_y;
 8001904:	f9b1 b006 	ldrsh.w	fp, [r1, #6]
	gfx_object->top_left_limits.X_MIN = canvas_location->x_min;
 8001908:	fa1f f389 	uxth.w	r3, r9
{
 800190c:	4604      	mov	r4, r0
	gfx_object->top_left_limits.X_MIN = canvas_location->x_min;
 800190e:	8603      	strh	r3, [r0, #48]	@ 0x30
	gfx_object->top_left_limits.X_MAX = canvas_location->x_max - gfx_object->image.size_x;
 8001910:	8880      	ldrh	r0, [r0, #4]
	gfx_object->top_left_limits.Y_MAX = canvas_location->y_max - gfx_object->image.size_y;
 8001912:	88e6      	ldrh	r6, [r4, #6]
	gfx_object->top_left_limits.X_MAX = canvas_location->x_max - gfx_object->image.size_x;
 8001914:	1a2a      	subs	r2, r5, r0
 8001916:	b292      	uxth	r2, r2

	gfx_object->top_left_limits.X_RANGE = gfx_object->top_left_limits.X_MAX - gfx_object->top_left_limits.X_MIN;
 8001918:	1ad3      	subs	r3, r2, r3
 800191a:	86a3      	strh	r3, [r4, #52]	@ 0x34
	gfx_object->top_left_limits.Y_MAX = canvas_location->y_max - gfx_object->image.size_y;
 800191c:	ebab 0306 	sub.w	r3, fp, r6
	gfx_object->top_left_limits.X_MAX = canvas_location->x_max - gfx_object->image.size_x;
 8001920:	8662      	strh	r2, [r4, #50]	@ 0x32
	gfx_object->top_left_limits.Y_MAX = canvas_location->y_max - gfx_object->image.size_y;
 8001922:	b29b      	uxth	r3, r3
	gfx_object->top_left_limits.Y_MIN = canvas_location->y_min;
 8001924:	b2ba      	uxth	r2, r7
	gfx_object->top_left_limits.Y_MAX = canvas_location->y_max - gfx_object->image.size_y;
 8001926:	8723      	strh	r3, [r4, #56]	@ 0x38
	gfx_object->top_left_limits.Y_RANGE = gfx_object->top_left_limits.Y_MAX - gfx_object->top_left_limits.Y_MIN;
 8001928:	1a9b      	subs	r3, r3, r2
 800192a:	8763      	strh	r3, [r4, #58]	@ 0x3a
	gfx_object->top_left_limits.Y_MIN = canvas_location->y_min;
 800192c:	86e2      	strh	r2, [r4, #54]	@ 0x36


	// center point restrictions
	gfx_object->center_limits.X_MIN = canvas_location->x_min + ceil( gfx_object->image.size_x / 2 );
 800192e:	0840      	lsrs	r0, r0, #1
 8001930:	f7fe fe18 	bl	8000564 <__aeabi_i2d>
 8001934:	4602      	mov	r2, r0
 8001936:	4690      	mov	r8, r2
 8001938:	4648      	mov	r0, r9
 800193a:	4689      	mov	r9, r1
 800193c:	f7fe fe12 	bl	8000564 <__aeabi_i2d>
 8001940:	4642      	mov	r2, r8
 8001942:	464b      	mov	r3, r9
 8001944:	f7fe fcc2 	bl	80002cc <__adddf3>
 8001948:	f7fe fe76 	bl	8000638 <__aeabi_d2uiz>
 800194c:	fa1f fa80 	uxth.w	sl, r0
 8001950:	f8a4 a03c 	strh.w	sl, [r4, #60]	@ 0x3c
	gfx_object->center_limits.Y_MIN = canvas_location->y_min + ceil( gfx_object->image.size_y / 2 );
 8001954:	0870      	lsrs	r0, r6, #1
 8001956:	f7fe fe05 	bl	8000564 <__aeabi_i2d>
 800195a:	4602      	mov	r2, r0
 800195c:	4616      	mov	r6, r2
 800195e:	4638      	mov	r0, r7
 8001960:	460f      	mov	r7, r1
 8001962:	f7fe fdff 	bl	8000564 <__aeabi_i2d>
 8001966:	4632      	mov	r2, r6
 8001968:	463b      	mov	r3, r7
 800196a:	f7fe fcaf 	bl	80002cc <__adddf3>
 800196e:	f7fe fe63 	bl	8000638 <__aeabi_d2uiz>
 8001972:	4603      	mov	r3, r0

	gfx_object->center_limits.X_MAX = canvas_location->x_max - ceil( gfx_object->image.size_x / 2 );
 8001974:	4628      	mov	r0, r5
	gfx_object->center_limits.Y_MIN = canvas_location->y_min + ceil( gfx_object->image.size_y / 2 );
 8001976:	b29d      	uxth	r5, r3
	gfx_object->center_limits.X_MAX = canvas_location->x_max - ceil( gfx_object->image.size_x / 2 );
 8001978:	f7fe fdf4 	bl	8000564 <__aeabi_i2d>
 800197c:	4642      	mov	r2, r8
 800197e:	464b      	mov	r3, r9
 8001980:	f7fe fca2 	bl	80002c8 <__aeabi_dsub>
 8001984:	f7fe fe58 	bl	8000638 <__aeabi_d2uiz>
 8001988:	fa1f f880 	uxth.w	r8, r0
 800198c:	f8a4 803e 	strh.w	r8, [r4, #62]	@ 0x3e
	gfx_object->center_limits.Y_MAX = canvas_location->y_max - ceil( gfx_object->image.size_y / 2 );
 8001990:	4658      	mov	r0, fp
 8001992:	f7fe fde7 	bl	8000564 <__aeabi_i2d>
 8001996:	4632      	mov	r2, r6
 8001998:	463b      	mov	r3, r7
 800199a:	f7fe fc95 	bl	80002c8 <__aeabi_dsub>
 800199e:	f7fe fe4b 	bl	8000638 <__aeabi_d2uiz>

	gfx_object->center_limits.X_RANGE = gfx_object->center_limits.X_MAX - gfx_object->center_limits.X_MIN;
 80019a2:	2300      	movs	r3, #0
	gfx_object->center_limits.Y_MAX = canvas_location->y_max - ceil( gfx_object->image.size_y / 2 );
 80019a4:	b280      	uxth	r0, r0
	gfx_object->center_limits.X_RANGE = gfx_object->center_limits.X_MAX - gfx_object->center_limits.X_MIN;
 80019a6:	461a      	mov	r2, r3
 80019a8:	eba8 080a 	sub.w	r8, r8, sl
 80019ac:	f360 020f 	bfi	r2, r0, #0, #16
 80019b0:	f368 030f 	bfi	r3, r8, #0, #16
	gfx_object->center_limits.Y_RANGE = gfx_object->center_limits.Y_MAX - gfx_object->center_limits.Y_MIN;
 80019b4:	1b40      	subs	r0, r0, r5
	gfx_object->center_limits.X_RANGE = gfx_object->center_limits.X_MAX - gfx_object->center_limits.X_MIN;
 80019b6:	f360 421f 	bfi	r2, r0, #16, #16
 80019ba:	f365 431f 	bfi	r3, r5, #16, #16
 80019be:	e9c4 3210 	strd	r3, r2, [r4, #64]	@ 0x40

}
 80019c2:	e8bd 8ff8 	ldmia.w	sp!, {r3, r4, r5, r6, r7, r8, r9, sl, fp, pc}
 80019c6:	bf00      	nop

080019c8 <GFX_init_gfx_object_location>:



uint8_t GFX_is_location_inside_object_restrictions(location_restriction_t *restrictions, int16_t x, int16_t y)
{
	if( ( x >= restrictions->X_MIN ) &&
 80019c8:	8e03      	ldrh	r3, [r0, #48]	@ 0x30
 80019ca:	4299      	cmp	r1, r3




uint8_t GFX_init_gfx_object_location(graphic_object_t *gfx_object, int16_t x, int16_t y)
{
 80019cc:	b5f0      	push	{r4, r5, r6, r7, lr}
	if( ( x >= restrictions->X_MIN ) &&
 80019ce:	db2a      	blt.n	8001a26 <GFX_init_gfx_object_location+0x5e>
		( x <= restrictions->X_MAX ) &&
 80019d0:	8e43      	ldrh	r3, [r0, #50]	@ 0x32
	if( ( x >= restrictions->X_MIN ) &&
 80019d2:	4299      	cmp	r1, r3
 80019d4:	dc27      	bgt.n	8001a26 <GFX_init_gfx_object_location+0x5e>
		( y >= restrictions->Y_MIN ) &&
 80019d6:	8ec3      	ldrh	r3, [r0, #54]	@ 0x36
		( x <= restrictions->X_MAX ) &&
 80019d8:	429a      	cmp	r2, r3
 80019da:	db24      	blt.n	8001a26 <GFX_init_gfx_object_location+0x5e>
		( y <= restrictions->Y_MAX )    )
 80019dc:	8f03      	ldrh	r3, [r0, #56]	@ 0x38
		( y >= restrictions->Y_MIN ) &&
 80019de:	429a      	cmp	r2, r3
 80019e0:	dc2a      	bgt.n	8001a38 <GFX_init_gfx_object_location+0x70>
        // Within restrictions -> object can be placed
        // Set the new object location
        gfx_object->location.x_min = x;
        gfx_object->location.y_min = y;

        gfx_object->location.x_max = gfx_object->location.x_min + gfx_object->image.size_x;
 80019e2:	8886      	ldrh	r6, [r0, #4]
        gfx_object->location.y_max = gfx_object->location.y_min + gfx_object->image.size_y;
 80019e4:	88c7      	ldrh	r7, [r0, #6]
        gfx_object->location.x_max = gfx_object->location.x_min + gfx_object->image.size_x;
 80019e6:	b28c      	uxth	r4, r1
 80019e8:	19a3      	adds	r3, r4, r6
        gfx_object->location.y_max = gfx_object->location.y_min + gfx_object->image.size_y;
 80019ea:	fa1f fc82 	uxth.w	ip, r2
        gfx_object->location.x_min = x;
 80019ee:	2500      	movs	r5, #0

        gfx_object->location.x_center = gfx_object->location.x_min + gfx_object->image.size_x / 2;
 80019f0:	eb04 0456 	add.w	r4, r4, r6, lsr #1
        gfx_object->location.y_max = gfx_object->location.y_min + gfx_object->image.size_y;
 80019f4:	eb0c 0e07 	add.w	lr, ip, r7
        gfx_object->location.x_min = x;
 80019f8:	462e      	mov	r6, r5
        gfx_object->location.x_max = gfx_object->location.x_min + gfx_object->image.size_x;
 80019fa:	b21b      	sxth	r3, r3
        gfx_object->location.x_min = x;
 80019fc:	f363 060f 	bfi	r6, r3, #0, #16
 8001a00:	f361 050f 	bfi	r5, r1, #0, #16
        gfx_object->location.y_center = gfx_object->location.y_min + gfx_object->image.size_y / 2;
 8001a04:	eb0c 0c57 	add.w	ip, ip, r7, lsr #1
        gfx_object->location.y_max = gfx_object->location.y_min + gfx_object->image.size_y;
 8001a08:	fa0f fe8e 	sxth.w	lr, lr
        gfx_object->location.x_center = gfx_object->location.x_min + gfx_object->image.size_x / 2;
 8001a0c:	b224      	sxth	r4, r4
        gfx_object->location.x_min = x;
 8001a0e:	f362 451f 	bfi	r5, r2, #16, #16
 8001a12:	f36e 461f 	bfi	r6, lr, #16, #16
        gfx_object->location.y_center = gfx_object->location.y_min + gfx_object->image.size_y / 2;
 8001a16:	fa0f fc8c 	sxth.w	ip, ip
        gfx_object->location.x_center = gfx_object->location.x_min + gfx_object->image.size_x / 2;
 8001a1a:	8284      	strh	r4, [r0, #20]
        gfx_object->location.x_min = x;
 8001a1c:	60c5      	str	r5, [r0, #12]
 8001a1e:	6106      	str	r6, [r0, #16]
        gfx_object->location.y_center = gfx_object->location.y_min + gfx_object->image.size_y / 2;
 8001a20:	f8a0 c016 	strh.w	ip, [r0, #22]
	if( return_value  )
 8001a24:	e031      	b.n	8001a8a <GFX_init_gfx_object_location+0xc2>
    }

    else
    {
		// This part clips the upper part of the obstacle if it is placed outside the screen
		if((gfx_object == &obstacle_pair1.top || gfx_object == &obstacle_pair2.top || gfx_object == &obstacle_pair3.top) && y < 0)
 8001a26:	4b21      	ldr	r3, [pc, #132]	@ (8001aac <GFX_init_gfx_object_location+0xe4>)
 8001a28:	4298      	cmp	r0, r3
 8001a2a:	d007      	beq.n	8001a3c <GFX_init_gfx_object_location+0x74>
 8001a2c:	4b20      	ldr	r3, [pc, #128]	@ (8001ab0 <GFX_init_gfx_object_location+0xe8>)
 8001a2e:	4298      	cmp	r0, r3
 8001a30:	d004      	beq.n	8001a3c <GFX_init_gfx_object_location+0x74>
 8001a32:	4b20      	ldr	r3, [pc, #128]	@ (8001ab4 <GFX_init_gfx_object_location+0xec>)
 8001a34:	4298      	cmp	r0, r3
 8001a36:	d001      	beq.n	8001a3c <GFX_init_gfx_object_location+0x74>
 8001a38:	2000      	movs	r0, #0
}
 8001a3a:	bdf0      	pop	{r4, r5, r6, r7, pc}
		if((gfx_object == &obstacle_pair1.top || gfx_object == &obstacle_pair2.top || gfx_object == &obstacle_pair3.top) && y < 0)
 8001a3c:	2a00      	cmp	r2, #0
 8001a3e:	dafb      	bge.n	8001a38 <GFX_init_gfx_object_location+0x70>
			gfx_object->location.x_min = x;
			gfx_object->location.x_max = gfx_object->location.x_min + gfx_object->image.size_x;

			// Adjust the image data to clip the top part
			gfx_object->image.image_array += offset * gfx_object->image.size_x;
			gfx_object->image.size_y -= offset;
 8001a40:	88c5      	ldrh	r5, [r0, #6]
			gfx_object->location.x_min = x;
 8001a42:	8181      	strh	r1, [r0, #12]
			int16_t offset = -y;
 8001a44:	b293      	uxth	r3, r2
			gfx_object->image.size_y -= offset;
 8001a46:	441d      	add	r5, r3
			gfx_object->location.y_max = 240 - offset;
 8001a48:	f103 0ef0 	add.w	lr, r3, #240	@ 0xf0
			int16_t offset = -y;
 8001a4c:	425c      	negs	r4, r3
			gfx_object->image.size_y -= offset;
 8001a4e:	b2ab      	uxth	r3, r5
			gfx_object->location.x_max = gfx_object->location.x_min + gfx_object->image.size_x;
 8001a50:	8885      	ldrh	r5, [r0, #4]
			gfx_object->image.size_y -= offset;
 8001a52:	80c3      	strh	r3, [r0, #6]
			gfx_object->image.image_array += offset * gfx_object->image.size_x;
 8001a54:	b224      	sxth	r4, r4
			gfx_object->image.size = gfx_object->image.size_x * gfx_object->image.size_y;
 8001a56:	fb05 f303 	mul.w	r3, r5, r3
			gfx_object->image.image_array += offset * gfx_object->image.size_x;
 8001a5a:	fb05 f404 	mul.w	r4, r5, r4
			gfx_object->location.y_max = 240 - offset;
 8001a5e:	fa0f fe8e 	sxth.w	lr, lr
			gfx_object->image.size = gfx_object->image.size_x * gfx_object->image.size_y;
 8001a62:	6083      	str	r3, [r0, #8]
			gfx_object->location.x_max = gfx_object->location.x_min + gfx_object->image.size_x;
 8001a64:	186b      	adds	r3, r5, r1
			gfx_object->image.image_array += offset * gfx_object->image.size_x;
 8001a66:	6805      	ldr	r5, [r0, #0]
			gfx_object->location.y_max = 240 - offset;
 8001a68:	f8a0 e012 	strh.w	lr, [r0, #18]
			gfx_object->location.y_center = (gfx_object->location.y_min + gfx_object->location.y_max) / 2;
 8001a6c:	eb0e 7cde 	add.w	ip, lr, lr, lsr #31
			gfx_object->image.image_array += offset * gfx_object->image.size_x;
 8001a70:	eb05 0544 	add.w	r5, r5, r4, lsl #1
			gfx_object->location.y_min = 0;
 8001a74:	2200      	movs	r2, #0
			gfx_object->location.y_center = (gfx_object->location.y_min + gfx_object->location.y_max) / 2;
 8001a76:	ea4f 0c6c 	mov.w	ip, ip, asr #1
			gfx_object->location.x_max = gfx_object->location.x_min + gfx_object->image.size_x;
 8001a7a:	b21b      	sxth	r3, r3
	gfx_object->location_old.x_center = gfx_object->location.x_center;
 8001a7c:	f9b0 4014 	ldrsh.w	r4, [r0, #20]
			gfx_object->location.y_min = 0;
 8001a80:	81c2      	strh	r2, [r0, #14]
			gfx_object->location.y_center = (gfx_object->location.y_min + gfx_object->location.y_max) / 2;
 8001a82:	f8a0 c016 	strh.w	ip, [r0, #22]
			gfx_object->location.x_max = gfx_object->location.x_min + gfx_object->image.size_x;
 8001a86:	8203      	strh	r3, [r0, #16]
			gfx_object->image.image_array += offset * gfx_object->image.size_x;
 8001a88:	6005      	str	r5, [r0, #0]
	gfx_object->location_old.x_center = gfx_object->location.x_center;
 8001a8a:	8404      	strh	r4, [r0, #32]
	gfx_object->location_old.x_min = gfx_object->location.x_min;
 8001a8c:	2400      	movs	r4, #0
 8001a8e:	4625      	mov	r5, r4
 8001a90:	f363 050f 	bfi	r5, r3, #0, #16
 8001a94:	f361 040f 	bfi	r4, r1, #0, #16
 8001a98:	f362 441f 	bfi	r4, r2, #16, #16
 8001a9c:	f36e 451f 	bfi	r5, lr, #16, #16
 8001aa0:	e9c0 4506 	strd	r4, r5, [r0, #24]
	gfx_object->location_old.y_center = gfx_object->location.y_center;
 8001aa4:	f8a0 c022 	strh.w	ip, [r0, #34]	@ 0x22
 8001aa8:	2001      	movs	r0, #1
}
 8001aaa:	bdf0      	pop	{r4, r5, r6, r7, pc}
 8001aac:	20000250 	.word	0x20000250
 8001ab0:	200001b8 	.word	0x200001b8
 8001ab4:	20000120 	.word	0x20000120

08001ab8 <GFX_set_gfx_object_location>:
	if( ( x >= restrictions->X_MIN ) &&
 8001ab8:	8e03      	ldrh	r3, [r0, #48]	@ 0x30
 8001aba:	4299      	cmp	r1, r3
{
 8001abc:	b570      	push	{r4, r5, r6, lr}
	if( ( x >= restrictions->X_MIN ) &&
 8001abe:	db26      	blt.n	8001b0e <GFX_set_gfx_object_location+0x56>
		( x <= restrictions->X_MAX ) &&
 8001ac0:	8e43      	ldrh	r3, [r0, #50]	@ 0x32
	if( ( x >= restrictions->X_MIN ) &&
 8001ac2:	4299      	cmp	r1, r3
 8001ac4:	dc23      	bgt.n	8001b0e <GFX_set_gfx_object_location+0x56>
		( y >= restrictions->Y_MIN ) &&
 8001ac6:	8ec3      	ldrh	r3, [r0, #54]	@ 0x36
		( x <= restrictions->X_MAX ) &&
 8001ac8:	429a      	cmp	r2, r3
 8001aca:	db20      	blt.n	8001b0e <GFX_set_gfx_object_location+0x56>
		( y <= restrictions->Y_MAX )    )
 8001acc:	8f03      	ldrh	r3, [r0, #56]	@ 0x38
		( y >= restrictions->Y_MIN ) &&
 8001ace:	429a      	cmp	r2, r3
 8001ad0:	dc26      	bgt.n	8001b20 <GFX_set_gfx_object_location+0x68>
        gfx_object->location.x_max = gfx_object->location.x_min + gfx_object->image.size_x;
 8001ad2:	8886      	ldrh	r6, [r0, #4]
        gfx_object->location.y_max = gfx_object->location.y_min + gfx_object->image.size_y;
 8001ad4:	f8b0 e006 	ldrh.w	lr, [r0, #6]
        gfx_object->location.x_min = x;
 8001ad8:	2400      	movs	r4, #0
        gfx_object->location.x_max = gfx_object->location.x_min + gfx_object->image.size_x;
 8001ada:	fa1f fc81 	uxth.w	ip, r1
        gfx_object->location.x_min = x;
 8001ade:	4625      	mov	r5, r4
 8001ae0:	f361 040f 	bfi	r4, r1, #0, #16
        gfx_object->location.y_max = gfx_object->location.y_min + gfx_object->image.size_y;
 8001ae4:	b293      	uxth	r3, r2
        gfx_object->location.x_min = x;
 8001ae6:	f362 441f 	bfi	r4, r2, #16, #16
        gfx_object->location.x_max = gfx_object->location.x_min + gfx_object->image.size_x;
 8001aea:	eb0c 0206 	add.w	r2, ip, r6
        gfx_object->location.x_min = x;
 8001aee:	f362 050f 	bfi	r5, r2, #0, #16
        gfx_object->location.y_center = gfx_object->location.y_min + gfx_object->image.size_y / 2;
 8001af2:	eb03 025e 	add.w	r2, r3, lr, lsr #1
        gfx_object->location.y_max = gfx_object->location.y_min + gfx_object->image.size_y;
 8001af6:	4473      	add	r3, lr
        gfx_object->location.x_center = gfx_object->location.x_min + gfx_object->image.size_x / 2;
 8001af8:	eb0c 0c56 	add.w	ip, ip, r6, lsr #1
        gfx_object->location.x_min = x;
 8001afc:	f363 451f 	bfi	r5, r3, #16, #16
 8001b00:	60c4      	str	r4, [r0, #12]
        gfx_object->location.x_center = gfx_object->location.x_min + gfx_object->image.size_x / 2;
 8001b02:	f8a0 c014 	strh.w	ip, [r0, #20]
        gfx_object->location.x_min = x;
 8001b06:	6105      	str	r5, [r0, #16]
        gfx_object->location.y_center = gfx_object->location.y_min + gfx_object->image.size_y / 2;
 8001b08:	82c2      	strh	r2, [r0, #22]
        return 1; // Placement successful
 8001b0a:	2001      	movs	r0, #1
			return 1; // placement of obstacle successful
		}
		
		return 0;	// Placement not successful
    }
}
 8001b0c:	bd70      	pop	{r4, r5, r6, pc}
		if((gfx_object == &obstacle_pair1.top || gfx_object == &obstacle_pair2.top || gfx_object == &obstacle_pair3.top) && y < 0)
 8001b0e:	4b17      	ldr	r3, [pc, #92]	@ (8001b6c <GFX_set_gfx_object_location+0xb4>)
 8001b10:	4298      	cmp	r0, r3
 8001b12:	d007      	beq.n	8001b24 <GFX_set_gfx_object_location+0x6c>
 8001b14:	4b16      	ldr	r3, [pc, #88]	@ (8001b70 <GFX_set_gfx_object_location+0xb8>)
 8001b16:	4298      	cmp	r0, r3
 8001b18:	d004      	beq.n	8001b24 <GFX_set_gfx_object_location+0x6c>
 8001b1a:	4b16      	ldr	r3, [pc, #88]	@ (8001b74 <GFX_set_gfx_object_location+0xbc>)
 8001b1c:	4298      	cmp	r0, r3
 8001b1e:	d001      	beq.n	8001b24 <GFX_set_gfx_object_location+0x6c>
		return 0;	// Placement not successful
 8001b20:	2000      	movs	r0, #0
}
 8001b22:	bd70      	pop	{r4, r5, r6, pc}
		if((gfx_object == &obstacle_pair1.top || gfx_object == &obstacle_pair2.top || gfx_object == &obstacle_pair3.top) && y < 0)
 8001b24:	2a00      	cmp	r2, #0
 8001b26:	dafb      	bge.n	8001b20 <GFX_set_gfx_object_location+0x68>
			int16_t offset = -y;
 8001b28:	b292      	uxth	r2, r2
			gfx_object->location.y_max = 240 - offset;
 8001b2a:	f102 03f0 	add.w	r3, r2, #240	@ 0xf0
 8001b2e:	b21b      	sxth	r3, r3
 8001b30:	8243      	strh	r3, [r0, #18]
			gfx_object->location.y_center = (gfx_object->location.y_min + gfx_object->location.y_max) / 2;
 8001b32:	eb03 7cd3 	add.w	ip, r3, r3, lsr #31
			gfx_object->location.x_max = gfx_object->location.x_min + gfx_object->image.size_x;
 8001b36:	8883      	ldrh	r3, [r0, #4]
			gfx_object->location.x_min = x;
 8001b38:	8181      	strh	r1, [r0, #12]
			gfx_object->location.x_max = gfx_object->location.x_min + gfx_object->image.size_x;
 8001b3a:	4419      	add	r1, r3
 8001b3c:	8201      	strh	r1, [r0, #16]
			gfx_object->location.y_min = 0;
 8001b3e:	2400      	movs	r4, #0
			int16_t offset = -y;
 8001b40:	4251      	negs	r1, r2
			gfx_object->location.y_min = 0;
 8001b42:	81c4      	strh	r4, [r0, #14]
			gfx_object->image.image_array += offset * gfx_object->image.size_x;
 8001b44:	b209      	sxth	r1, r1
 8001b46:	6804      	ldr	r4, [r0, #0]
 8001b48:	fb03 f101 	mul.w	r1, r3, r1
 8001b4c:	eb04 0141 	add.w	r1, r4, r1, lsl #1
			gfx_object->image.size_y -= offset;
 8001b50:	88c4      	ldrh	r4, [r0, #6]
			gfx_object->image.image_array += offset * gfx_object->image.size_x;
 8001b52:	6001      	str	r1, [r0, #0]
			gfx_object->image.size_y -= offset;
 8001b54:	4422      	add	r2, r4
 8001b56:	b292      	uxth	r2, r2
			gfx_object->location.y_center = (gfx_object->location.y_min + gfx_object->location.y_max) / 2;
 8001b58:	ea4f 0c6c 	mov.w	ip, ip, asr #1
			gfx_object->image.size = gfx_object->image.size_x * gfx_object->image.size_y;
 8001b5c:	fb02 f303 	mul.w	r3, r2, r3
			gfx_object->location.y_center = (gfx_object->location.y_min + gfx_object->location.y_max) / 2;
 8001b60:	f8a0 c016 	strh.w	ip, [r0, #22]
			gfx_object->image.size_y -= offset;
 8001b64:	80c2      	strh	r2, [r0, #6]
			gfx_object->image.size = gfx_object->image.size_x * gfx_object->image.size_y;
 8001b66:	6083      	str	r3, [r0, #8]
        return 1; // Placement successful
 8001b68:	2001      	movs	r0, #1
}
 8001b6a:	bd70      	pop	{r4, r5, r6, pc}
 8001b6c:	20000250 	.word	0x20000250
 8001b70:	200001b8 	.word	0x200001b8
 8001b74:	20000120 	.word	0x20000120

08001b78 <GFX_set_gfx_object_velocity>:



void GFX_set_gfx_object_velocity(graphic_object_t *gfx_object, int8_t velocity_x, int8_t velocity_y)
{
	gfx_object->velocity.x = velocity_x;
 8001b78:	f880 1048 	strb.w	r1, [r0, #72]	@ 0x48
	gfx_object->velocity.y = velocity_y;
 8001b7c:	f880 2049 	strb.w	r2, [r0, #73]	@ 0x49
}
 8001b80:	4770      	bx	lr
 8001b82:	bf00      	nop

08001b84 <GFX_bounce_moving_object_from_edge>:

	// determine the location of the bounced object


		// considering max restrictions
		dx = gfx_object->location_new.x_min - gfx_object->top_left_limits.X_MAX;
 8001b84:	f9b0 1024 	ldrsh.w	r1, [r0, #36]	@ 0x24
		if( dx >= 0 )
		{
			// calculate the coordinate of the bounced object
			x = gfx_object->location_new.x_min - 2*dx;
			y = gfx_object->location_new.y_min;
 8001b88:	f9b0 3026 	ldrsh.w	r3, [r0, #38]	@ 0x26
{
 8001b8c:	b5f0      	push	{r4, r5, r6, r7, lr}
		dx = gfx_object->location_new.x_min - gfx_object->top_left_limits.X_MAX;
 8001b8e:	8e44      	ldrh	r4, [r0, #50]	@ 0x32
		}
		else
		{
			// consdering min restrictions

			dx = gfx_object->location_new.x_min - gfx_object->top_left_limits.X_MIN;
 8001b90:	8e05      	ldrh	r5, [r0, #48]	@ 0x30
		dx = gfx_object->location_new.x_min - gfx_object->top_left_limits.X_MAX;
 8001b92:	fa1f fc81 	uxth.w	ip, r1
 8001b96:	ebac 0e04 	sub.w	lr, ip, r4
		if( dx >= 0 )
 8001b9a:	f41e 4f00 	tst.w	lr, #32768	@ 0x8000
 8001b9e:	d17b      	bne.n	8001c98 <GFX_bounce_moving_object_from_edge+0x114>
			x = gfx_object->location_new.x_min - 2*dx;
 8001ba0:	fa1f f78e 	uxth.w	r7, lr
 8001ba4:	ebac 0c47 	sub.w	ip, ip, r7, lsl #1
				// calculate the coordinate of the bounced object
				x = gfx_object->location_new.x_min - 2*dx;
				y = gfx_object->location_new.y_min;

				// change the direction of the velocity component
				GFX_set_gfx_object_velocity( gfx_object, -gfx_object->velocity.x, gfx_object->velocity.y);
 8001ba8:	f890 2048 	ldrb.w	r2, [r0, #72]	@ 0x48
 8001bac:	4252      	negs	r2, r2
	gfx_object->velocity.x = velocity_x;
 8001bae:	f880 2048 	strb.w	r2, [r0, #72]	@ 0x48
				x = gfx_object->location_new.x_min - 2*dx;
 8001bb2:	fa0f f68c 	sxth.w	r6, ip
				y = gfx_object->location_new.y_min;
 8001bb6:	461a      	mov	r2, r3
		}



		// considering max restrictions
		dy = gfx_object->location_new.y_min - gfx_object->top_left_limits.Y_MAX;
 8001bb8:	f8b0 e038 	ldrh.w	lr, [r0, #56]	@ 0x38
 8001bbc:	b29b      	uxth	r3, r3
 8001bbe:	eba3 0c0e 	sub.w	ip, r3, lr
		if( dy >= 0 )
 8001bc2:	f41c 4f00 	tst.w	ip, #32768	@ 0x8000
		dy = gfx_object->location_new.y_min - gfx_object->top_left_limits.Y_MAX;
 8001bc6:	fa1f f78c 	uxth.w	r7, ip
		if( dy >= 0 )
 8001bca:	d159      	bne.n	8001c80 <GFX_bounce_moving_object_from_edge+0xfc>
		{
			// calculate the coordinate of the bounced object
			x = gfx_object->location_new.x_min;
			y = gfx_object->location_new.y_min - 2*dy;
 8001bcc:	eba3 0347 	sub.w	r3, r3, r7, lsl #1
 8001bd0:	b21a      	sxth	r2, r3


			// change the direction of the velocity component
			GFX_set_gfx_object_velocity( gfx_object, gfx_object->velocity.x, -gfx_object->velocity.y);
 8001bd2:	f890 3049 	ldrb.w	r3, [r0, #73]	@ 0x49
 8001bd6:	425b      	negs	r3, r3
	gfx_object->velocity.y = velocity_y;
 8001bd8:	f880 3049 	strb.w	r3, [r0, #73]	@ 0x49
	if( ( x >= restrictions->X_MIN ) &&
 8001bdc:	42a9      	cmp	r1, r5
 8001bde:	db22      	blt.n	8001c26 <GFX_bounce_moving_object_from_edge+0xa2>
 8001be0:	42a1      	cmp	r1, r4
 8001be2:	dc20      	bgt.n	8001c26 <GFX_bounce_moving_object_from_edge+0xa2>
		( y >= restrictions->Y_MIN ) &&
 8001be4:	8ec3      	ldrh	r3, [r0, #54]	@ 0x36
		( x <= restrictions->X_MAX ) &&
 8001be6:	429a      	cmp	r2, r3
 8001be8:	db1d      	blt.n	8001c26 <GFX_bounce_moving_object_from_edge+0xa2>
		( y >= restrictions->Y_MIN ) &&
 8001bea:	4572      	cmp	r2, lr
 8001bec:	dc24      	bgt.n	8001c38 <GFX_bounce_moving_object_from_edge+0xb4>
        gfx_object->location.x_max = gfx_object->location.x_min + gfx_object->image.size_x;
 8001bee:	f8b0 c004 	ldrh.w	ip, [r0, #4]
        gfx_object->location.y_max = gfx_object->location.y_min + gfx_object->image.size_y;
 8001bf2:	88c7      	ldrh	r7, [r0, #6]
        gfx_object->location.x_min = x;
 8001bf4:	2500      	movs	r5, #0
        gfx_object->location.x_max = gfx_object->location.x_min + gfx_object->image.size_x;
 8001bf6:	b28c      	uxth	r4, r1
        gfx_object->location.x_min = x;
 8001bf8:	462e      	mov	r6, r5
 8001bfa:	f361 050f 	bfi	r5, r1, #0, #16
        gfx_object->location.y_max = gfx_object->location.y_min + gfx_object->image.size_y;
 8001bfe:	b293      	uxth	r3, r2
        gfx_object->location.x_min = x;
 8001c00:	f362 451f 	bfi	r5, r2, #16, #16
        gfx_object->location.x_max = gfx_object->location.x_min + gfx_object->image.size_x;
 8001c04:	eb04 020c 	add.w	r2, r4, ip
        gfx_object->location.x_min = x;
 8001c08:	f362 060f 	bfi	r6, r2, #0, #16
        gfx_object->location.y_center = gfx_object->location.y_min + gfx_object->image.size_y / 2;
 8001c0c:	eb03 0257 	add.w	r2, r3, r7, lsr #1
        gfx_object->location.y_max = gfx_object->location.y_min + gfx_object->image.size_y;
 8001c10:	443b      	add	r3, r7
        gfx_object->location.x_center = gfx_object->location.x_min + gfx_object->image.size_x / 2;
 8001c12:	eb04 045c 	add.w	r4, r4, ip, lsr #1
        gfx_object->location.x_min = x;
 8001c16:	f363 461f 	bfi	r6, r3, #16, #16
 8001c1a:	60c5      	str	r5, [r0, #12]
        gfx_object->location.x_center = gfx_object->location.x_min + gfx_object->image.size_x / 2;
 8001c1c:	8284      	strh	r4, [r0, #20]
        gfx_object->location.x_min = x;
 8001c1e:	6106      	str	r6, [r0, #16]
        gfx_object->location.y_center = gfx_object->location.y_min + gfx_object->image.size_y / 2;
 8001c20:	82c2      	strh	r2, [r0, #22]
        return 1; // Placement successful
 8001c22:	2001      	movs	r0, #1


	// place the bounced object in this new location
	return GFX_set_gfx_object_location(gfx_object, x, y);

}
 8001c24:	bdf0      	pop	{r4, r5, r6, r7, pc}
		if((gfx_object == &obstacle_pair1.top || gfx_object == &obstacle_pair2.top || gfx_object == &obstacle_pair3.top) && y < 0)
 8001c26:	4b27      	ldr	r3, [pc, #156]	@ (8001cc4 <GFX_bounce_moving_object_from_edge+0x140>)
 8001c28:	4298      	cmp	r0, r3
 8001c2a:	d007      	beq.n	8001c3c <GFX_bounce_moving_object_from_edge+0xb8>
 8001c2c:	4b26      	ldr	r3, [pc, #152]	@ (8001cc8 <GFX_bounce_moving_object_from_edge+0x144>)
 8001c2e:	4298      	cmp	r0, r3
 8001c30:	d004      	beq.n	8001c3c <GFX_bounce_moving_object_from_edge+0xb8>
 8001c32:	4b26      	ldr	r3, [pc, #152]	@ (8001ccc <GFX_bounce_moving_object_from_edge+0x148>)
 8001c34:	4298      	cmp	r0, r3
 8001c36:	d001      	beq.n	8001c3c <GFX_bounce_moving_object_from_edge+0xb8>
		return 0;	// Placement not successful
 8001c38:	2000      	movs	r0, #0
}
 8001c3a:	bdf0      	pop	{r4, r5, r6, r7, pc}
		if((gfx_object == &obstacle_pair1.top || gfx_object == &obstacle_pair2.top || gfx_object == &obstacle_pair3.top) && y < 0)
 8001c3c:	2a00      	cmp	r2, #0
 8001c3e:	dafb      	bge.n	8001c38 <GFX_bounce_moving_object_from_edge+0xb4>
			int16_t offset = -y;
 8001c40:	b292      	uxth	r2, r2
			gfx_object->location.y_max = 240 - offset;
 8001c42:	f102 03f0 	add.w	r3, r2, #240	@ 0xf0
 8001c46:	b21b      	sxth	r3, r3
 8001c48:	8243      	strh	r3, [r0, #18]
			gfx_object->location.y_center = (gfx_object->location.y_min + gfx_object->location.y_max) / 2;
 8001c4a:	eb03 74d3 	add.w	r4, r3, r3, lsr #31
			gfx_object->location.x_max = gfx_object->location.x_min + gfx_object->image.size_x;
 8001c4e:	8883      	ldrh	r3, [r0, #4]
			gfx_object->location.x_min = x;
 8001c50:	8181      	strh	r1, [r0, #12]
			gfx_object->location.x_max = gfx_object->location.x_min + gfx_object->image.size_x;
 8001c52:	4419      	add	r1, r3
 8001c54:	8201      	strh	r1, [r0, #16]
			gfx_object->location.y_center = (gfx_object->location.y_min + gfx_object->location.y_max) / 2;
 8001c56:	1064      	asrs	r4, r4, #1
			int16_t offset = -y;
 8001c58:	4251      	negs	r1, r2
			gfx_object->location.y_center = (gfx_object->location.y_min + gfx_object->location.y_max) / 2;
 8001c5a:	82c4      	strh	r4, [r0, #22]
			gfx_object->image.image_array += offset * gfx_object->image.size_x;
 8001c5c:	b209      	sxth	r1, r1
 8001c5e:	6804      	ldr	r4, [r0, #0]
 8001c60:	fb03 f101 	mul.w	r1, r3, r1
 8001c64:	eb04 0441 	add.w	r4, r4, r1, lsl #1
			gfx_object->image.size_y -= offset;
 8001c68:	88c1      	ldrh	r1, [r0, #6]
			gfx_object->image.image_array += offset * gfx_object->image.size_x;
 8001c6a:	6004      	str	r4, [r0, #0]
			gfx_object->image.size_y -= offset;
 8001c6c:	440a      	add	r2, r1
 8001c6e:	b292      	uxth	r2, r2
			gfx_object->location.y_min = 0;
 8001c70:	2500      	movs	r5, #0
			gfx_object->image.size = gfx_object->image.size_x * gfx_object->image.size_y;
 8001c72:	fb02 f303 	mul.w	r3, r2, r3
			gfx_object->location.y_min = 0;
 8001c76:	81c5      	strh	r5, [r0, #14]
			gfx_object->image.size_y -= offset;
 8001c78:	80c2      	strh	r2, [r0, #6]
			gfx_object->image.size = gfx_object->image.size_x * gfx_object->image.size_y;
 8001c7a:	6083      	str	r3, [r0, #8]
        return 1; // Placement successful
 8001c7c:	2001      	movs	r0, #1
}
 8001c7e:	bdf0      	pop	{r4, r5, r6, r7, pc}
			dy = gfx_object->location_new.y_min - gfx_object->top_left_limits.Y_MIN;
 8001c80:	f8b0 c036 	ldrh.w	ip, [r0, #54]	@ 0x36
 8001c84:	eba3 0c0c 	sub.w	ip, r3, ip
			if( dy <= 0 )
 8001c88:	fa0f f78c 	sxth.w	r7, ip
 8001c8c:	2f00      	cmp	r7, #0
			dy = gfx_object->location_new.y_min - gfx_object->top_left_limits.Y_MIN;
 8001c8e:	fa1f fc8c 	uxth.w	ip, ip
			if( dy <= 0 )
 8001c92:	dd0e      	ble.n	8001cb2 <GFX_bounce_moving_object_from_edge+0x12e>
 8001c94:	4631      	mov	r1, r6
 8001c96:	e7a1      	b.n	8001bdc <GFX_bounce_moving_object_from_edge+0x58>
			dx = gfx_object->location_new.x_min - gfx_object->top_left_limits.X_MIN;
 8001c98:	ebac 0e05 	sub.w	lr, ip, r5
			if( dx <= 0 )
 8001c9c:	fa0f f78e 	sxth.w	r7, lr
 8001ca0:	2600      	movs	r6, #0
 8001ca2:	2f00      	cmp	r7, #0
 8001ca4:	4632      	mov	r2, r6
			dx = gfx_object->location_new.x_min - gfx_object->top_left_limits.X_MIN;
 8001ca6:	fa1f fe8e 	uxth.w	lr, lr
			if( dx <= 0 )
 8001caa:	dc85      	bgt.n	8001bb8 <GFX_bounce_moving_object_from_edge+0x34>
				x = gfx_object->location_new.x_min - 2*dx;
 8001cac:	ebac 0c4e 	sub.w	ip, ip, lr, lsl #1
 8001cb0:	e77a      	b.n	8001ba8 <GFX_bounce_moving_object_from_edge+0x24>
				y = gfx_object->location_new.y_min - 2*dy;
 8001cb2:	eba3 034c 	sub.w	r3, r3, ip, lsl #1
 8001cb6:	b21a      	sxth	r2, r3
				GFX_set_gfx_object_velocity( gfx_object, gfx_object->velocity.x, -gfx_object->velocity.y);
 8001cb8:	f890 3049 	ldrb.w	r3, [r0, #73]	@ 0x49
 8001cbc:	425b      	negs	r3, r3
	gfx_object->velocity.y = velocity_y;
 8001cbe:	f880 3049 	strb.w	r3, [r0, #73]	@ 0x49
}
 8001cc2:	e78b      	b.n	8001bdc <GFX_bounce_moving_object_from_edge+0x58>
 8001cc4:	20000250 	.word	0x20000250
 8001cc8:	200001b8 	.word	0x200001b8
 8001ccc:	20000120 	.word	0x20000120

08001cd0 <GFX_update_moving_gfx_object_location>:
{
 8001cd0:	b530      	push	{r4, r5, lr}
	gfx_object->location_old.x_min = gfx_object->location.x_min;
 8001cd2:	6902      	ldr	r2, [r0, #16]
 8001cd4:	61c2      	str	r2, [r0, #28]
	GFX_move_location(  &gfx_object->location, &gfx_object->location_new, gfx_object->velocity.x, -gfx_object->velocity.y );
 8001cd6:	f990 2049 	ldrsb.w	r2, [r0, #73]	@ 0x49
	gfx_object->location_old.y_max = gfx_object->location.y_max;
 8001cda:	f9b0 3012 	ldrsh.w	r3, [r0, #18]
	gfx_object->location_old.x_max = gfx_object->location.x_max;
 8001cde:	f9b0 c010 	ldrsh.w	ip, [r0, #16]
	gfx_object->location_old.x_center = gfx_object->location.x_center;
 8001ce2:	f9b0 4014 	ldrsh.w	r4, [r0, #20]
	gfx_object->location_old.y_min = gfx_object->location.y_min;
 8001ce6:	f9b0 100e 	ldrsh.w	r1, [r0, #14]
	gfx_object->location_old.x_min = gfx_object->location.x_min;
 8001cea:	f9b0 e00c 	ldrsh.w	lr, [r0, #12]
	if( ( x >= restrictions->X_MIN ) &&
 8001cee:	8e05      	ldrh	r5, [r0, #48]	@ 0x30
	GFX_move_location(  &gfx_object->location, &gfx_object->location_new, gfx_object->velocity.x, -gfx_object->velocity.y );
 8001cf0:	b292      	uxth	r2, r2
	location_new->y_max 	= location->y_max + dy;
 8001cf2:	1a9b      	subs	r3, r3, r2
 8001cf4:	8543      	strh	r3, [r0, #42]	@ 0x2a
	location_new->x_min 	= location->x_min + dx;
 8001cf6:	f990 3048 	ldrsb.w	r3, [r0, #72]	@ 0x48
 8001cfa:	b29b      	uxth	r3, r3
	location_new->x_max 	= location->x_max + dx;
 8001cfc:	449c      	add	ip, r3
 8001cfe:	f8a0 c028 	strh.w	ip, [r0, #40]	@ 0x28
	gfx_object->location_old.y_center = gfx_object->location.y_center;
 8001d02:	f9b0 c016 	ldrsh.w	ip, [r0, #22]
	location_new->x_min 	= location->x_min + dx;
 8001d06:	449e      	add	lr, r3
	location_new->y_center 	= location->y_center + dy;
 8001d08:	ebac 0c02 	sub.w	ip, ip, r2
	location_new->x_center 	= location->x_center + dx;
 8001d0c:	4423      	add	r3, r4
	location_new->y_min 	= location->y_min + dy;
 8001d0e:	b289      	uxth	r1, r1
	gfx_object->location_old.x_min = gfx_object->location.x_min;
 8001d10:	6944      	ldr	r4, [r0, #20]
	location_new->x_center 	= location->x_center + dx;
 8001d12:	8583      	strh	r3, [r0, #44]	@ 0x2c
	location_new->y_center 	= location->y_center + dy;
 8001d14:	f8a0 c02e 	strh.w	ip, [r0, #46]	@ 0x2e
 8001d18:	1a8b      	subs	r3, r1, r2
	location_new->x_min 	= location->x_min + dx;
 8001d1a:	fa0f fc8e 	sxth.w	ip, lr
	gfx_object->location_old.x_min = gfx_object->location.x_min;
 8001d1e:	6204      	str	r4, [r0, #32]
 8001d20:	68c4      	ldr	r4, [r0, #12]
 8001d22:	6184      	str	r4, [r0, #24]
	if( ( x >= restrictions->X_MIN ) &&
 8001d24:	45ac      	cmp	ip, r5
	location_new->x_min 	= location->x_min + dx;
 8001d26:	fa1f f48e 	uxth.w	r4, lr
	location_new->y_min 	= location->y_min + dy;
 8001d2a:	fa0f fe83 	sxth.w	lr, r3
	location_new->x_min 	= location->x_min + dx;
 8001d2e:	f8a0 c024 	strh.w	ip, [r0, #36]	@ 0x24
	location_new->y_min 	= location->y_min + dy;
 8001d32:	f8a0 e026 	strh.w	lr, [r0, #38]	@ 0x26
	if( ( x >= restrictions->X_MIN ) &&
 8001d36:	b29b      	uxth	r3, r3
 8001d38:	db1a      	blt.n	8001d70 <GFX_update_moving_gfx_object_location+0xa0>
		( x <= restrictions->X_MAX ) &&
 8001d3a:	8e45      	ldrh	r5, [r0, #50]	@ 0x32
	if( ( x >= restrictions->X_MIN ) &&
 8001d3c:	45ac      	cmp	ip, r5
 8001d3e:	dc17      	bgt.n	8001d70 <GFX_update_moving_gfx_object_location+0xa0>
		( y >= restrictions->Y_MIN ) &&
 8001d40:	8ec5      	ldrh	r5, [r0, #54]	@ 0x36
		( x <= restrictions->X_MAX ) &&
 8001d42:	45ae      	cmp	lr, r5
 8001d44:	db14      	blt.n	8001d70 <GFX_update_moving_gfx_object_location+0xa0>
		( y <= restrictions->Y_MAX )    )
 8001d46:	8f02      	ldrh	r2, [r0, #56]	@ 0x38
		( y >= restrictions->Y_MIN ) &&
 8001d48:	4596      	cmp	lr, r2
 8001d4a:	dc1a      	bgt.n	8001d82 <GFX_update_moving_gfx_object_location+0xb2>
        gfx_object->location.x_max = gfx_object->location.x_min + gfx_object->image.size_x;
 8001d4c:	8881      	ldrh	r1, [r0, #4]
        gfx_object->location.y_max = gfx_object->location.y_min + gfx_object->image.size_y;
 8001d4e:	88c2      	ldrh	r2, [r0, #6]
        gfx_object->location.x_min = x;
 8001d50:	f8a0 c00c 	strh.w	ip, [r0, #12]
        gfx_object->location.x_max = gfx_object->location.x_min + gfx_object->image.size_x;
 8001d54:	1865      	adds	r5, r4, r1
        gfx_object->location.x_center = gfx_object->location.x_min + gfx_object->image.size_x / 2;
 8001d56:	eb04 0151 	add.w	r1, r4, r1, lsr #1
        gfx_object->location.y_max = gfx_object->location.y_min + gfx_object->image.size_y;
 8001d5a:	189c      	adds	r4, r3, r2
        gfx_object->location.y_center = gfx_object->location.y_min + gfx_object->image.size_y / 2;
 8001d5c:	eb03 0252 	add.w	r2, r3, r2, lsr #1
        gfx_object->location.y_min = y;
 8001d60:	f8a0 e00e 	strh.w	lr, [r0, #14]
        gfx_object->location.x_max = gfx_object->location.x_min + gfx_object->image.size_x;
 8001d64:	8205      	strh	r5, [r0, #16]
        gfx_object->location.y_max = gfx_object->location.y_min + gfx_object->image.size_y;
 8001d66:	8244      	strh	r4, [r0, #18]
        gfx_object->location.x_center = gfx_object->location.x_min + gfx_object->image.size_x / 2;
 8001d68:	8281      	strh	r1, [r0, #20]
        gfx_object->location.y_center = gfx_object->location.y_min + gfx_object->image.size_y / 2;
 8001d6a:	82c2      	strh	r2, [r0, #22]
        return 1; // Placement successful
 8001d6c:	2001      	movs	r0, #1
}
 8001d6e:	bd30      	pop	{r4, r5, pc}
		if((gfx_object == &obstacle_pair1.top || gfx_object == &obstacle_pair2.top || gfx_object == &obstacle_pair3.top) && y < 0)
 8001d70:	4d1a      	ldr	r5, [pc, #104]	@ (8001ddc <GFX_update_moving_gfx_object_location+0x10c>)
 8001d72:	42a8      	cmp	r0, r5
 8001d74:	d00a      	beq.n	8001d8c <GFX_update_moving_gfx_object_location+0xbc>
 8001d76:	4d1a      	ldr	r5, [pc, #104]	@ (8001de0 <GFX_update_moving_gfx_object_location+0x110>)
 8001d78:	42a8      	cmp	r0, r5
 8001d7a:	d007      	beq.n	8001d8c <GFX_update_moving_gfx_object_location+0xbc>
 8001d7c:	4d19      	ldr	r5, [pc, #100]	@ (8001de4 <GFX_update_moving_gfx_object_location+0x114>)
 8001d7e:	42a8      	cmp	r0, r5
 8001d80:	d004      	beq.n	8001d8c <GFX_update_moving_gfx_object_location+0xbc>
		switch(gfx_object->edge_behavior)
 8001d82:	f890 304a 	ldrb.w	r3, [r0, #74]	@ 0x4a
 8001d86:	b32b      	cbz	r3, 8001dd4 <GFX_update_moving_gfx_object_location+0x104>
				return object_placement_successful;
 8001d88:	2000      	movs	r0, #0
}
 8001d8a:	bd30      	pop	{r4, r5, pc}
		if((gfx_object == &obstacle_pair1.top || gfx_object == &obstacle_pair2.top || gfx_object == &obstacle_pair3.top) && y < 0)
 8001d8c:	f1be 0f00 	cmp.w	lr, #0
 8001d90:	daf7      	bge.n	8001d82 <GFX_update_moving_gfx_object_location+0xb2>
			int16_t offset = -y;
 8001d92:	1a52      	subs	r2, r2, r1
			gfx_object->image.size_y -= offset;
 8001d94:	88c1      	ldrh	r1, [r0, #6]
			gfx_object->location.x_max = gfx_object->location.x_min + gfx_object->image.size_x;
 8001d96:	8885      	ldrh	r5, [r0, #4]
			gfx_object->location.x_min = x;
 8001d98:	f8a0 c00c 	strh.w	ip, [r0, #12]
			gfx_object->image.size_y -= offset;
 8001d9c:	4419      	add	r1, r3
			gfx_object->location.y_max = 240 - offset;
 8001d9e:	33f0      	adds	r3, #240	@ 0xf0
 8001da0:	b21b      	sxth	r3, r3
 8001da2:	8243      	strh	r3, [r0, #18]
			gfx_object->location.y_center = (gfx_object->location.y_min + gfx_object->location.y_max) / 2;
 8001da4:	eb03 73d3 	add.w	r3, r3, r3, lsr #31
 8001da8:	105b      	asrs	r3, r3, #1
 8001daa:	82c3      	strh	r3, [r0, #22]
			gfx_object->image.image_array += offset * gfx_object->image.size_x;
 8001dac:	b212      	sxth	r2, r2
 8001dae:	6803      	ldr	r3, [r0, #0]
 8001db0:	fb05 f202 	mul.w	r2, r5, r2
			gfx_object->image.size_y -= offset;
 8001db4:	b289      	uxth	r1, r1
			gfx_object->image.image_array += offset * gfx_object->image.size_x;
 8001db6:	eb03 0342 	add.w	r3, r3, r2, lsl #1
			gfx_object->location.x_max = gfx_object->location.x_min + gfx_object->image.size_x;
 8001dba:	eb04 0e05 	add.w	lr, r4, r5
			gfx_object->image.image_array += offset * gfx_object->image.size_x;
 8001dbe:	6003      	str	r3, [r0, #0]
			gfx_object->image.size = gfx_object->image.size_x * gfx_object->image.size_y;
 8001dc0:	fb01 f505 	mul.w	r5, r1, r5
			gfx_object->location.y_min = 0;
 8001dc4:	2300      	movs	r3, #0
			gfx_object->location.x_max = gfx_object->location.x_min + gfx_object->image.size_x;
 8001dc6:	f8a0 e010 	strh.w	lr, [r0, #16]
			gfx_object->image.size_y -= offset;
 8001dca:	80c1      	strh	r1, [r0, #6]
			gfx_object->image.size = gfx_object->image.size_x * gfx_object->image.size_y;
 8001dcc:	6085      	str	r5, [r0, #8]
			gfx_object->location.y_min = 0;
 8001dce:	81c3      	strh	r3, [r0, #14]
        return 1; // Placement successful
 8001dd0:	2001      	movs	r0, #1
}
 8001dd2:	bd30      	pop	{r4, r5, pc}
 8001dd4:	e8bd 4030 	ldmia.w	sp!, {r4, r5, lr}
				object_placement_successful = GFX_bounce_moving_object_from_edge(gfx_object);
 8001dd8:	f7ff bed4 	b.w	8001b84 <GFX_bounce_moving_object_from_edge>
 8001ddc:	20000250 	.word	0x20000250
 8001de0:	200001b8 	.word	0x200001b8
 8001de4:	20000120 	.word	0x20000120

08001de8 <GFX_get_object_movement_area>:



void GFX_get_object_movement_area(graphic_object_t *gfx_object, location_t *object_movement_area)
{
	object_movement_area->x_min = (gfx_object->location.x_min < gfx_object->location_old.x_min) ? gfx_object->location.x_min : gfx_object->location_old.x_min;
 8001de8:	f9b0 200c 	ldrsh.w	r2, [r0, #12]
	object_movement_area->y_min = (gfx_object->location.y_min < gfx_object->location_old.y_min) ? gfx_object->location.y_min : gfx_object->location_old.y_min;
 8001dec:	f9b0 301a 	ldrsh.w	r3, [r0, #26]

	object_movement_area->x_max = (gfx_object->location.x_max > gfx_object->location_old.x_max) ? gfx_object->location.x_max : gfx_object->location_old.x_max;
	object_movement_area->y_max = (gfx_object->location.y_max > gfx_object->location_old.y_max) ? gfx_object->location.y_max : gfx_object->location_old.y_max;
 8001df0:	f9b0 c01e 	ldrsh.w	ip, [r0, #30]
{
 8001df4:	b510      	push	{r4, lr}
	object_movement_area->x_min = (gfx_object->location.x_min < gfx_object->location_old.x_min) ? gfx_object->location.x_min : gfx_object->location_old.x_min;
 8001df6:	f9b0 e018 	ldrsh.w	lr, [r0, #24]
	object_movement_area->x_max = (gfx_object->location.x_max > gfx_object->location_old.x_max) ? gfx_object->location.x_max : gfx_object->location_old.x_max;
 8001dfa:	f9b0 4010 	ldrsh.w	r4, [r0, #16]
	object_movement_area->x_min = (gfx_object->location.x_min < gfx_object->location_old.x_min) ? gfx_object->location.x_min : gfx_object->location_old.x_min;
 8001dfe:	4596      	cmp	lr, r2
 8001e00:	bfa8      	it	ge
 8001e02:	4696      	movge	lr, r2
	object_movement_area->y_min = (gfx_object->location.y_min < gfx_object->location_old.y_min) ? gfx_object->location.y_min : gfx_object->location_old.y_min;
 8001e04:	f9b0 200e 	ldrsh.w	r2, [r0, #14]
 8001e08:	4293      	cmp	r3, r2
 8001e0a:	bfa8      	it	ge
 8001e0c:	4613      	movge	r3, r2
	object_movement_area->x_max = (gfx_object->location.x_max > gfx_object->location_old.x_max) ? gfx_object->location.x_max : gfx_object->location_old.x_max;
 8001e0e:	f9b0 201c 	ldrsh.w	r2, [r0, #28]
	object_movement_area->y_max = (gfx_object->location.y_max > gfx_object->location_old.y_max) ? gfx_object->location.y_max : gfx_object->location_old.y_max;
 8001e12:	f9b0 0012 	ldrsh.w	r0, [r0, #18]
	object_movement_area->x_max = (gfx_object->location.x_max > gfx_object->location_old.x_max) ? gfx_object->location.x_max : gfx_object->location_old.x_max;
 8001e16:	42a2      	cmp	r2, r4
 8001e18:	bfb8      	it	lt
 8001e1a:	4622      	movlt	r2, r4
	object_movement_area->y_max = (gfx_object->location.y_max > gfx_object->location_old.y_max) ? gfx_object->location.y_max : gfx_object->location_old.y_max;
 8001e1c:	4560      	cmp	r0, ip
 8001e1e:	bfb8      	it	lt
 8001e20:	4660      	movlt	r0, ip
	object_movement_area->x_min = (gfx_object->location.x_min < gfx_object->location_old.x_min) ? gfx_object->location.x_min : gfx_object->location_old.x_min;
 8001e22:	f04f 0c00 	mov.w	ip, #0
 8001e26:	4664      	mov	r4, ip
 8001e28:	f36e 0c0f 	bfi	ip, lr, #0, #16
 8001e2c:	f362 040f 	bfi	r4, r2, #0, #16
 8001e30:	f363 4c1f 	bfi	ip, r3, #16, #16


	object_movement_area->x_center = (object_movement_area->x_max - object_movement_area->x_min) / 2;
 8001e34:	eba2 020e 	sub.w	r2, r2, lr
	object_movement_area->y_center = (object_movement_area->y_max - object_movement_area->y_min) / 2;
 8001e38:	1ac3      	subs	r3, r0, r3
	object_movement_area->x_center = (object_movement_area->x_max - object_movement_area->x_min) / 2;
 8001e3a:	eb02 72d2 	add.w	r2, r2, r2, lsr #31
	object_movement_area->y_center = (object_movement_area->y_max - object_movement_area->y_min) / 2;
 8001e3e:	eb03 73d3 	add.w	r3, r3, r3, lsr #31
	object_movement_area->x_min = (gfx_object->location.x_min < gfx_object->location_old.x_min) ? gfx_object->location.x_min : gfx_object->location_old.x_min;
 8001e42:	f360 441f 	bfi	r4, r0, #16, #16
	object_movement_area->x_center = (object_movement_area->x_max - object_movement_area->x_min) / 2;
 8001e46:	1052      	asrs	r2, r2, #1
	object_movement_area->y_center = (object_movement_area->y_max - object_movement_area->y_min) / 2;
 8001e48:	105b      	asrs	r3, r3, #1
	object_movement_area->x_min = (gfx_object->location.x_min < gfx_object->location_old.x_min) ? gfx_object->location.x_min : gfx_object->location_old.x_min;
 8001e4a:	f8c1 c000 	str.w	ip, [r1]
 8001e4e:	604c      	str	r4, [r1, #4]
	object_movement_area->x_center = (object_movement_area->x_max - object_movement_area->x_min) / 2;
 8001e50:	810a      	strh	r2, [r1, #8]
	object_movement_area->y_center = (object_movement_area->y_max - object_movement_area->y_min) / 2;
 8001e52:	814b      	strh	r3, [r1, #10]
}
 8001e54:	bd10      	pop	{r4, pc}
 8001e56:	bf00      	nop

08001e58 <GFX_are_gfx_objects_overlapping>:


uint8_t GFX_are_locations_overlapping(location_t *location_A, location_t *location_B)
{

	if ( 	(location_A->x_min > location_B->x_max) ||	// Cond1. If A's left edge is to the right of the B's right edge, - then A is Totally to right Of B
 8001e58:	f9b0 200c 	ldrsh.w	r2, [r0, #12]
 8001e5c:	f9b1 3010 	ldrsh.w	r3, [r1, #16]
 8001e60:	429a      	cmp	r2, r3
 8001e62:	dc14      	bgt.n	8001e8e <GFX_are_gfx_objects_overlapping+0x36>
 8001e64:	f9b0 2010 	ldrsh.w	r2, [r0, #16]
 8001e68:	f9b1 300c 	ldrsh.w	r3, [r1, #12]
 8001e6c:	429a      	cmp	r2, r3
 8001e6e:	db0e      	blt.n	8001e8e <GFX_are_gfx_objects_overlapping+0x36>
			(location_A->x_max < location_B->x_min) ||	// Cond2. If A's right edge is to the left of the B's left edge, - then A is Totally to left Of B
 8001e70:	f9b0 2012 	ldrsh.w	r2, [r0, #18]
 8001e74:	f9b1 300e 	ldrsh.w	r3, [r1, #14]
 8001e78:	429a      	cmp	r2, r3
 8001e7a:	db08      	blt.n	8001e8e <GFX_are_gfx_objects_overlapping+0x36>
			(location_A->y_max < location_B->y_min) ||	// Cond3. If A's top edge is below B's bottom edge, - then A is Totally below B
 8001e7c:	f9b0 000e 	ldrsh.w	r0, [r0, #14]
 8001e80:	f9b1 3012 	ldrsh.w	r3, [r1, #18]
 8001e84:	4298      	cmp	r0, r3
 8001e86:	bfcc      	ite	gt
 8001e88:	2000      	movgt	r0, #0
 8001e8a:	2001      	movle	r0, #1
 8001e8c:	4770      	bx	lr
			(location_A->y_min > location_B->y_max) )		// Cond4. If A's bottom edge is above B's top edge, - then A is Totally above B
	{
		return 0;	// not overlapping
 8001e8e:	2000      	movs	r0, #0
uint8_t GFX_are_gfx_objects_overlapping(graphic_object_t *object_A, graphic_object_t *object_B)
{

	return GFX_are_locations_overlapping( &object_A->location, &object_B->location );

}
 8001e90:	4770      	bx	lr
 8001e92:	bf00      	nop

08001e94 <GFX_copy_image_part_to_partial_frame_buffer>:
}


void GFX_copy_image_part_to_partial_frame_buffer( image_object_t *image )
{
	GFX_get_image_part( image, partial_frame_buffer.location.x_min, partial_frame_buffer.location.y_min, partial_frame_buffer.image.size_x, partial_frame_buffer.image.size_y, partial_frame_buffer.image.image_array);
 8001e94:	4b2c      	ldr	r3, [pc, #176]	@ (8001f48 <GFX_copy_image_part_to_partial_frame_buffer+0xb4>)
	if(y + size_y > img->size_y)
 8001e96:	88c2      	ldrh	r2, [r0, #6]
	GFX_get_image_part( image, partial_frame_buffer.location.x_min, partial_frame_buffer.location.y_min, partial_frame_buffer.image.size_x, partial_frame_buffer.image.size_y, partial_frame_buffer.image.image_array);
 8001e98:	f9b3 c00e 	ldrsh.w	ip, [r3, #14]
{
 8001e9c:	e92d 4ff0 	stmdb	sp!, {r4, r5, r6, r7, r8, r9, sl, fp, lr}
	if(y + size_y > img->size_y)
 8001ea0:	88df      	ldrh	r7, [r3, #6]
 8001ea2:	4467      	add	r7, ip
 8001ea4:	4297      	cmp	r7, r2
 8001ea6:	dc4c      	bgt.n	8001f42 <GFX_copy_image_part_to_partial_frame_buffer+0xae>
	GFX_get_image_part( image, partial_frame_buffer.location.x_min, partial_frame_buffer.location.y_min, partial_frame_buffer.image.size_x, partial_frame_buffer.image.size_y, partial_frame_buffer.image.image_array);
 8001ea8:	f9b3 600c 	ldrsh.w	r6, [r3, #12]
	if(x + size_x > img->size_x)
 8001eac:	889c      	ldrh	r4, [r3, #4]
 8001eae:	8882      	ldrh	r2, [r0, #4]
 8001eb0:	4434      	add	r4, r6
 8001eb2:	4294      	cmp	r4, r2
 8001eb4:	dc45      	bgt.n	8001f42 <GFX_copy_image_part_to_partial_frame_buffer+0xae>
	for( uint16_t row = y; row < (y + size_y); row++ )
 8001eb6:	fa1f fc8c 	uxth.w	ip, ip
 8001eba:	4567      	cmp	r7, ip
 8001ebc:	dd41      	ble.n	8001f42 <GFX_copy_image_part_to_partial_frame_buffer+0xae>
	GFX_get_image_part( image, partial_frame_buffer.location.x_min, partial_frame_buffer.location.y_min, partial_frame_buffer.image.size_x, partial_frame_buffer.image.size_y, partial_frame_buffer.image.image_array);
 8001ebe:	f8d3 a000 	ldr.w	sl, [r3]
		for(uint16_t column = x; column < (x + size_x); column++ )
 8001ec2:	b2b6      	uxth	r6, r6
	uint32_t i = 0;
 8001ec4:	2100      	movs	r1, #0
 8001ec6:	f06f 4900 	mvn.w	r9, #2147483648	@ 0x80000000
		return IMG_TRANSPARENT_COLOR_CODE;
 8001eca:	f44f 68fc 	mov.w	r8, #2016	@ 0x7e0
		for(uint16_t column = x; column < (x + size_x); column++ )
 8001ece:	42b4      	cmp	r4, r6
 8001ed0:	dd31      	ble.n	8001f36 <GFX_copy_image_part_to_partial_frame_buffer+0xa2>
 8001ed2:	f41c 4f00 	tst.w	ip, #32768	@ 0x8000
 8001ed6:	d120      	bne.n	8001f1a <GFX_copy_image_part_to_partial_frame_buffer+0x86>
 8001ed8:	eb01 0e09 	add.w	lr, r1, r9
 8001edc:	eb0a 0e4e 	add.w	lr, sl, lr, lsl #1
 8001ee0:	4632      	mov	r2, r6
 8001ee2:	4633      	mov	r3, r6
 8001ee4:	e00b      	b.n	8001efe <GFX_copy_image_part_to_partial_frame_buffer+0x6a>
		return img->image_array[i];
 8001ee6:	6802      	ldr	r2, [r0, #0]
 8001ee8:	f832 2015 	ldrh.w	r2, [r2, r5, lsl #1]
			sub_image_array[i] = GFX_get_image_pixel(img, column, row);
 8001eec:	f82e 2f02 	strh.w	r2, [lr, #2]!
		for(uint16_t column = x; column < (x + size_x); column++ )
 8001ef0:	3301      	adds	r3, #1
 8001ef2:	b29b      	uxth	r3, r3
 8001ef4:	429c      	cmp	r4, r3
			i++;
 8001ef6:	f101 0101 	add.w	r1, r1, #1
		for(uint16_t column = x; column < (x + size_x); column++ )
 8001efa:	461a      	mov	r2, r3
 8001efc:	dd1b      	ble.n	8001f36 <GFX_copy_image_part_to_partial_frame_buffer+0xa2>
	if ( ( (x_img>=0) && (x_img < img->size_x) ) && ( (y_img>=0) && (y_img < img->size_y) ) )
 8001efe:	041d      	lsls	r5, r3, #16
 8001f00:	d408      	bmi.n	8001f14 <GFX_copy_image_part_to_partial_frame_buffer+0x80>
 8001f02:	f8b0 b004 	ldrh.w	fp, [r0, #4]
 8001f06:	4593      	cmp	fp, r2
		return img->image_array[i];
 8001f08:	fb0c 250b 	mla	r5, ip, fp, r2
	if ( ( (x_img>=0) && (x_img < img->size_x) ) && ( (y_img>=0) && (y_img < img->size_y) ) )
 8001f0c:	dd02      	ble.n	8001f14 <GFX_copy_image_part_to_partial_frame_buffer+0x80>
 8001f0e:	88c2      	ldrh	r2, [r0, #6]
 8001f10:	4562      	cmp	r2, ip
 8001f12:	d8e8      	bhi.n	8001ee6 <GFX_copy_image_part_to_partial_frame_buffer+0x52>
		return IMG_TRANSPARENT_COLOR_CODE;
 8001f14:	f44f 62fc 	mov.w	r2, #2016	@ 0x7e0
 8001f18:	e7e8      	b.n	8001eec <GFX_copy_image_part_to_partial_frame_buffer+0x58>
		for(uint16_t column = x; column < (x + size_x); column++ )
 8001f1a:	460a      	mov	r2, r1
 8001f1c:	1ab5      	subs	r5, r6, r2
 8001f1e:	4449      	add	r1, r9
 8001f20:	eb0a 0141 	add.w	r1, sl, r1, lsl #1
 8001f24:	b2ad      	uxth	r5, r5
			i++;
 8001f26:	3201      	adds	r2, #1
		for(uint16_t column = x; column < (x + size_x); column++ )
 8001f28:	18ab      	adds	r3, r5, r2
 8001f2a:	b29b      	uxth	r3, r3
 8001f2c:	429c      	cmp	r4, r3
			sub_image_array[i] = GFX_get_image_pixel(img, column, row);
 8001f2e:	f821 8f02 	strh.w	r8, [r1, #2]!
		for(uint16_t column = x; column < (x + size_x); column++ )
 8001f32:	dcf8      	bgt.n	8001f26 <GFX_copy_image_part_to_partial_frame_buffer+0x92>
			i++;
 8001f34:	4611      	mov	r1, r2
	for( uint16_t row = y; row < (y + size_y); row++ )
 8001f36:	f10c 0c01 	add.w	ip, ip, #1
 8001f3a:	fa1f fc8c 	uxth.w	ip, ip
 8001f3e:	4567      	cmp	r7, ip
 8001f40:	dcc5      	bgt.n	8001ece <GFX_copy_image_part_to_partial_frame_buffer+0x3a>
}
 8001f42:	e8bd 8ff0 	ldmia.w	sp!, {r4, r5, r6, r7, r8, r9, sl, fp, pc}
 8001f46:	bf00      	nop
 8001f48:	20000328 	.word	0x20000328

08001f4c <GFX_partial_frame_buffer_overlay_object>:




void GFX_partial_frame_buffer_overlay_object(graphic_object_t *object)
{
 8001f4c:	e92d 4ff0 	stmdb	sp!, {r4, r5, r6, r7, r8, r9, sl, fp, lr}


	// overlay the graphical object image over the part of the existing image in the partial frame buffer

	// go over all the required rows of the partial frame buffer image
	for( uint16_t y_abs = partial_frame_buffer.location.y_min; y_abs < partial_frame_buffer.location.y_max; y_abs++ )
 8001f50:	4e27      	ldr	r6, [pc, #156]	@ (8001ff0 <GFX_partial_frame_buffer_overlay_object+0xa4>)
 8001f52:	89f3      	ldrh	r3, [r6, #14]
 8001f54:	f9b6 2012 	ldrsh.w	r2, [r6, #18]
 8001f58:	429a      	cmp	r2, r3
 8001f5a:	dd47      	ble.n	8001fec <GFX_partial_frame_buffer_overlay_object+0xa0>
	{
		// for each row, go over all required columns
		for( uint16_t x_abs = partial_frame_buffer.location.x_min; x_abs < partial_frame_buffer.location.x_max; x_abs++ )
 8001f5c:	f9b6 c010 	ldrsh.w	ip, [r6, #16]
 8001f60:	f8b6 e00c 	ldrh.w	lr, [r6, #12]
			GFX_absolute_coordinates_to_object_coordinates(object, x_abs, y_abs, &x_obj, &y_obj);
			pixel = GFX_get_image_pixel( &object->image, x_obj, y_obj);

			// overlay the pixel only if it is not transparent
			if ( pixel != IMG_TRANSPARENT_COLOR_CODE)
				partial_frame_buffer.image.image_array[i] = pixel;
 8001f64:	f8d6 8000 	ldr.w	r8, [r6]
 8001f68:	3301      	adds	r3, #1
 8001f6a:	b29f      	uxth	r7, r3
 8001f6c:	1e7d      	subs	r5, r7, #1
		for( uint16_t x_abs = partial_frame_buffer.location.x_min; x_abs < partial_frame_buffer.location.x_max; x_abs++ )
 8001f6e:	45e6      	cmp	lr, ip
	uint32_t i = 0;
 8001f70:	f04f 0400 	mov.w	r4, #0
 8001f74:	b2ad      	uxth	r5, r5
		for( uint16_t x_abs = partial_frame_buffer.location.x_min; x_abs < partial_frame_buffer.location.x_max; x_abs++ )
 8001f76:	da39      	bge.n	8001fec <GFX_partial_frame_buffer_overlay_object+0xa0>
 8001f78:	f10e 0101 	add.w	r1, lr, #1
 8001f7c:	b289      	uxth	r1, r1
 8001f7e:	3901      	subs	r1, #1
 8001f80:	4622      	mov	r2, r4
 8001f82:	1b09      	subs	r1, r1, r4
	*x_obj = x_abs - object->location.x_min;
 8001f84:	8983      	ldrh	r3, [r0, #12]
 8001f86:	ebae 0303 	sub.w	r3, lr, r3
 8001f8a:	1b1b      	subs	r3, r3, r4
 8001f8c:	4413      	add	r3, r2
 8001f8e:	fa1f fa83 	uxth.w	sl, r3
	if ( ( (x_img>=0) && (x_img < img->size_x) ) && ( (y_img>=0) && (y_img < img->size_y) ) )
 8001f92:	041b      	lsls	r3, r3, #16
 8001f94:	d41a      	bmi.n	8001fcc <GFX_partial_frame_buffer_overlay_object+0x80>
 8001f96:	8883      	ldrh	r3, [r0, #4]
 8001f98:	459a      	cmp	sl, r3
 8001f9a:	da17      	bge.n	8001fcc <GFX_partial_frame_buffer_overlay_object+0x80>
	*y_obj = y_abs - object->location.y_min;
 8001f9c:	f8b0 900e 	ldrh.w	r9, [r0, #14]
 8001fa0:	eba5 0909 	sub.w	r9, r5, r9
 8001fa4:	fa1f fb89 	uxth.w	fp, r9
	if ( ( (x_img>=0) && (x_img < img->size_x) ) && ( (y_img>=0) && (y_img < img->size_y) ) )
 8001fa8:	f419 4f00 	tst.w	r9, #32768	@ 0x8000
		return img->image_array[i];
 8001fac:	fb0b aa03 	mla	sl, fp, r3, sl
	if ( ( (x_img>=0) && (x_img < img->size_x) ) && ( (y_img>=0) && (y_img < img->size_y) ) )
 8001fb0:	d10c      	bne.n	8001fcc <GFX_partial_frame_buffer_overlay_object+0x80>
 8001fb2:	88c3      	ldrh	r3, [r0, #6]
 8001fb4:	459b      	cmp	fp, r3
 8001fb6:	da09      	bge.n	8001fcc <GFX_partial_frame_buffer_overlay_object+0x80>
		return img->image_array[i];
 8001fb8:	6803      	ldr	r3, [r0, #0]
 8001fba:	f833 301a 	ldrh.w	r3, [r3, sl, lsl #1]
			if ( pixel != IMG_TRANSPARENT_COLOR_CODE)
 8001fbe:	f5b3 6ffc 	cmp.w	r3, #2016	@ 0x7e0
				partial_frame_buffer.image.image_array[i] = pixel;
 8001fc2:	bf1c      	itt	ne
 8001fc4:	f828 3012 	strhne.w	r3, [r8, r2, lsl #1]
		for( uint16_t x_abs = partial_frame_buffer.location.x_min; x_abs < partial_frame_buffer.location.x_max; x_abs++ )
 8001fc8:	f9b6 c010 	ldrshne.w	ip, [r6, #16]

			// update the buffer linear index
			i++;
 8001fcc:	3201      	adds	r2, #1
		for( uint16_t x_abs = partial_frame_buffer.location.x_min; x_abs < partial_frame_buffer.location.x_max; x_abs++ )
 8001fce:	188b      	adds	r3, r1, r2
 8001fd0:	459c      	cmp	ip, r3
 8001fd2:	dcd7      	bgt.n	8001f84 <GFX_partial_frame_buffer_overlay_object+0x38>
	for( uint16_t y_abs = partial_frame_buffer.location.y_min; y_abs < partial_frame_buffer.location.y_max; y_abs++ )
 8001fd4:	f9b6 3012 	ldrsh.w	r3, [r6, #18]
 8001fd8:	429f      	cmp	r7, r3
 8001fda:	da07      	bge.n	8001fec <GFX_partial_frame_buffer_overlay_object+0xa0>
		for( uint16_t x_abs = partial_frame_buffer.location.x_min; x_abs < partial_frame_buffer.location.x_max; x_abs++ )
 8001fdc:	f8b6 e00c 	ldrh.w	lr, [r6, #12]
 8001fe0:	3701      	adds	r7, #1
 8001fe2:	1e7d      	subs	r5, r7, #1
 8001fe4:	45e6      	cmp	lr, ip
			i++;
 8001fe6:	4614      	mov	r4, r2
 8001fe8:	b2ad      	uxth	r5, r5
		for( uint16_t x_abs = partial_frame_buffer.location.x_min; x_abs < partial_frame_buffer.location.x_max; x_abs++ )
 8001fea:	dbc5      	blt.n	8001f78 <GFX_partial_frame_buffer_overlay_object+0x2c>
		}
	}

}
 8001fec:	e8bd 8ff0 	ldmia.w	sp!, {r4, r5, r6, r7, r8, r9, sl, fp, pc}
 8001ff0:	20000328 	.word	0x20000328

08001ff4 <GFX_clear_area_on_background>:




void GFX_clear_area_on_background(int16_t x_min, int16_t y_min, int16_t x_max, int16_t y_max, graphic_object_t *bckgnd)
{
 8001ff4:	e92d 4ff0 	stmdb	sp!, {r4, r5, r6, r7, r8, r9, sl, fp, lr}
	partial_frame_buffer.location.x_max = x_max;
	partial_frame_buffer.location.y_max = y_max;


	// prepare the partial frame image buffer for the area of the current object
	partial_frame_buffer.image.size_x = partial_frame_buffer.location.x_max - partial_frame_buffer.location.x_min;
 8001ff8:	b286      	uxth	r6, r0
{
 8001ffa:	b089      	sub	sp, #36	@ 0x24
 8001ffc:	4605      	mov	r5, r0
	partial_frame_buffer.image.size_x = partial_frame_buffer.location.x_max - partial_frame_buffer.location.x_min;
 8001ffe:	1b90      	subs	r0, r2, r6
	partial_frame_buffer.image.size_y = partial_frame_buffer.location.y_max - partial_frame_buffer.location.y_min;
 8002000:	b28c      	uxth	r4, r1
	partial_frame_buffer.image.size_x = partial_frame_buffer.location.x_max - partial_frame_buffer.location.x_min;
 8002002:	b280      	uxth	r0, r0
{
 8002004:	4688      	mov	r8, r1
	partial_frame_buffer.image.size_x = partial_frame_buffer.location.x_max - partial_frame_buffer.location.x_min;
 8002006:	9001      	str	r0, [sp, #4]
	partial_frame_buffer.location.x_min = x_min;
 8002008:	2100      	movs	r1, #0
	partial_frame_buffer.image.size_y = partial_frame_buffer.location.y_max - partial_frame_buffer.location.y_min;
 800200a:	1b18      	subs	r0, r3, r4
 800200c:	fa1f fb80 	uxth.w	fp, r0
	partial_frame_buffer.location.x_min = x_min;
 8002010:	4608      	mov	r0, r1
 8002012:	f362 000f 	bfi	r0, r2, #0, #16
 8002016:	9505      	str	r5, [sp, #20]
 8002018:	f365 010f 	bfi	r1, r5, #0, #16
 800201c:	4d3e      	ldr	r5, [pc, #248]	@ (8002118 <GFX_clear_area_on_background+0x124>)
{
 800201e:	9f12      	ldr	r7, [sp, #72]	@ 0x48
	partial_frame_buffer.image.size_y = partial_frame_buffer.location.y_max - partial_frame_buffer.location.y_min;
 8002020:	f8a5 b006 	strh.w	fp, [r5, #6]
	partial_frame_buffer.location.x_min = x_min;
 8002024:	f363 401f 	bfi	r0, r3, #16, #16
 8002028:	f368 411f 	bfi	r1, r8, #16, #16
 800202c:	e9c5 1003 	strd	r1, r0, [r5, #12]
	partial_frame_buffer.image.size_x = partial_frame_buffer.location.x_max - partial_frame_buffer.location.x_min;
 8002030:	9801      	ldr	r0, [sp, #4]
 8002032:	80a8      	strh	r0, [r5, #4]
	partial_frame_buffer.image.size = partial_frame_buffer.image.size_x * partial_frame_buffer.image.size_y;
 8002034:	fb0b f000 	mul.w	r0, fp, r0
 8002038:	60a8      	str	r0, [r5, #8]
	return ( (uint16_t *) malloc(size_px * sizeof(uint16_t) ) );
 800203a:	0040      	lsls	r0, r0, #1
 800203c:	f005 faa2 	bl	8007584 <malloc>
	if(y + size_y > img->size_y)
 8002040:	88f9      	ldrh	r1, [r7, #6]
	return ( (uint16_t *) malloc(size_px * sizeof(uint16_t) ) );
 8002042:	9002      	str	r0, [sp, #8]
	if(y + size_y > img->size_y)
 8002044:	eb08 0e0b 	add.w	lr, r8, fp
 8002048:	458e      	cmp	lr, r1



	// allocate memory for the part of the frame, i.e. prepare the image buffer
	partial_frame_buffer.image.image_array = GFX_allocate_image_buffer(partial_frame_buffer.image.size);
 800204a:	6028      	str	r0, [r5, #0]
	if(y + size_y > img->size_y)
 800204c:	dc40      	bgt.n	80020d0 <GFX_clear_area_on_background+0xdc>
	if(x + size_x > img->size_x)
 800204e:	9b05      	ldr	r3, [sp, #20]
 8002050:	9801      	ldr	r0, [sp, #4]
 8002052:	f8b7 9004 	ldrh.w	r9, [r7, #4]
 8002056:	eb03 0c00 	add.w	ip, r3, r0
 800205a:	45cc      	cmp	ip, r9
 800205c:	dc38      	bgt.n	80020d0 <GFX_clear_area_on_background+0xdc>
	for( uint16_t row = y; row < (y + size_y); row++ )
 800205e:	4574      	cmp	r4, lr
 8002060:	da36      	bge.n	80020d0 <GFX_clear_area_on_background+0xdc>
	uint32_t i = 0;
 8002062:	2200      	movs	r2, #0
		return IMG_TRANSPARENT_COLOR_CODE;
 8002064:	f44f 6afc 	mov.w	sl, #2016	@ 0x7e0
 8002068:	f8cd b018 	str.w	fp, [sp, #24]
 800206c:	9104      	str	r1, [sp, #16]
 800206e:	f8cd 801c 	str.w	r8, [sp, #28]
		for(uint16_t column = x; column < (x + size_x); column++ )
 8002072:	45b4      	cmp	ip, r6
 8002074:	dd26      	ble.n	80020c4 <GFX_clear_area_on_background+0xd0>
 8002076:	9b04      	ldr	r3, [sp, #16]
 8002078:	429c      	cmp	r4, r3
 800207a:	da39      	bge.n	80020f0 <GFX_clear_area_on_background+0xfc>
 800207c:	9b02      	ldr	r3, [sp, #8]
 800207e:	9603      	str	r6, [sp, #12]
 8002080:	f102 4000 	add.w	r0, r2, #2147483648	@ 0x80000000
 8002084:	3801      	subs	r0, #1
 8002086:	eb03 0040 	add.w	r0, r3, r0, lsl #1
		i = y_img * img->size_x + x_img;
 800208a:	fb04 f809 	mul.w	r8, r4, r9
		for(uint16_t column = x; column < (x + size_x); column++ )
 800208e:	46b3      	mov	fp, r6
 8002090:	4633      	mov	r3, r6
 8002092:	e00b      	b.n	80020ac <GFX_clear_area_on_background+0xb8>
		return img->image_array[i];
 8002094:	6839      	ldr	r1, [r7, #0]
 8002096:	f831 1016 	ldrh.w	r1, [r1, r6, lsl #1]
			sub_image_array[i] = GFX_get_image_pixel(img, column, row);
 800209a:	f820 1f02 	strh.w	r1, [r0, #2]!
		for(uint16_t column = x; column < (x + size_x); column++ )
 800209e:	3301      	adds	r3, #1
 80020a0:	b29b      	uxth	r3, r3
 80020a2:	459c      	cmp	ip, r3
			i++;
 80020a4:	f102 0201 	add.w	r2, r2, #1
		for(uint16_t column = x; column < (x + size_x); column++ )
 80020a8:	469b      	mov	fp, r3
 80020aa:	dd0a      	ble.n	80020c2 <GFX_clear_area_on_background+0xce>
	if ( ( (x_img>=0) && (x_img < img->size_x) ) && ( (y_img>=0) && (y_img < img->size_y) ) )
 80020ac:	ea44 0103 	orr.w	r1, r4, r3
 80020b0:	0409      	lsls	r1, r1, #16
		return img->image_array[i];
 80020b2:	eb0b 0608 	add.w	r6, fp, r8
	if ( ( (x_img>=0) && (x_img < img->size_x) ) && ( (y_img>=0) && (y_img < img->size_y) ) )
 80020b6:	d401      	bmi.n	80020bc <GFX_clear_area_on_background+0xc8>
 80020b8:	45cb      	cmp	fp, r9
 80020ba:	dbeb      	blt.n	8002094 <GFX_clear_area_on_background+0xa0>
		return IMG_TRANSPARENT_COLOR_CODE;
 80020bc:	f44f 61fc 	mov.w	r1, #2016	@ 0x7e0
 80020c0:	e7eb      	b.n	800209a <GFX_clear_area_on_background+0xa6>
 80020c2:	9e03      	ldr	r6, [sp, #12]
	for( uint16_t row = y; row < (y + size_y); row++ )
 80020c4:	3401      	adds	r4, #1
 80020c6:	b2a4      	uxth	r4, r4
 80020c8:	45a6      	cmp	lr, r4
 80020ca:	dcd2      	bgt.n	8002072 <GFX_clear_area_on_background+0x7e>
 80020cc:	e9dd b806 	ldrd	fp, r8, [sp, #24]
	ILI9341_SetDisplayWindow( gfx_object->location.x_min, gfx_object->location.y_min, gfx_object->image.size_x, gfx_object->image.size_y);
 80020d0:	9a01      	ldr	r2, [sp, #4]
 80020d2:	9805      	ldr	r0, [sp, #20]
 80020d4:	465b      	mov	r3, fp
 80020d6:	4641      	mov	r1, r8
 80020d8:	f004 fe8e 	bl	8006df8 <ILI9341_SetDisplayWindow>
	ILI9341_SendData((LCD_IO_Data_t *) gfx_object->image.image_array, gfx_object->image.size );
 80020dc:	6828      	ldr	r0, [r5, #0]
 80020de:	68a9      	ldr	r1, [r5, #8]
 80020e0:	f004 fe6a 	bl	8006db8 <ILI9341_SendData>
	free(ptr);
 80020e4:	6828      	ldr	r0, [r5, #0]


	// de-allocate memory for the partial frame buffer
	GFX_deallocate_image_buffer(partial_frame_buffer.image.image_array);

}
 80020e6:	b009      	add	sp, #36	@ 0x24
 80020e8:	e8bd 4ff0 	ldmia.w	sp!, {r4, r5, r6, r7, r8, r9, sl, fp, lr}
	free(ptr);
 80020ec:	f005 ba52 	b.w	8007594 <free>
 80020f0:	9b02      	ldr	r3, [sp, #8]
 80020f2:	f102 4100 	add.w	r1, r2, #2147483648	@ 0x80000000
 80020f6:	3901      	subs	r1, #1
 80020f8:	eb03 0141 	add.w	r1, r3, r1, lsl #1
 80020fc:	1ab0      	subs	r0, r6, r2
			i++;
 80020fe:	3201      	adds	r2, #1
		for(uint16_t column = x; column < (x + size_x); column++ )
 8002100:	1883      	adds	r3, r0, r2
 8002102:	b29b      	uxth	r3, r3
 8002104:	459c      	cmp	ip, r3
			sub_image_array[i] = GFX_get_image_pixel(img, column, row);
 8002106:	f821 af02 	strh.w	sl, [r1, #2]!
		for(uint16_t column = x; column < (x + size_x); column++ )
 800210a:	dcf8      	bgt.n	80020fe <GFX_clear_area_on_background+0x10a>
	for( uint16_t row = y; row < (y + size_y); row++ )
 800210c:	3401      	adds	r4, #1
 800210e:	b2a4      	uxth	r4, r4
 8002110:	45a6      	cmp	lr, r4
 8002112:	dcae      	bgt.n	8002072 <GFX_clear_area_on_background+0x7e>
 8002114:	e7da      	b.n	80020cc <GFX_clear_area_on_background+0xd8>
 8002116:	bf00      	nop
 8002118:	20000328 	.word	0x20000328

0800211c <GFX_draw_one_gfx_object_on_background>:
{
 800211c:	e92d 41f0 	stmdb	sp!, {r4, r5, r6, r7, r8, lr}
 8002120:	4604      	mov	r4, r0
	if ( 	(location_A->x_min > location_B->x_max) ||	// Cond1. If A's left edge is to the right of the B's right edge, - then A is Totally to right Of B
 8002122:	f9b0 0018 	ldrsh.w	r0, [r0, #24]
 8002126:	f9b4 5010 	ldrsh.w	r5, [r4, #16]
			(location_A->x_max < location_B->x_min) ||	// Cond2. If A's right edge is to the left of the B's left edge, - then A is Totally to left Of B
 800212a:	f9b4 201c 	ldrsh.w	r2, [r4, #28]
			(location_A->y_max < location_B->y_min) ||	// Cond3. If A's top edge is below B's bottom edge, - then A is Totally below B
 800212e:	f9b4 301e 	ldrsh.w	r3, [r4, #30]
	if ( 	(location_A->x_min > location_B->x_max) ||	// Cond1. If A's left edge is to the right of the B's right edge, - then A is Totally to right Of B
 8002132:	42a8      	cmp	r0, r5
{
 8002134:	460e      	mov	r6, r1
 8002136:	b082      	sub	sp, #8
			(location_A->y_min > location_B->y_max) )		// Cond4. If A's bottom edge is above B's top edge, - then A is Totally above B
 8002138:	f9b4 101a 	ldrsh.w	r1, [r4, #26]
	if ( 	(location_A->x_min > location_B->x_max) ||	// Cond1. If A's left edge is to the right of the B's right edge, - then A is Totally to right Of B
 800213c:	dc0b      	bgt.n	8002156 <GFX_draw_one_gfx_object_on_background+0x3a>
			(location_A->x_max < location_B->x_min) ||	// Cond2. If A's right edge is to the left of the B's left edge, - then A is Totally to left Of B
 800213e:	f9b4 700c 	ldrsh.w	r7, [r4, #12]
	if ( 	(location_A->x_min > location_B->x_max) ||	// Cond1. If A's left edge is to the right of the B's right edge, - then A is Totally to right Of B
 8002142:	4297      	cmp	r7, r2
 8002144:	dc07      	bgt.n	8002156 <GFX_draw_one_gfx_object_on_background+0x3a>
			(location_A->y_max < location_B->y_min) ||	// Cond3. If A's top edge is below B's bottom edge, - then A is Totally below B
 8002146:	f9b4 c00e 	ldrsh.w	ip, [r4, #14]
			(location_A->x_max < location_B->x_min) ||	// Cond2. If A's right edge is to the left of the B's left edge, - then A is Totally to left Of B
 800214a:	459c      	cmp	ip, r3
 800214c:	dc03      	bgt.n	8002156 <GFX_draw_one_gfx_object_on_background+0x3a>
			(location_A->y_min > location_B->y_max) )		// Cond4. If A's bottom edge is above B's top edge, - then A is Totally above B
 800214e:	f9b4 e012 	ldrsh.w	lr, [r4, #18]
			(location_A->y_max < location_B->y_min) ||	// Cond3. If A's top edge is below B's bottom edge, - then A is Totally below B
 8002152:	458e      	cmp	lr, r1
 8002154:	da37      	bge.n	80021c6 <GFX_draw_one_gfx_object_on_background+0xaa>



void GFX_clear_location_on_background( location_t *location, graphic_object_t *bckgnd )
{
	GFX_clear_area_on_background(location->x_min, location->y_min, location->x_max, location->y_max, bckgnd);
 8002156:	9600      	str	r6, [sp, #0]
 8002158:	f7ff ff4c 	bl	8001ff4 <GFX_clear_area_on_background>
	partial_frame_buffer.location.x_min = area_location->x_min;
 800215c:	f9b4 200c 	ldrsh.w	r2, [r4, #12]
	partial_frame_buffer.location.x_max = area_location->x_max;
 8002160:	f9b4 3010 	ldrsh.w	r3, [r4, #16]
	partial_frame_buffer.location.y_min = area_location->y_min;
 8002164:	f9b4 500e 	ldrsh.w	r5, [r4, #14]
	partial_frame_buffer.location.x_min = area_location->x_min;
 8002168:	68e7      	ldr	r7, [r4, #12]
 800216a:	6920      	ldr	r0, [r4, #16]
 800216c:	6961      	ldr	r1, [r4, #20]
	partial_frame_buffer.image.size_x = partial_frame_buffer.location.x_max - partial_frame_buffer.location.x_min;
 800216e:	1a9b      	subs	r3, r3, r2
	partial_frame_buffer.location.y_max = area_location->y_max;
 8002170:	f9b4 2012 	ldrsh.w	r2, [r4, #18]
	partial_frame_buffer.image.size_y = partial_frame_buffer.location.y_max - partial_frame_buffer.location.y_min;
 8002174:	1b52      	subs	r2, r2, r5
	partial_frame_buffer.location.x_min = area_location->x_min;
 8002176:	4d28      	ldr	r5, [pc, #160]	@ (8002218 <GFX_draw_one_gfx_object_on_background+0xfc>)
 8002178:	e9c5 7003 	strd	r7, r0, [r5, #12]
	partial_frame_buffer.image.size_x = partial_frame_buffer.location.x_max - partial_frame_buffer.location.x_min;
 800217c:	b29b      	uxth	r3, r3
	partial_frame_buffer.image.size_y = partial_frame_buffer.location.y_max - partial_frame_buffer.location.y_min;
 800217e:	b292      	uxth	r2, r2
	partial_frame_buffer.image.size_x = partial_frame_buffer.location.x_max - partial_frame_buffer.location.x_min;
 8002180:	80ab      	strh	r3, [r5, #4]
	partial_frame_buffer.location.x_min = area_location->x_min;
 8002182:	6169      	str	r1, [r5, #20]
	partial_frame_buffer.image.size = partial_frame_buffer.image.size_x * partial_frame_buffer.image.size_y;
 8002184:	fb02 f303 	mul.w	r3, r2, r3
	partial_frame_buffer.image.size_y = partial_frame_buffer.location.y_max - partial_frame_buffer.location.y_min;
 8002188:	80ea      	strh	r2, [r5, #6]
	return ( (uint16_t *) malloc(size_px * sizeof(uint16_t) ) );
 800218a:	0058      	lsls	r0, r3, #1
	partial_frame_buffer.image.size = partial_frame_buffer.image.size_x * partial_frame_buffer.image.size_y;
 800218c:	60ab      	str	r3, [r5, #8]
	return ( (uint16_t *) malloc(size_px * sizeof(uint16_t) ) );
 800218e:	f005 f9f9 	bl	8007584 <malloc>
 8002192:	4603      	mov	r3, r0
				GFX_copy_image_part_to_partial_frame_buffer(&bckgnd->image);
 8002194:	4630      	mov	r0, r6
	partial_frame_buffer.image.image_array = GFX_allocate_image_buffer(partial_frame_buffer.image.size);
 8002196:	602b      	str	r3, [r5, #0]
				GFX_copy_image_part_to_partial_frame_buffer(&bckgnd->image);
 8002198:	f7ff fe7c 	bl	8001e94 <GFX_copy_image_part_to_partial_frame_buffer>
				GFX_partial_frame_buffer_overlay_object(object);
 800219c:	4620      	mov	r0, r4
 800219e:	f7ff fed5 	bl	8001f4c <GFX_partial_frame_buffer_overlay_object>
	ILI9341_SetDisplayWindow( gfx_object->location.x_min, gfx_object->location.y_min, gfx_object->image.size_x, gfx_object->image.size_y);
 80021a2:	88eb      	ldrh	r3, [r5, #6]
 80021a4:	88aa      	ldrh	r2, [r5, #4]
 80021a6:	f9b5 100e 	ldrsh.w	r1, [r5, #14]
 80021aa:	f9b5 000c 	ldrsh.w	r0, [r5, #12]
 80021ae:	f004 fe23 	bl	8006df8 <ILI9341_SetDisplayWindow>
	ILI9341_SendData((LCD_IO_Data_t *) gfx_object->image.image_array, gfx_object->image.size );
 80021b2:	6828      	ldr	r0, [r5, #0]
 80021b4:	68a9      	ldr	r1, [r5, #8]
 80021b6:	f004 fdff 	bl	8006db8 <ILI9341_SendData>
	free(ptr);
 80021ba:	6828      	ldr	r0, [r5, #0]
}
 80021bc:	b002      	add	sp, #8
 80021be:	e8bd 41f0 	ldmia.w	sp!, {r4, r5, r6, r7, r8, lr}
	free(ptr);
 80021c2:	f005 b9e7 	b.w	8007594 <free>
	object_movement_area->x_min = (gfx_object->location.x_min < gfx_object->location_old.x_min) ? gfx_object->location.x_min : gfx_object->location_old.x_min;
 80021c6:	42b8      	cmp	r0, r7
 80021c8:	bfa8      	it	ge
 80021ca:	4638      	movge	r0, r7
	object_movement_area->y_min = (gfx_object->location.y_min < gfx_object->location_old.y_min) ? gfx_object->location.y_min : gfx_object->location_old.y_min;
 80021cc:	4561      	cmp	r1, ip
 80021ce:	bfa8      	it	ge
 80021d0:	4661      	movge	r1, ip
	object_movement_area->x_max = (gfx_object->location.x_max > gfx_object->location_old.x_max) ? gfx_object->location.x_max : gfx_object->location_old.x_max;
 80021d2:	42aa      	cmp	r2, r5
 80021d4:	bfb8      	it	lt
 80021d6:	462a      	movlt	r2, r5
	object_movement_area->y_max = (gfx_object->location.y_max > gfx_object->location_old.y_max) ? gfx_object->location.y_max : gfx_object->location_old.y_max;
 80021d8:	4573      	cmp	r3, lr
 80021da:	bfb8      	it	lt
 80021dc:	4673      	movlt	r3, lr
	object_movement_area->y_center = (object_movement_area->y_max - object_movement_area->y_min) / 2;
 80021de:	1a5d      	subs	r5, r3, r1
	object_movement_area->x_center = (object_movement_area->x_max - object_movement_area->x_min) / 2;
 80021e0:	1a17      	subs	r7, r2, r0
	partial_frame_buffer.image.size_x = partial_frame_buffer.location.x_max - partial_frame_buffer.location.x_min;
 80021e2:	fa1f fe87 	uxth.w	lr, r7
	partial_frame_buffer.image.size_y = partial_frame_buffer.location.y_max - partial_frame_buffer.location.y_min;
 80021e6:	fa1f f885 	uxth.w	r8, r5
	object_movement_area->x_center = (object_movement_area->x_max - object_movement_area->x_min) / 2;
 80021ea:	eb07 77d7 	add.w	r7, r7, r7, lsr #31
	object_movement_area->y_center = (object_movement_area->y_max - object_movement_area->y_min) / 2;
 80021ee:	eb05 75d5 	add.w	r5, r5, r5, lsr #31
	object_movement_area->x_center = (object_movement_area->x_max - object_movement_area->x_min) / 2;
 80021f2:	ea4f 0c67 	mov.w	ip, r7, asr #1
	object_movement_area->y_center = (object_movement_area->y_max - object_movement_area->y_min) / 2;
 80021f6:	106f      	asrs	r7, r5, #1
	partial_frame_buffer.location.x_min = area_location->x_min;
 80021f8:	4d07      	ldr	r5, [pc, #28]	@ (8002218 <GFX_draw_one_gfx_object_on_background+0xfc>)
	partial_frame_buffer.location.y_max = area_location->y_max;
 80021fa:	826b      	strh	r3, [r5, #18]
	partial_frame_buffer.location.x_min = area_location->x_min;
 80021fc:	81a8      	strh	r0, [r5, #12]
	partial_frame_buffer.location.x_max = area_location->x_max;
 80021fe:	822a      	strh	r2, [r5, #16]
	partial_frame_buffer.location.y_min = area_location->y_min;
 8002200:	81e9      	strh	r1, [r5, #14]
	object_movement_area->x_center = (object_movement_area->x_max - object_movement_area->x_min) / 2;
 8002202:	f8a5 c014 	strh.w	ip, [r5, #20]
	object_movement_area->y_center = (object_movement_area->y_max - object_movement_area->y_min) / 2;
 8002206:	82ef      	strh	r7, [r5, #22]
	partial_frame_buffer.image.size_x = partial_frame_buffer.location.x_max - partial_frame_buffer.location.x_min;
 8002208:	f8a5 e004 	strh.w	lr, [r5, #4]
	partial_frame_buffer.image.size = partial_frame_buffer.image.size_x * partial_frame_buffer.image.size_y;
 800220c:	fb08 f30e 	mul.w	r3, r8, lr
	partial_frame_buffer.image.size_y = partial_frame_buffer.location.y_max - partial_frame_buffer.location.y_min;
 8002210:	f8a5 8006 	strh.w	r8, [r5, #6]
	partial_frame_buffer.image.size = partial_frame_buffer.image.size_x * partial_frame_buffer.image.size_y;
 8002214:	e7b9      	b.n	800218a <GFX_draw_one_gfx_object_on_background+0x6e>
 8002216:	bf00      	nop
 8002218:	20000328 	.word	0x20000328

0800221c <GFX_clear_gfx_object_on_background>:




void GFX_clear_gfx_object_on_background(graphic_object_t *object, graphic_object_t *bckgnd)
{
 800221c:	e92d 4ff0 	stmdb	sp!, {r4, r5, r6, r7, r8, r9, sl, fp, lr}

	// specify the frame buffer graphic object parameters
	// the buffer image dimensions is the same as current object dimensions
	partial_frame_buffer.location.x_min = object->location.x_min;
 8002220:	68c3      	ldr	r3, [r0, #12]
 8002222:	f9b0 600c 	ldrsh.w	r6, [r0, #12]
	partial_frame_buffer.location.y_min = object->location.y_min;
 8002226:	f9b0 400e 	ldrsh.w	r4, [r0, #14]
	partial_frame_buffer.location.x_min = object->location.x_min;
 800222a:	4d45      	ldr	r5, [pc, #276]	@ (8002340 <GFX_clear_gfx_object_on_background+0x124>)
{
 800222c:	b089      	sub	sp, #36	@ 0x24
 800222e:	141a      	asrs	r2, r3, #16
 8002230:	9204      	str	r2, [sp, #16]

	partial_frame_buffer.location.x_max = object->location.x_max;
 8002232:	f9b0 2010 	ldrsh.w	r2, [r0, #16]
	partial_frame_buffer.location.y_max = object->location.y_max;


	// prepare the partial frame image buffer for the area of the current object
		partial_frame_buffer.image.size_x = partial_frame_buffer.location.x_max - partial_frame_buffer.location.x_min;
 8002236:	b2b6      	uxth	r6, r6
 8002238:	1b92      	subs	r2, r2, r6
 800223a:	fa1f fb82 	uxth.w	fp, r2
	partial_frame_buffer.location.y_max = object->location.y_max;
 800223e:	f9b0 2012 	ldrsh.w	r2, [r0, #18]
		partial_frame_buffer.image.size_x = partial_frame_buffer.location.x_max - partial_frame_buffer.location.x_min;
 8002242:	f8a5 b004 	strh.w	fp, [r5, #4]
		partial_frame_buffer.image.size_y = partial_frame_buffer.location.y_max - partial_frame_buffer.location.y_min;
 8002246:	b2a4      	uxth	r4, r4
 8002248:	1b12      	subs	r2, r2, r4
 800224a:	fa1f f882 	uxth.w	r8, r2
{
 800224e:	460f      	mov	r7, r1
 8002250:	b219      	sxth	r1, r3
 8002252:	9105      	str	r1, [sp, #20]
	partial_frame_buffer.location.x_min = object->location.x_min;
 8002254:	6901      	ldr	r1, [r0, #16]
		partial_frame_buffer.image.size_y = partial_frame_buffer.location.y_max - partial_frame_buffer.location.y_min;
 8002256:	f8a5 8006 	strh.w	r8, [r5, #6]
		partial_frame_buffer.image.size = partial_frame_buffer.image.size_x * partial_frame_buffer.image.size_y;
 800225a:	fb08 f00b 	mul.w	r0, r8, fp
 800225e:	60a8      	str	r0, [r5, #8]
	return ( (uint16_t *) malloc(size_px * sizeof(uint16_t) ) );
 8002260:	0040      	lsls	r0, r0, #1
	partial_frame_buffer.location.x_min = object->location.x_min;
 8002262:	e9c5 3103 	strd	r3, r1, [r5, #12]
	return ( (uint16_t *) malloc(size_px * sizeof(uint16_t) ) );
 8002266:	f005 f98d 	bl	8007584 <malloc>
	if(y + size_y > img->size_y)
 800226a:	9a04      	ldr	r2, [sp, #16]
	return ( (uint16_t *) malloc(size_px * sizeof(uint16_t) ) );
 800226c:	9001      	str	r0, [sp, #4]

		// allocate memory for the part of the frame, i.e. prepare the image buffer
		partial_frame_buffer.image.image_array = GFX_allocate_image_buffer(partial_frame_buffer.image.size);
 800226e:	6028      	str	r0, [r5, #0]
	if(y + size_y > img->size_y)
 8002270:	88f8      	ldrh	r0, [r7, #6]
 8002272:	eb02 0108 	add.w	r1, r2, r8
 8002276:	4281      	cmp	r1, r0
 8002278:	dc3e      	bgt.n	80022f8 <GFX_clear_gfx_object_on_background+0xdc>
	if(x + size_x > img->size_x)
 800227a:	9b05      	ldr	r3, [sp, #20]
 800227c:	f8b7 9004 	ldrh.w	r9, [r7, #4]
 8002280:	eb03 0e0b 	add.w	lr, r3, fp
 8002284:	45ce      	cmp	lr, r9
 8002286:	dc37      	bgt.n	80022f8 <GFX_clear_gfx_object_on_background+0xdc>
	for( uint16_t row = y; row < (y + size_y); row++ )
 8002288:	428c      	cmp	r4, r1
 800228a:	da35      	bge.n	80022f8 <GFX_clear_gfx_object_on_background+0xdc>
 800228c:	e9cd b806 	strd	fp, r8, [sp, #24]
	uint32_t i = 0;
 8002290:	2200      	movs	r2, #0
		return IMG_TRANSPARENT_COLOR_CODE;
 8002292:	f44f 6afc 	mov.w	sl, #2016	@ 0x7e0
 8002296:	468c      	mov	ip, r1
 8002298:	9003      	str	r0, [sp, #12]
		for(uint16_t column = x; column < (x + size_x); column++ )
 800229a:	4576      	cmp	r6, lr
 800229c:	da26      	bge.n	80022ec <GFX_clear_gfx_object_on_background+0xd0>
 800229e:	9b03      	ldr	r3, [sp, #12]
 80022a0:	42a3      	cmp	r3, r4
 80022a2:	dd39      	ble.n	8002318 <GFX_clear_gfx_object_on_background+0xfc>
 80022a4:	9b01      	ldr	r3, [sp, #4]
 80022a6:	9602      	str	r6, [sp, #8]
 80022a8:	f102 4000 	add.w	r0, r2, #2147483648	@ 0x80000000
 80022ac:	3801      	subs	r0, #1
 80022ae:	eb03 0040 	add.w	r0, r3, r0, lsl #1
		i = y_img * img->size_x + x_img;
 80022b2:	fb04 f809 	mul.w	r8, r4, r9
		for(uint16_t column = x; column < (x + size_x); column++ )
 80022b6:	46b3      	mov	fp, r6
 80022b8:	4633      	mov	r3, r6
 80022ba:	e00b      	b.n	80022d4 <GFX_clear_gfx_object_on_background+0xb8>
		return img->image_array[i];
 80022bc:	6839      	ldr	r1, [r7, #0]
 80022be:	f831 1016 	ldrh.w	r1, [r1, r6, lsl #1]
			sub_image_array[i] = GFX_get_image_pixel(img, column, row);
 80022c2:	f820 1f02 	strh.w	r1, [r0, #2]!
		for(uint16_t column = x; column < (x + size_x); column++ )
 80022c6:	3301      	adds	r3, #1
 80022c8:	b29b      	uxth	r3, r3
 80022ca:	459e      	cmp	lr, r3
			i++;
 80022cc:	f102 0201 	add.w	r2, r2, #1
		for(uint16_t column = x; column < (x + size_x); column++ )
 80022d0:	469b      	mov	fp, r3
 80022d2:	dd0a      	ble.n	80022ea <GFX_clear_gfx_object_on_background+0xce>
	if ( ( (x_img>=0) && (x_img < img->size_x) ) && ( (y_img>=0) && (y_img < img->size_y) ) )
 80022d4:	ea44 0103 	orr.w	r1, r4, r3
 80022d8:	0409      	lsls	r1, r1, #16
		return img->image_array[i];
 80022da:	eb0b 0608 	add.w	r6, fp, r8
	if ( ( (x_img>=0) && (x_img < img->size_x) ) && ( (y_img>=0) && (y_img < img->size_y) ) )
 80022de:	d401      	bmi.n	80022e4 <GFX_clear_gfx_object_on_background+0xc8>
 80022e0:	45d9      	cmp	r9, fp
 80022e2:	dceb      	bgt.n	80022bc <GFX_clear_gfx_object_on_background+0xa0>
		return IMG_TRANSPARENT_COLOR_CODE;
 80022e4:	f44f 61fc 	mov.w	r1, #2016	@ 0x7e0
 80022e8:	e7eb      	b.n	80022c2 <GFX_clear_gfx_object_on_background+0xa6>
 80022ea:	9e02      	ldr	r6, [sp, #8]
	for( uint16_t row = y; row < (y + size_y); row++ )
 80022ec:	3401      	adds	r4, #1
 80022ee:	b2a4      	uxth	r4, r4
 80022f0:	45a4      	cmp	ip, r4
 80022f2:	dcd2      	bgt.n	800229a <GFX_clear_gfx_object_on_background+0x7e>
 80022f4:	e9dd b806 	ldrd	fp, r8, [sp, #24]
	ILI9341_SetDisplayWindow( gfx_object->location.x_min, gfx_object->location.y_min, gfx_object->image.size_x, gfx_object->image.size_y);
 80022f8:	e9dd 1004 	ldrd	r1, r0, [sp, #16]
 80022fc:	4643      	mov	r3, r8
 80022fe:	465a      	mov	r2, fp
 8002300:	f004 fd7a 	bl	8006df8 <ILI9341_SetDisplayWindow>
	ILI9341_SendData((LCD_IO_Data_t *) gfx_object->image.image_array, gfx_object->image.size );
 8002304:	6828      	ldr	r0, [r5, #0]
 8002306:	68a9      	ldr	r1, [r5, #8]
 8002308:	f004 fd56 	bl	8006db8 <ILI9341_SendData>
	free(ptr);
 800230c:	6828      	ldr	r0, [r5, #0]

	// de-allocate memory for the partial frame buffer
	GFX_deallocate_image_buffer(partial_frame_buffer.image.image_array);


}
 800230e:	b009      	add	sp, #36	@ 0x24
 8002310:	e8bd 4ff0 	ldmia.w	sp!, {r4, r5, r6, r7, r8, r9, sl, fp, lr}
	free(ptr);
 8002314:	f005 b93e 	b.w	8007594 <free>
 8002318:	9b01      	ldr	r3, [sp, #4]
 800231a:	f102 4100 	add.w	r1, r2, #2147483648	@ 0x80000000
 800231e:	3901      	subs	r1, #1
 8002320:	eb03 0141 	add.w	r1, r3, r1, lsl #1
 8002324:	1ab0      	subs	r0, r6, r2
			i++;
 8002326:	3201      	adds	r2, #1
		for(uint16_t column = x; column < (x + size_x); column++ )
 8002328:	1883      	adds	r3, r0, r2
 800232a:	b29b      	uxth	r3, r3
 800232c:	459e      	cmp	lr, r3
			sub_image_array[i] = GFX_get_image_pixel(img, column, row);
 800232e:	f821 af02 	strh.w	sl, [r1, #2]!
		for(uint16_t column = x; column < (x + size_x); column++ )
 8002332:	dcf8      	bgt.n	8002326 <GFX_clear_gfx_object_on_background+0x10a>
	for( uint16_t row = y; row < (y + size_y); row++ )
 8002334:	3401      	adds	r4, #1
 8002336:	b2a4      	uxth	r4, r4
 8002338:	45a4      	cmp	ip, r4
 800233a:	dcae      	bgt.n	800229a <GFX_clear_gfx_object_on_background+0x7e>
 800233c:	e7da      	b.n	80022f4 <GFX_clear_gfx_object_on_background+0xd8>
 800233e:	bf00      	nop
 8002340:	20000328 	.word	0x20000328

08002344 <GFX_display_text_object>:




void GFX_display_text_object(text_object_t *txt_object)
{
 8002344:	b510      	push	{r4, lr}
 8002346:	4604      	mov	r4, r0

	UG_FontSelect(txt_object->font);
 8002348:	6880      	ldr	r0, [r0, #8]
 800234a:	f004 fecf 	bl	80070ec <UG_FontSelect>
	UG_SetForecolor(txt_object->fore_color);
 800234e:	68e0      	ldr	r0, [r4, #12]
 8002350:	f004 fede 	bl	8007110 <UG_SetForecolor>
	UG_SetBackcolor(txt_object->back_color);
 8002354:	6920      	ldr	r0, [r4, #16]
 8002356:	f004 fee1 	bl	800711c <UG_SetBackcolor>

	UG_PutString(txt_object->x_min, txt_object->y_min, txt_object->text );
 800235a:	6822      	ldr	r2, [r4, #0]
 800235c:	f9b4 1006 	ldrsh.w	r1, [r4, #6]
 8002360:	f9b4 0004 	ldrsh.w	r0, [r4, #4]

}
 8002364:	e8bd 4010 	ldmia.w	sp!, {r4, lr}
	UG_PutString(txt_object->x_min, txt_object->y_min, txt_object->text );
 8002368:	f005 b8ca 	b.w	8007500 <UG_PutString>

0800236c <GFX_init_obstacle_pair_location>:




void GFX_init_obstacle_pair_location(obstacle_pair_t *pair, int16_t x, int16_t top_y, int16_t bottom_y) 
{
 800236c:	b5f0      	push	{r4, r5, r6, r7, lr}
	if( ( x >= restrictions->X_MIN ) &&
 800236e:	8e04      	ldrh	r4, [r0, #48]	@ 0x30
 8002370:	42a1      	cmp	r1, r4
 8002372:	db3e      	blt.n	80023f2 <GFX_init_obstacle_pair_location+0x86>
		( x <= restrictions->X_MAX ) &&
 8002374:	8e44      	ldrh	r4, [r0, #50]	@ 0x32
	if( ( x >= restrictions->X_MIN ) &&
 8002376:	42a1      	cmp	r1, r4
 8002378:	dc3b      	bgt.n	80023f2 <GFX_init_obstacle_pair_location+0x86>
		( y >= restrictions->Y_MIN ) &&
 800237a:	8ec4      	ldrh	r4, [r0, #54]	@ 0x36
		( x <= restrictions->X_MAX ) &&
 800237c:	42a2      	cmp	r2, r4
 800237e:	db38      	blt.n	80023f2 <GFX_init_obstacle_pair_location+0x86>
		( y <= restrictions->Y_MAX )    )
 8002380:	8f04      	ldrh	r4, [r0, #56]	@ 0x38
		( y >= restrictions->Y_MIN ) &&
 8002382:	42a2      	cmp	r2, r4
 8002384:	f340 80cc 	ble.w	8002520 <GFX_init_obstacle_pair_location+0x1b4>
	if( ( x >= restrictions->X_MIN ) &&
 8002388:	f8b0 407c 	ldrh.w	r4, [r0, #124]	@ 0x7c
 800238c:	42a1      	cmp	r1, r4
        gfx_object->location.y_max = gfx_object->location.y_min + gfx_object->image.size_y;
 800238e:	b29a      	uxth	r2, r3
	if( ( x >= restrictions->X_MIN ) &&
 8002390:	db77      	blt.n	8002482 <GFX_init_obstacle_pair_location+0x116>
		( x <= restrictions->X_MAX ) &&
 8002392:	f8b0 407e 	ldrh.w	r4, [r0, #126]	@ 0x7e
	if( ( x >= restrictions->X_MIN ) &&
 8002396:	42a1      	cmp	r1, r4
 8002398:	dc73      	bgt.n	8002482 <GFX_init_obstacle_pair_location+0x116>
		( y >= restrictions->Y_MIN ) &&
 800239a:	f8b0 4082 	ldrh.w	r4, [r0, #130]	@ 0x82
		( x <= restrictions->X_MAX ) &&
 800239e:	42a3      	cmp	r3, r4
 80023a0:	db6f      	blt.n	8002482 <GFX_init_obstacle_pair_location+0x116>
		( y <= restrictions->Y_MAX )    )
 80023a2:	f8b0 4084 	ldrh.w	r4, [r0, #132]	@ 0x84
		( y >= restrictions->Y_MIN ) &&
 80023a6:	42a3      	cmp	r3, r4
 80023a8:	dc76      	bgt.n	8002498 <GFX_init_obstacle_pair_location+0x12c>
        gfx_object->location.x_max = gfx_object->location.x_min + gfx_object->image.size_x;
 80023aa:	f8b0 7050 	ldrh.w	r7, [r0, #80]	@ 0x50
        gfx_object->location.y_max = gfx_object->location.y_min + gfx_object->image.size_y;
 80023ae:	f8b0 4052 	ldrh.w	r4, [r0, #82]	@ 0x52
        gfx_object->location.x_max = gfx_object->location.x_min + gfx_object->image.size_x;
 80023b2:	b28d      	uxth	r5, r1
 80023b4:	eb05 0c07 	add.w	ip, r5, r7
        gfx_object->location.x_min = x;
 80023b8:	2600      	movs	r6, #0
        gfx_object->location.x_center = gfx_object->location.x_min + gfx_object->image.size_x / 2;
 80023ba:	eb05 0557 	add.w	r5, r5, r7, lsr #1
        gfx_object->location.y_max = gfx_object->location.y_min + gfx_object->image.size_y;
 80023be:	eb04 0e02 	add.w	lr, r4, r2
        gfx_object->location.x_min = x;
 80023c2:	4637      	mov	r7, r6
        gfx_object->location.x_max = gfx_object->location.x_min + gfx_object->image.size_x;
 80023c4:	fa0f fc8c 	sxth.w	ip, ip
        gfx_object->location.x_min = x;
 80023c8:	f36c 070f 	bfi	r7, ip, #0, #16
 80023cc:	f361 060f 	bfi	r6, r1, #0, #16
        gfx_object->location.y_max = gfx_object->location.y_min + gfx_object->image.size_y;
 80023d0:	fa0f fe8e 	sxth.w	lr, lr
        gfx_object->location.y_center = gfx_object->location.y_min + gfx_object->image.size_y / 2;
 80023d4:	eb02 0454 	add.w	r4, r2, r4, lsr #1
        gfx_object->location.x_center = gfx_object->location.x_min + gfx_object->image.size_x / 2;
 80023d8:	b22d      	sxth	r5, r5
        gfx_object->location.x_min = x;
 80023da:	f363 461f 	bfi	r6, r3, #16, #16
 80023de:	f36e 471f 	bfi	r7, lr, #16, #16
        gfx_object->location.y_center = gfx_object->location.y_min + gfx_object->image.size_y / 2;
 80023e2:	b224      	sxth	r4, r4
        gfx_object->location.x_center = gfx_object->location.x_min + gfx_object->image.size_x / 2;
 80023e4:	f8a0 5060 	strh.w	r5, [r0, #96]	@ 0x60
        gfx_object->location.x_min = x;
 80023e8:	6586      	str	r6, [r0, #88]	@ 0x58
 80023ea:	65c7      	str	r7, [r0, #92]	@ 0x5c
        gfx_object->location.y_center = gfx_object->location.y_min + gfx_object->image.size_y / 2;
 80023ec:	f8a0 4062 	strh.w	r4, [r0, #98]	@ 0x62
	if( return_value  )
 80023f0:	e081      	b.n	80024f6 <GFX_init_obstacle_pair_location+0x18a>
		if((gfx_object == &obstacle_pair1.top || gfx_object == &obstacle_pair2.top || gfx_object == &obstacle_pair3.top) && y < 0)
 80023f2:	4c5d      	ldr	r4, [pc, #372]	@ (8002568 <GFX_init_obstacle_pair_location+0x1fc>)
 80023f4:	42a0      	cmp	r0, r4
 80023f6:	d005      	beq.n	8002404 <GFX_init_obstacle_pair_location+0x98>
 80023f8:	4c5c      	ldr	r4, [pc, #368]	@ (800256c <GFX_init_obstacle_pair_location+0x200>)
 80023fa:	42a0      	cmp	r0, r4
 80023fc:	d002      	beq.n	8002404 <GFX_init_obstacle_pair_location+0x98>
 80023fe:	4c5c      	ldr	r4, [pc, #368]	@ (8002570 <GFX_init_obstacle_pair_location+0x204>)
 8002400:	42a0      	cmp	r0, r4
 8002402:	d1c1      	bne.n	8002388 <GFX_init_obstacle_pair_location+0x1c>
 8002404:	2a00      	cmp	r2, #0
 8002406:	dabf      	bge.n	8002388 <GFX_init_obstacle_pair_location+0x1c>
			gfx_object->image.size_y -= offset;
 8002408:	88c4      	ldrh	r4, [r0, #6]
			gfx_object->location.x_max = gfx_object->location.x_min + gfx_object->image.size_x;
 800240a:	f8b0 c004 	ldrh.w	ip, [r0, #4]
			gfx_object->image.image_array += offset * gfx_object->image.size_x;
 800240e:	6805      	ldr	r5, [r0, #0]
			gfx_object->location.x_min = x;
 8002410:	8181      	strh	r1, [r0, #12]
			int16_t offset = -y;
 8002412:	fa1f fe82 	uxth.w	lr, r2
			gfx_object->image.size_y -= offset;
 8002416:	4474      	add	r4, lr
 8002418:	b2a4      	uxth	r4, r4
 800241a:	80c4      	strh	r4, [r0, #6]
			gfx_object->image.size = gfx_object->image.size_x * gfx_object->image.size_y;
 800241c:	fb0c f404 	mul.w	r4, ip, r4
 8002420:	6084      	str	r4, [r0, #8]
			gfx_object->location.y_max = 240 - offset;
 8002422:	f10e 04f0 	add.w	r4, lr, #240	@ 0xf0
			int16_t offset = -y;
 8002426:	f1ce 0e00 	rsb	lr, lr, #0
			gfx_object->image.image_array += offset * gfx_object->image.size_x;
 800242a:	fa0f fe8e 	sxth.w	lr, lr
 800242e:	fb0c fe0e 	mul.w	lr, ip, lr
			gfx_object->location.y_max = 240 - offset;
 8002432:	b224      	sxth	r4, r4
			gfx_object->image.image_array += offset * gfx_object->image.size_x;
 8002434:	eb05 054e 	add.w	r5, r5, lr, lsl #1
			gfx_object->location.x_max = gfx_object->location.x_min + gfx_object->image.size_x;
 8002438:	448c      	add	ip, r1
			gfx_object->location.y_center = (gfx_object->location.y_min + gfx_object->location.y_max) / 2;
 800243a:	eb04 7ed4 	add.w	lr, r4, r4, lsr #31
			gfx_object->location.y_min = 0;
 800243e:	2200      	movs	r2, #0
			gfx_object->location.x_max = gfx_object->location.x_min + gfx_object->image.size_x;
 8002440:	fa0f fc8c 	sxth.w	ip, ip
			gfx_object->image.image_array += offset * gfx_object->image.size_x;
 8002444:	6005      	str	r5, [r0, #0]
			gfx_object->location.y_center = (gfx_object->location.y_min + gfx_object->location.y_max) / 2;
 8002446:	ea4f 0e6e 	mov.w	lr, lr, asr #1
	gfx_object->location_old.x_center = gfx_object->location.x_center;
 800244a:	f9b0 5014 	ldrsh.w	r5, [r0, #20]
			gfx_object->location.y_min = 0;
 800244e:	81c2      	strh	r2, [r0, #14]
			gfx_object->location.y_max = 240 - offset;
 8002450:	8244      	strh	r4, [r0, #18]
			gfx_object->location.x_max = gfx_object->location.x_min + gfx_object->image.size_x;
 8002452:	f8a0 c010 	strh.w	ip, [r0, #16]
			gfx_object->location.y_center = (gfx_object->location.y_min + gfx_object->location.y_max) / 2;
 8002456:	f8a0 e016 	strh.w	lr, [r0, #22]
	gfx_object->location_old.x_center = gfx_object->location.x_center;
 800245a:	8405      	strh	r5, [r0, #32]
	gfx_object->location_old.x_min = gfx_object->location.x_min;
 800245c:	2500      	movs	r5, #0
 800245e:	462e      	mov	r6, r5
 8002460:	f36c 060f 	bfi	r6, ip, #0, #16
 8002464:	f364 461f 	bfi	r6, r4, #16, #16
	if( ( x >= restrictions->X_MIN ) &&
 8002468:	f8b0 407c 	ldrh.w	r4, [r0, #124]	@ 0x7c
	gfx_object->location_old.y_center = gfx_object->location.y_center;
 800246c:	f8a0 e022 	strh.w	lr, [r0, #34]	@ 0x22
	gfx_object->location_old.x_min = gfx_object->location.x_min;
 8002470:	f361 050f 	bfi	r5, r1, #0, #16
 8002474:	f362 451f 	bfi	r5, r2, #16, #16
	if( ( x >= restrictions->X_MIN ) &&
 8002478:	42a1      	cmp	r1, r4
	gfx_object->location_old.x_min = gfx_object->location.x_min;
 800247a:	61c6      	str	r6, [r0, #28]
 800247c:	6185      	str	r5, [r0, #24]
        gfx_object->location.y_max = gfx_object->location.y_min + gfx_object->image.size_y;
 800247e:	b29a      	uxth	r2, r3
	if( ( x >= restrictions->X_MIN ) &&
 8002480:	da87      	bge.n	8002392 <GFX_init_obstacle_pair_location+0x26>
		if((gfx_object == &obstacle_pair1.top || gfx_object == &obstacle_pair2.top || gfx_object == &obstacle_pair3.top) && y < 0)
 8002482:	4d39      	ldr	r5, [pc, #228]	@ (8002568 <GFX_init_obstacle_pair_location+0x1fc>)
	GFX_init_gfx_object_location(&pair->top, x, top_y);
	GFX_init_gfx_object_location(&pair->bottom, x, bottom_y);
 8002484:	f100 044c 	add.w	r4, r0, #76	@ 0x4c
		if((gfx_object == &obstacle_pair1.top || gfx_object == &obstacle_pair2.top || gfx_object == &obstacle_pair3.top) && y < 0)
 8002488:	42ac      	cmp	r4, r5
 800248a:	d00a      	beq.n	80024a2 <GFX_init_obstacle_pair_location+0x136>
 800248c:	4d37      	ldr	r5, [pc, #220]	@ (800256c <GFX_init_obstacle_pair_location+0x200>)
 800248e:	42ac      	cmp	r4, r5
 8002490:	d007      	beq.n	80024a2 <GFX_init_obstacle_pair_location+0x136>
 8002492:	4d37      	ldr	r5, [pc, #220]	@ (8002570 <GFX_init_obstacle_pair_location+0x204>)
 8002494:	42ac      	cmp	r4, r5
 8002496:	d004      	beq.n	80024a2 <GFX_init_obstacle_pair_location+0x136>

	pair->bottom.image.size_y = DISPLAY_SIZE_Y-bottom_y;
 8002498:	f1c2 02f0 	rsb	r2, r2, #240	@ 0xf0
 800249c:	f8a0 2052 	strh.w	r2, [r0, #82]	@ 0x52
}
 80024a0:	bdf0      	pop	{r4, r5, r6, r7, pc}
		if((gfx_object == &obstacle_pair1.top || gfx_object == &obstacle_pair2.top || gfx_object == &obstacle_pair3.top) && y < 0)
 80024a2:	2b00      	cmp	r3, #0
 80024a4:	daf8      	bge.n	8002498 <GFX_init_obstacle_pair_location+0x12c>
			gfx_object->image.size_y -= offset;
 80024a6:	f8b0 5052 	ldrh.w	r5, [r0, #82]	@ 0x52
			gfx_object->location.x_max = gfx_object->location.x_min + gfx_object->image.size_x;
 80024aa:	f8b0 c050 	ldrh.w	ip, [r0, #80]	@ 0x50
			gfx_object->location.x_min = x;
 80024ae:	f8a0 1058 	strh.w	r1, [r0, #88]	@ 0x58
			gfx_object->image.size_y -= offset;
 80024b2:	4415      	add	r5, r2
			gfx_object->image.size = gfx_object->image.size_x * gfx_object->image.size_y;
 80024b4:	b2ad      	uxth	r5, r5
 80024b6:	fb0c f505 	mul.w	r5, ip, r5
			int16_t offset = -y;
 80024ba:	4256      	negs	r6, r2
			gfx_object->location.y_max = 240 - offset;
 80024bc:	f102 0ef0 	add.w	lr, r2, #240	@ 0xf0
			gfx_object->image.size = gfx_object->image.size_x * gfx_object->image.size_y;
 80024c0:	6545      	str	r5, [r0, #84]	@ 0x54
			gfx_object->image.image_array += offset * gfx_object->image.size_x;
 80024c2:	b236      	sxth	r6, r6
 80024c4:	6cc5      	ldr	r5, [r0, #76]	@ 0x4c
			gfx_object->location.y_max = 240 - offset;
 80024c6:	fa0f fe8e 	sxth.w	lr, lr
			gfx_object->image.image_array += offset * gfx_object->image.size_x;
 80024ca:	fb0c f606 	mul.w	r6, ip, r6
 80024ce:	eb05 0546 	add.w	r5, r5, r6, lsl #1
			gfx_object->location.y_center = (gfx_object->location.y_min + gfx_object->location.y_max) / 2;
 80024d2:	eb0e 74de 	add.w	r4, lr, lr, lsr #31
			gfx_object->location.x_max = gfx_object->location.x_min + gfx_object->image.size_x;
 80024d6:	448c      	add	ip, r1
			gfx_object->location.y_min = 0;
 80024d8:	2300      	movs	r3, #0
			gfx_object->location.y_center = (gfx_object->location.y_min + gfx_object->location.y_max) / 2;
 80024da:	1064      	asrs	r4, r4, #1
			gfx_object->location.x_max = gfx_object->location.x_min + gfx_object->image.size_x;
 80024dc:	fa0f fc8c 	sxth.w	ip, ip
			gfx_object->image.image_array += offset * gfx_object->image.size_x;
 80024e0:	64c5      	str	r5, [r0, #76]	@ 0x4c
	gfx_object->location_old.x_center = gfx_object->location.x_center;
 80024e2:	f9b0 5060 	ldrsh.w	r5, [r0, #96]	@ 0x60
			gfx_object->location.y_min = 0;
 80024e6:	f8a0 305a 	strh.w	r3, [r0, #90]	@ 0x5a
			gfx_object->location.y_max = 240 - offset;
 80024ea:	f8a0 e05e 	strh.w	lr, [r0, #94]	@ 0x5e
			gfx_object->location.y_center = (gfx_object->location.y_min + gfx_object->location.y_max) / 2;
 80024ee:	f8a0 4062 	strh.w	r4, [r0, #98]	@ 0x62
			gfx_object->location.x_max = gfx_object->location.x_min + gfx_object->image.size_x;
 80024f2:	f8a0 c05c 	strh.w	ip, [r0, #92]	@ 0x5c
	gfx_object->location_old.y_center = gfx_object->location.y_center;
 80024f6:	f8a0 406e 	strh.w	r4, [r0, #110]	@ 0x6e
	gfx_object->location_old.x_min = gfx_object->location.x_min;
 80024fa:	2400      	movs	r4, #0
	gfx_object->location_old.x_center = gfx_object->location.x_center;
 80024fc:	f8a0 506c 	strh.w	r5, [r0, #108]	@ 0x6c
	gfx_object->location_old.x_min = gfx_object->location.x_min;
 8002500:	4625      	mov	r5, r4
 8002502:	f36c 050f 	bfi	r5, ip, #0, #16
 8002506:	f361 040f 	bfi	r4, r1, #0, #16
 800250a:	f363 441f 	bfi	r4, r3, #16, #16
 800250e:	f36e 451f 	bfi	r5, lr, #16, #16
	pair->bottom.image.size_y = DISPLAY_SIZE_Y-bottom_y;
 8002512:	f1c2 02f0 	rsb	r2, r2, #240	@ 0xf0
	gfx_object->location_old.x_min = gfx_object->location.x_min;
 8002516:	e9c0 4519 	strd	r4, r5, [r0, #100]	@ 0x64
	pair->bottom.image.size_y = DISPLAY_SIZE_Y-bottom_y;
 800251a:	f8a0 2052 	strh.w	r2, [r0, #82]	@ 0x52
}
 800251e:	bdf0      	pop	{r4, r5, r6, r7, pc}
        gfx_object->location.x_max = gfx_object->location.x_min + gfx_object->image.size_x;
 8002520:	8886      	ldrh	r6, [r0, #4]
        gfx_object->location.y_max = gfx_object->location.y_min + gfx_object->image.size_y;
 8002522:	88c7      	ldrh	r7, [r0, #6]
        gfx_object->location.x_max = gfx_object->location.x_min + gfx_object->image.size_x;
 8002524:	b28d      	uxth	r5, r1
        gfx_object->location.x_min = x;
 8002526:	2400      	movs	r4, #0
        gfx_object->location.x_max = gfx_object->location.x_min + gfx_object->image.size_x;
 8002528:	eb05 0c06 	add.w	ip, r5, r6
        gfx_object->location.x_center = gfx_object->location.x_min + gfx_object->image.size_x / 2;
 800252c:	eb05 0556 	add.w	r5, r5, r6, lsr #1
        gfx_object->location.x_min = x;
 8002530:	4626      	mov	r6, r4
 8002532:	f361 040f 	bfi	r4, r1, #0, #16
        gfx_object->location.y_max = gfx_object->location.y_min + gfx_object->image.size_y;
 8002536:	fa1f fe82 	uxth.w	lr, r2
        gfx_object->location.x_min = x;
 800253a:	f362 441f 	bfi	r4, r2, #16, #16
        gfx_object->location.x_max = gfx_object->location.x_min + gfx_object->image.size_x;
 800253e:	fa0f fc8c 	sxth.w	ip, ip
        gfx_object->location.x_min = x;
 8002542:	60c4      	str	r4, [r0, #12]
        gfx_object->location.y_max = gfx_object->location.y_min + gfx_object->image.size_y;
 8002544:	eb0e 0407 	add.w	r4, lr, r7
        gfx_object->location.x_min = x;
 8002548:	f36c 060f 	bfi	r6, ip, #0, #16
        gfx_object->location.y_center = gfx_object->location.y_min + gfx_object->image.size_y / 2;
 800254c:	eb0e 0e57 	add.w	lr, lr, r7, lsr #1
        gfx_object->location.y_max = gfx_object->location.y_min + gfx_object->image.size_y;
 8002550:	b224      	sxth	r4, r4
        gfx_object->location.x_center = gfx_object->location.x_min + gfx_object->image.size_x / 2;
 8002552:	b22d      	sxth	r5, r5
        gfx_object->location.x_min = x;
 8002554:	f364 461f 	bfi	r6, r4, #16, #16
        gfx_object->location.y_center = gfx_object->location.y_min + gfx_object->image.size_y / 2;
 8002558:	fa0f fe8e 	sxth.w	lr, lr
        gfx_object->location.x_center = gfx_object->location.x_min + gfx_object->image.size_x / 2;
 800255c:	8285      	strh	r5, [r0, #20]
        gfx_object->location.x_min = x;
 800255e:	6106      	str	r6, [r0, #16]
        gfx_object->location.y_center = gfx_object->location.y_min + gfx_object->image.size_y / 2;
 8002560:	f8a0 e016 	strh.w	lr, [r0, #22]
	if( return_value  )
 8002564:	e779      	b.n	800245a <GFX_init_obstacle_pair_location+0xee>
 8002566:	bf00      	nop
 8002568:	20000250 	.word	0x20000250
 800256c:	200001b8 	.word	0x200001b8
 8002570:	20000120 	.word	0x20000120

08002574 <GFX_set_obstacle_pair_x_axis_velocity>:
	gfx_object->velocity.y = velocity_y;
 8002574:	2300      	movs	r3, #0
	gfx_object->velocity.x = velocity_x;
 8002576:	f880 1048 	strb.w	r1, [r0, #72]	@ 0x48
	gfx_object->velocity.y = velocity_y;
 800257a:	f880 3049 	strb.w	r3, [r0, #73]	@ 0x49
	gfx_object->velocity.x = velocity_x;
 800257e:	f880 1094 	strb.w	r1, [r0, #148]	@ 0x94
	gfx_object->velocity.y = velocity_y;
 8002582:	f880 3095 	strb.w	r3, [r0, #149]	@ 0x95

void GFX_set_obstacle_pair_x_axis_velocity(obstacle_pair_t *pair, int8_t x_velocity) 
{
	GFX_set_gfx_object_velocity(&pair->top, x_velocity, 0);
	GFX_set_gfx_object_velocity(&pair->bottom, x_velocity, 0);
}
 8002586:	4770      	bx	lr

08002588 <GFX_update_obstacle_pair_location>:


void GFX_update_obstacle_pair_location(obstacle_pair_t *pair) 
{
 8002588:	b570      	push	{r4, r5, r6, lr}
 800258a:	4604      	mov	r4, r0
	gfx_object->location_old.y_min = gfx_object->location.y_min;
 800258c:	f9b0 c00e 	ldrsh.w	ip, [r0, #14]
	gfx_object->location_old.x_min = gfx_object->location.x_min;
 8002590:	6922      	ldr	r2, [r4, #16]
 8002592:	f9b0 000c 	ldrsh.w	r0, [r0, #12]
 8002596:	61e2      	str	r2, [r4, #28]
	GFX_move_location(  &gfx_object->location, &gfx_object->location_new, gfx_object->velocity.x, -gfx_object->velocity.y );
 8002598:	f994 2049 	ldrsb.w	r2, [r4, #73]	@ 0x49
	gfx_object->location_old.y_max = gfx_object->location.y_max;
 800259c:	f9b4 3012 	ldrsh.w	r3, [r4, #18]
	gfx_object->location_old.x_max = gfx_object->location.x_max;
 80025a0:	f9b4 1010 	ldrsh.w	r1, [r4, #16]
	if( ( x >= restrictions->X_MIN ) &&
 80025a4:	8e26      	ldrh	r6, [r4, #48]	@ 0x30
	GFX_move_location(  &gfx_object->location, &gfx_object->location_new, gfx_object->velocity.x, -gfx_object->velocity.y );
 80025a6:	b292      	uxth	r2, r2
	location_new->y_max 	= location->y_max + dy;
 80025a8:	1a9b      	subs	r3, r3, r2
 80025aa:	8563      	strh	r3, [r4, #42]	@ 0x2a
	location_new->x_min 	= location->x_min + dx;
 80025ac:	f994 3048 	ldrsb.w	r3, [r4, #72]	@ 0x48
 80025b0:	b29b      	uxth	r3, r3
	location_new->x_max 	= location->x_max + dx;
 80025b2:	4419      	add	r1, r3
 80025b4:	8521      	strh	r1, [r4, #40]	@ 0x28
	gfx_object->location_old.x_center = gfx_object->location.x_center;
 80025b6:	f9b4 1014 	ldrsh.w	r1, [r4, #20]
	location_new->x_min 	= location->x_min + dx;
 80025ba:	4418      	add	r0, r3
	location_new->x_center 	= location->x_center + dx;
 80025bc:	440b      	add	r3, r1
	gfx_object->location_old.y_center = gfx_object->location.y_center;
 80025be:	f9b4 1016 	ldrsh.w	r1, [r4, #22]
	location_new->x_center 	= location->x_center + dx;
 80025c2:	85a3      	strh	r3, [r4, #44]	@ 0x2c
	location_new->y_center 	= location->y_center + dy;
 80025c4:	1a89      	subs	r1, r1, r2
 80025c6:	85e1      	strh	r1, [r4, #46]	@ 0x2e
	gfx_object->location_old.x_min = gfx_object->location.x_min;
 80025c8:	6961      	ldr	r1, [r4, #20]
 80025ca:	6221      	str	r1, [r4, #32]
	location_new->y_min 	= location->y_min + dy;
 80025cc:	fa1f fc8c 	uxth.w	ip, ip
	gfx_object->location_old.x_min = gfx_object->location.x_min;
 80025d0:	68e1      	ldr	r1, [r4, #12]
 80025d2:	61a1      	str	r1, [r4, #24]
 80025d4:	ebac 0302 	sub.w	r3, ip, r2
	location_new->x_min 	= location->x_min + dx;
 80025d8:	b201      	sxth	r1, r0
 80025da:	b285      	uxth	r5, r0
	if( ( x >= restrictions->X_MIN ) &&
 80025dc:	42b1      	cmp	r1, r6
	location_new->y_min 	= location->y_min + dy;
 80025de:	b218      	sxth	r0, r3
	location_new->x_min 	= location->x_min + dx;
 80025e0:	84a1      	strh	r1, [r4, #36]	@ 0x24
	location_new->y_min 	= location->y_min + dy;
 80025e2:	84e0      	strh	r0, [r4, #38]	@ 0x26
	if( ( x >= restrictions->X_MIN ) &&
 80025e4:	b29b      	uxth	r3, r3
 80025e6:	db71      	blt.n	80026cc <GFX_update_obstacle_pair_location+0x144>
		( x <= restrictions->X_MAX ) &&
 80025e8:	8e66      	ldrh	r6, [r4, #50]	@ 0x32
	if( ( x >= restrictions->X_MIN ) &&
 80025ea:	42b1      	cmp	r1, r6
 80025ec:	dc6e      	bgt.n	80026cc <GFX_update_obstacle_pair_location+0x144>
		( y >= restrictions->Y_MIN ) &&
 80025ee:	8ee6      	ldrh	r6, [r4, #54]	@ 0x36
		( x <= restrictions->X_MAX ) &&
 80025f0:	42b0      	cmp	r0, r6
 80025f2:	db6b      	blt.n	80026cc <GFX_update_obstacle_pair_location+0x144>
		( y <= restrictions->Y_MAX )    )
 80025f4:	8f22      	ldrh	r2, [r4, #56]	@ 0x38
		( y >= restrictions->Y_MIN ) &&
 80025f6:	4290      	cmp	r0, r2
 80025f8:	dc71      	bgt.n	80026de <GFX_update_obstacle_pair_location+0x156>
        gfx_object->location.x_min = x;
 80025fa:	81a1      	strh	r1, [r4, #12]
        gfx_object->location.x_max = gfx_object->location.x_min + gfx_object->image.size_x;
 80025fc:	88a1      	ldrh	r1, [r4, #4]
        gfx_object->location.y_max = gfx_object->location.y_min + gfx_object->image.size_y;
 80025fe:	88e2      	ldrh	r2, [r4, #6]
        gfx_object->location.y_min = y;
 8002600:	81e0      	strh	r0, [r4, #14]
        gfx_object->location.x_max = gfx_object->location.x_min + gfx_object->image.size_x;
 8002602:	1868      	adds	r0, r5, r1
 8002604:	8220      	strh	r0, [r4, #16]
        gfx_object->location.x_center = gfx_object->location.x_min + gfx_object->image.size_x / 2;
 8002606:	eb05 0151 	add.w	r1, r5, r1, lsr #1
        gfx_object->location.y_max = gfx_object->location.y_min + gfx_object->image.size_y;
 800260a:	1898      	adds	r0, r3, r2
        gfx_object->location.y_center = gfx_object->location.y_min + gfx_object->image.size_y / 2;
 800260c:	eb03 0252 	add.w	r2, r3, r2, lsr #1
        gfx_object->location.y_max = gfx_object->location.y_min + gfx_object->image.size_y;
 8002610:	8260      	strh	r0, [r4, #18]
        gfx_object->location.x_center = gfx_object->location.x_min + gfx_object->image.size_x / 2;
 8002612:	82a1      	strh	r1, [r4, #20]
        gfx_object->location.y_center = gfx_object->location.y_min + gfx_object->image.size_y / 2;
 8002614:	82e2      	strh	r2, [r4, #22]
	gfx_object->location_old.x_min = gfx_object->location.x_min;
 8002616:	6de2      	ldr	r2, [r4, #92]	@ 0x5c
 8002618:	66a2      	str	r2, [r4, #104]	@ 0x68
	GFX_move_location(  &gfx_object->location, &gfx_object->location_new, gfx_object->velocity.x, -gfx_object->velocity.y );
 800261a:	f994 2095 	ldrsb.w	r2, [r4, #149]	@ 0x95
	gfx_object->location_old.y_max = gfx_object->location.y_max;
 800261e:	f9b4 305e 	ldrsh.w	r3, [r4, #94]	@ 0x5e
	gfx_object->location_old.x_center = gfx_object->location.x_center;
 8002622:	f9b4 5060 	ldrsh.w	r5, [r4, #96]	@ 0x60
	gfx_object->location_old.x_min = gfx_object->location.x_min;
 8002626:	f9b4 e058 	ldrsh.w	lr, [r4, #88]	@ 0x58
	gfx_object->location_old.x_max = gfx_object->location.x_max;
 800262a:	f9b4 c05c 	ldrsh.w	ip, [r4, #92]	@ 0x5c
	gfx_object->location_old.y_min = gfx_object->location.y_min;
 800262e:	f9b4 105a 	ldrsh.w	r1, [r4, #90]	@ 0x5a
	if( ( x >= restrictions->X_MIN ) &&
 8002632:	f8b4 607c 	ldrh.w	r6, [r4, #124]	@ 0x7c
	GFX_move_location(  &gfx_object->location, &gfx_object->location_new, gfx_object->velocity.x, -gfx_object->velocity.y );
 8002636:	b292      	uxth	r2, r2
	location_new->y_max 	= location->y_max + dy;
 8002638:	1a9b      	subs	r3, r3, r2
 800263a:	f8a4 3076 	strh.w	r3, [r4, #118]	@ 0x76
	location_new->x_min 	= location->x_min + dx;
 800263e:	f994 3094 	ldrsb.w	r3, [r4, #148]	@ 0x94
 8002642:	b29b      	uxth	r3, r3
 8002644:	449e      	add	lr, r3
	location_new->x_max 	= location->x_max + dx;
 8002646:	449c      	add	ip, r3
	location_new->x_center 	= location->x_center + dx;
 8002648:	442b      	add	r3, r5
 800264a:	f8a4 3078 	strh.w	r3, [r4, #120]	@ 0x78
	gfx_object->location_old.y_center = gfx_object->location.y_center;
 800264e:	f9b4 3062 	ldrsh.w	r3, [r4, #98]	@ 0x62
	gfx_object->location_old.x_min = gfx_object->location.x_min;
 8002652:	6e25      	ldr	r5, [r4, #96]	@ 0x60
	location_new->x_max 	= location->x_max + dx;
 8002654:	f8a4 c074 	strh.w	ip, [r4, #116]	@ 0x74
	location_new->y_center 	= location->y_center + dy;
 8002658:	1a9b      	subs	r3, r3, r2
	location_new->y_min 	= location->y_min + dy;
 800265a:	b289      	uxth	r1, r1
	location_new->x_min 	= location->x_min + dx;
 800265c:	fa0f fc8e 	sxth.w	ip, lr
	location_new->y_center 	= location->y_center + dy;
 8002660:	f8a4 307a 	strh.w	r3, [r4, #122]	@ 0x7a
	gfx_object->location_old.x_min = gfx_object->location.x_min;
 8002664:	66e5      	str	r5, [r4, #108]	@ 0x6c
 8002666:	1a8b      	subs	r3, r1, r2
 8002668:	6da5      	ldr	r5, [r4, #88]	@ 0x58
 800266a:	6665      	str	r5, [r4, #100]	@ 0x64
	if( ( x >= restrictions->X_MIN ) &&
 800266c:	45b4      	cmp	ip, r6
	location_new->x_min 	= location->x_min + dx;
 800266e:	fa1f f58e 	uxth.w	r5, lr
	location_new->y_min 	= location->y_min + dy;
 8002672:	fa0f fe83 	sxth.w	lr, r3
    GFX_update_moving_gfx_object_location(&pair->top);
    GFX_update_moving_gfx_object_location(&pair->bottom);
 8002676:	f104 004c 	add.w	r0, r4, #76	@ 0x4c
	location_new->x_min 	= location->x_min + dx;
 800267a:	f8a4 c070 	strh.w	ip, [r4, #112]	@ 0x70
	location_new->y_min 	= location->y_min + dy;
 800267e:	f8a4 e072 	strh.w	lr, [r4, #114]	@ 0x72
	if( ( x >= restrictions->X_MIN ) &&
 8002682:	b29b      	uxth	r3, r3
 8002684:	db53      	blt.n	800272e <GFX_update_obstacle_pair_location+0x1a6>
		( x <= restrictions->X_MAX ) &&
 8002686:	f8b4 607e 	ldrh.w	r6, [r4, #126]	@ 0x7e
	if( ( x >= restrictions->X_MIN ) &&
 800268a:	45b4      	cmp	ip, r6
 800268c:	dc4f      	bgt.n	800272e <GFX_update_obstacle_pair_location+0x1a6>
		( y >= restrictions->Y_MIN ) &&
 800268e:	f8b4 6082 	ldrh.w	r6, [r4, #130]	@ 0x82
		( x <= restrictions->X_MAX ) &&
 8002692:	45b6      	cmp	lr, r6
 8002694:	db4b      	blt.n	800272e <GFX_update_obstacle_pair_location+0x1a6>
		( y <= restrictions->Y_MAX )    )
 8002696:	f8b4 2084 	ldrh.w	r2, [r4, #132]	@ 0x84
		( y >= restrictions->Y_MIN ) &&
 800269a:	4596      	cmp	lr, r2
 800269c:	dc50      	bgt.n	8002740 <GFX_update_obstacle_pair_location+0x1b8>
        gfx_object->location.x_max = gfx_object->location.x_min + gfx_object->image.size_x;
 800269e:	f8b4 1050 	ldrh.w	r1, [r4, #80]	@ 0x50
        gfx_object->location.y_max = gfx_object->location.y_min + gfx_object->image.size_y;
 80026a2:	f8b4 2052 	ldrh.w	r2, [r4, #82]	@ 0x52
        gfx_object->location.x_min = x;
 80026a6:	f8a4 c058 	strh.w	ip, [r4, #88]	@ 0x58
        gfx_object->location.x_max = gfx_object->location.x_min + gfx_object->image.size_x;
 80026aa:	1868      	adds	r0, r5, r1
 80026ac:	f8a4 005c 	strh.w	r0, [r4, #92]	@ 0x5c
        gfx_object->location.x_center = gfx_object->location.x_min + gfx_object->image.size_x / 2;
 80026b0:	eb05 0151 	add.w	r1, r5, r1, lsr #1
        gfx_object->location.y_max = gfx_object->location.y_min + gfx_object->image.size_y;
 80026b4:	1898      	adds	r0, r3, r2
        gfx_object->location.y_center = gfx_object->location.y_min + gfx_object->image.size_y / 2;
 80026b6:	eb03 0252 	add.w	r2, r3, r2, lsr #1
        gfx_object->location.y_min = y;
 80026ba:	f8a4 e05a 	strh.w	lr, [r4, #90]	@ 0x5a
        gfx_object->location.y_max = gfx_object->location.y_min + gfx_object->image.size_y;
 80026be:	f8a4 005e 	strh.w	r0, [r4, #94]	@ 0x5e
        gfx_object->location.x_center = gfx_object->location.x_min + gfx_object->image.size_x / 2;
 80026c2:	f8a4 1060 	strh.w	r1, [r4, #96]	@ 0x60
        gfx_object->location.y_center = gfx_object->location.y_min + gfx_object->image.size_y / 2;
 80026c6:	f8a4 2062 	strh.w	r2, [r4, #98]	@ 0x62
}
 80026ca:	bd70      	pop	{r4, r5, r6, pc}
		if((gfx_object == &obstacle_pair1.top || gfx_object == &obstacle_pair2.top || gfx_object == &obstacle_pair3.top) && y < 0)
 80026cc:	4e35      	ldr	r6, [pc, #212]	@ (80027a4 <GFX_update_obstacle_pair_location+0x21c>)
 80026ce:	42b4      	cmp	r4, r6
 80026d0:	d00d      	beq.n	80026ee <GFX_update_obstacle_pair_location+0x166>
 80026d2:	4e35      	ldr	r6, [pc, #212]	@ (80027a8 <GFX_update_obstacle_pair_location+0x220>)
 80026d4:	42b4      	cmp	r4, r6
 80026d6:	d00a      	beq.n	80026ee <GFX_update_obstacle_pair_location+0x166>
 80026d8:	4e34      	ldr	r6, [pc, #208]	@ (80027ac <GFX_update_obstacle_pair_location+0x224>)
 80026da:	42b4      	cmp	r4, r6
 80026dc:	d007      	beq.n	80026ee <GFX_update_obstacle_pair_location+0x166>
		switch(gfx_object->edge_behavior)
 80026de:	f894 304a 	ldrb.w	r3, [r4, #74]	@ 0x4a
 80026e2:	2b00      	cmp	r3, #0
 80026e4:	d197      	bne.n	8002616 <GFX_update_obstacle_pair_location+0x8e>
				object_placement_successful = GFX_bounce_moving_object_from_edge(gfx_object);
 80026e6:	4620      	mov	r0, r4
 80026e8:	f7ff fa4c 	bl	8001b84 <GFX_bounce_moving_object_from_edge>
				return object_placement_successful;
 80026ec:	e793      	b.n	8002616 <GFX_update_obstacle_pair_location+0x8e>
		if((gfx_object == &obstacle_pair1.top || gfx_object == &obstacle_pair2.top || gfx_object == &obstacle_pair3.top) && y < 0)
 80026ee:	2800      	cmp	r0, #0
 80026f0:	daf5      	bge.n	80026de <GFX_update_obstacle_pair_location+0x156>
			gfx_object->location.x_min = x;
 80026f2:	81a1      	strh	r1, [r4, #12]
			gfx_object->image.size_y -= offset;
 80026f4:	88e1      	ldrh	r1, [r4, #6]
			gfx_object->location.x_max = gfx_object->location.x_min + gfx_object->image.size_x;
 80026f6:	88a6      	ldrh	r6, [r4, #4]
			gfx_object->image.size_y -= offset;
 80026f8:	4419      	add	r1, r3
			gfx_object->location.y_max = 240 - offset;
 80026fa:	33f0      	adds	r3, #240	@ 0xf0
 80026fc:	b21b      	sxth	r3, r3
 80026fe:	8263      	strh	r3, [r4, #18]
			gfx_object->location.y_center = (gfx_object->location.y_min + gfx_object->location.y_max) / 2;
 8002700:	eb03 73d3 	add.w	r3, r3, r3, lsr #31
 8002704:	105b      	asrs	r3, r3, #1
			int16_t offset = -y;
 8002706:	eba2 020c 	sub.w	r2, r2, ip
			gfx_object->image.image_array += offset * gfx_object->image.size_x;
 800270a:	b212      	sxth	r2, r2
			gfx_object->location.y_center = (gfx_object->location.y_min + gfx_object->location.y_max) / 2;
 800270c:	82e3      	strh	r3, [r4, #22]
			gfx_object->image.image_array += offset * gfx_object->image.size_x;
 800270e:	6823      	ldr	r3, [r4, #0]
 8002710:	fb06 f202 	mul.w	r2, r6, r2
			gfx_object->image.size_y -= offset;
 8002714:	b289      	uxth	r1, r1
			gfx_object->image.image_array += offset * gfx_object->image.size_x;
 8002716:	eb03 0342 	add.w	r3, r3, r2, lsl #1
			gfx_object->location.x_max = gfx_object->location.x_min + gfx_object->image.size_x;
 800271a:	19a8      	adds	r0, r5, r6
			gfx_object->image.image_array += offset * gfx_object->image.size_x;
 800271c:	6023      	str	r3, [r4, #0]
			gfx_object->image.size = gfx_object->image.size_x * gfx_object->image.size_y;
 800271e:	fb01 f606 	mul.w	r6, r1, r6
			gfx_object->location.y_min = 0;
 8002722:	2300      	movs	r3, #0
			gfx_object->location.x_max = gfx_object->location.x_min + gfx_object->image.size_x;
 8002724:	8220      	strh	r0, [r4, #16]
			gfx_object->image.size_y -= offset;
 8002726:	80e1      	strh	r1, [r4, #6]
			gfx_object->image.size = gfx_object->image.size_x * gfx_object->image.size_y;
 8002728:	60a6      	str	r6, [r4, #8]
			gfx_object->location.y_min = 0;
 800272a:	81e3      	strh	r3, [r4, #14]
	if ( ! object_placement_successful )
 800272c:	e773      	b.n	8002616 <GFX_update_obstacle_pair_location+0x8e>
		if((gfx_object == &obstacle_pair1.top || gfx_object == &obstacle_pair2.top || gfx_object == &obstacle_pair3.top) && y < 0)
 800272e:	4e1d      	ldr	r6, [pc, #116]	@ (80027a4 <GFX_update_obstacle_pair_location+0x21c>)
 8002730:	42b0      	cmp	r0, r6
 8002732:	d00d      	beq.n	8002750 <GFX_update_obstacle_pair_location+0x1c8>
 8002734:	4e1c      	ldr	r6, [pc, #112]	@ (80027a8 <GFX_update_obstacle_pair_location+0x220>)
 8002736:	42b0      	cmp	r0, r6
 8002738:	d00a      	beq.n	8002750 <GFX_update_obstacle_pair_location+0x1c8>
 800273a:	4e1c      	ldr	r6, [pc, #112]	@ (80027ac <GFX_update_obstacle_pair_location+0x224>)
 800273c:	42b0      	cmp	r0, r6
 800273e:	d007      	beq.n	8002750 <GFX_update_obstacle_pair_location+0x1c8>
		switch(gfx_object->edge_behavior)
 8002740:	f894 3096 	ldrb.w	r3, [r4, #150]	@ 0x96
 8002744:	2b00      	cmp	r3, #0
 8002746:	d1c0      	bne.n	80026ca <GFX_update_obstacle_pair_location+0x142>
}
 8002748:	e8bd 4070 	ldmia.w	sp!, {r4, r5, r6, lr}
				object_placement_successful = GFX_bounce_moving_object_from_edge(gfx_object);
 800274c:	f7ff ba1a 	b.w	8001b84 <GFX_bounce_moving_object_from_edge>
		if((gfx_object == &obstacle_pair1.top || gfx_object == &obstacle_pair2.top || gfx_object == &obstacle_pair3.top) && y < 0)
 8002750:	f1be 0f00 	cmp.w	lr, #0
 8002754:	daf4      	bge.n	8002740 <GFX_update_obstacle_pair_location+0x1b8>
			int16_t offset = -y;
 8002756:	1a52      	subs	r2, r2, r1
			gfx_object->image.size_y -= offset;
 8002758:	f8b4 1052 	ldrh.w	r1, [r4, #82]	@ 0x52
			gfx_object->location.x_max = gfx_object->location.x_min + gfx_object->image.size_x;
 800275c:	f8b4 0050 	ldrh.w	r0, [r4, #80]	@ 0x50
			gfx_object->location.x_min = x;
 8002760:	f8a4 c058 	strh.w	ip, [r4, #88]	@ 0x58
			gfx_object->image.size_y -= offset;
 8002764:	4419      	add	r1, r3
			gfx_object->location.y_max = 240 - offset;
 8002766:	33f0      	adds	r3, #240	@ 0xf0
 8002768:	b21b      	sxth	r3, r3
 800276a:	f8a4 305e 	strh.w	r3, [r4, #94]	@ 0x5e
			gfx_object->location.y_center = (gfx_object->location.y_min + gfx_object->location.y_max) / 2;
 800276e:	eb03 73d3 	add.w	r3, r3, r3, lsr #31
 8002772:	105b      	asrs	r3, r3, #1
			gfx_object->image.image_array += offset * gfx_object->image.size_x;
 8002774:	b212      	sxth	r2, r2
			gfx_object->location.y_center = (gfx_object->location.y_min + gfx_object->location.y_max) / 2;
 8002776:	f8a4 3062 	strh.w	r3, [r4, #98]	@ 0x62
			gfx_object->image.image_array += offset * gfx_object->image.size_x;
 800277a:	6ce3      	ldr	r3, [r4, #76]	@ 0x4c
 800277c:	fb00 f202 	mul.w	r2, r0, r2
			gfx_object->image.size_y -= offset;
 8002780:	b289      	uxth	r1, r1
			gfx_object->image.image_array += offset * gfx_object->image.size_x;
 8002782:	eb03 0342 	add.w	r3, r3, r2, lsl #1
			gfx_object->location.x_max = gfx_object->location.x_min + gfx_object->image.size_x;
 8002786:	eb05 0e00 	add.w	lr, r5, r0
			gfx_object->image.image_array += offset * gfx_object->image.size_x;
 800278a:	64e3      	str	r3, [r4, #76]	@ 0x4c
			gfx_object->image.size = gfx_object->image.size_x * gfx_object->image.size_y;
 800278c:	fb01 f000 	mul.w	r0, r1, r0
			gfx_object->location.y_min = 0;
 8002790:	2300      	movs	r3, #0
			gfx_object->location.x_max = gfx_object->location.x_min + gfx_object->image.size_x;
 8002792:	f8a4 e05c 	strh.w	lr, [r4, #92]	@ 0x5c
			gfx_object->image.size_y -= offset;
 8002796:	f8a4 1052 	strh.w	r1, [r4, #82]	@ 0x52
			gfx_object->image.size = gfx_object->image.size_x * gfx_object->image.size_y;
 800279a:	6560      	str	r0, [r4, #84]	@ 0x54
			gfx_object->location.y_min = 0;
 800279c:	f8a4 305a 	strh.w	r3, [r4, #90]	@ 0x5a
}
 80027a0:	bd70      	pop	{r4, r5, r6, pc}
 80027a2:	bf00      	nop
 80027a4:	20000250 	.word	0x20000250
 80027a8:	200001b8 	.word	0x200001b8
 80027ac:	20000120 	.word	0x20000120

080027b0 <GFX_draw_obstacle_pair_on_background>:


void GFX_draw_obstacle_pair_on_background(obstacle_pair_t *pair, graphic_object_t *background)
{
 80027b0:	b538      	push	{r3, r4, r5, lr}
 80027b2:	4604      	mov	r4, r0
 80027b4:	460d      	mov	r5, r1
    GFX_draw_one_gfx_object_on_background(&pair->top, background);
 80027b6:	f7ff fcb1 	bl	800211c <GFX_draw_one_gfx_object_on_background>
    GFX_draw_one_gfx_object_on_background(&pair->bottom, background);
 80027ba:	4629      	mov	r1, r5
 80027bc:	f104 004c 	add.w	r0, r4, #76	@ 0x4c
}
 80027c0:	e8bd 4038 	ldmia.w	sp!, {r3, r4, r5, lr}
    GFX_draw_one_gfx_object_on_background(&pair->bottom, background);
 80027c4:	f7ff bcaa 	b.w	800211c <GFX_draw_one_gfx_object_on_background>

080027c8 <GFX_get_obstacle_pair_movement_area>:
	object_movement_area->x_min = (gfx_object->location.x_min < gfx_object->location_old.x_min) ? gfx_object->location.x_min : gfx_object->location_old.x_min;
 80027c8:	f9b0 c00c 	ldrsh.w	ip, [r0, #12]


void GFX_get_obstacle_pair_movement_area(obstacle_pair_t *pair, location_t *object_movement_area)
{
 80027cc:	b510      	push	{r4, lr}
	object_movement_area->x_min = (gfx_object->location.x_min < gfx_object->location_old.x_min) ? gfx_object->location.x_min : gfx_object->location_old.x_min;
 80027ce:	f9b0 4018 	ldrsh.w	r4, [r0, #24]
	object_movement_area->x_max = (gfx_object->location.x_max > gfx_object->location_old.x_max) ? gfx_object->location.x_max : gfx_object->location_old.x_max;
 80027d2:	f9b0 e010 	ldrsh.w	lr, [r0, #16]
	object_movement_area->x_min = (gfx_object->location.x_min < gfx_object->location_old.x_min) ? gfx_object->location.x_min : gfx_object->location_old.x_min;
 80027d6:	4564      	cmp	r4, ip
 80027d8:	bfa8      	it	ge
 80027da:	4664      	movge	r4, ip
	object_movement_area->x_max = (gfx_object->location.x_max > gfx_object->location_old.x_max) ? gfx_object->location.x_max : gfx_object->location_old.x_max;
 80027dc:	f9b0 c01c 	ldrsh.w	ip, [r0, #28]
	object_movement_area->x_min = (gfx_object->location.x_min < gfx_object->location_old.x_min) ? gfx_object->location.x_min : gfx_object->location_old.x_min;
 80027e0:	2300      	movs	r3, #0
	object_movement_area->x_max = (gfx_object->location.x_max > gfx_object->location_old.x_max) ? gfx_object->location.x_max : gfx_object->location_old.x_max;
 80027e2:	45f4      	cmp	ip, lr
 80027e4:	bfb8      	it	lt
 80027e6:	46f4      	movlt	ip, lr
	object_movement_area->x_min = (gfx_object->location.x_min < gfx_object->location_old.x_min) ? gfx_object->location.x_min : gfx_object->location_old.x_min;
 80027e8:	461a      	mov	r2, r3
 80027ea:	f36c 020f 	bfi	r2, ip, #0, #16
 80027ee:	f364 030f 	bfi	r3, r4, #0, #16
	object_movement_area->y_min = (gfx_object->location.y_min < gfx_object->location_old.y_min) ? gfx_object->location.y_min : gfx_object->location_old.y_min;
 80027f2:	f9b0 c00e 	ldrsh.w	ip, [r0, #14]
 80027f6:	f9b0 401a 	ldrsh.w	r4, [r0, #26]
 80027fa:	4564      	cmp	r4, ip
 80027fc:	bfa8      	it	ge
 80027fe:	4664      	movge	r4, ip
	object_movement_area->x_min = (gfx_object->location.x_min < gfx_object->location_old.x_min) ? gfx_object->location.x_min : gfx_object->location_old.x_min;
 8002800:	f364 431f 	bfi	r3, r4, #16, #16
	object_movement_area->y_max = (gfx_object->location.y_max > gfx_object->location_old.y_max) ? gfx_object->location.y_max : gfx_object->location_old.y_max;
 8002804:	f9b0 c012 	ldrsh.w	ip, [r0, #18]
 8002808:	f9b0 401e 	ldrsh.w	r4, [r0, #30]
	object_movement_area->x_min = (gfx_object->location.x_min < gfx_object->location_old.x_min) ? gfx_object->location.x_min : gfx_object->location_old.x_min;
 800280c:	600b      	str	r3, [r1, #0]
	object_movement_area->y_max = (gfx_object->location.y_max > gfx_object->location_old.y_max) ? gfx_object->location.y_max : gfx_object->location_old.y_max;
 800280e:	4564      	cmp	r4, ip
 8002810:	4623      	mov	r3, r4
 8002812:	bfb8      	it	lt
 8002814:	4663      	movlt	r3, ip
	object_movement_area->x_min = (gfx_object->location.x_min < gfx_object->location_old.x_min) ? gfx_object->location.x_min : gfx_object->location_old.x_min;
 8002816:	f363 421f 	bfi	r2, r3, #16, #16
 800281a:	604a      	str	r2, [r1, #4]
 800281c:	f9b0 e064 	ldrsh.w	lr, [r0, #100]	@ 0x64
 8002820:	f9b0 2058 	ldrsh.w	r2, [r0, #88]	@ 0x58
	object_movement_area->y_min = (gfx_object->location.y_min < gfx_object->location_old.y_min) ? gfx_object->location.y_min : gfx_object->location_old.y_min;
 8002824:	f9b0 3066 	ldrsh.w	r3, [r0, #102]	@ 0x66
	object_movement_area->x_max = (gfx_object->location.x_max > gfx_object->location_old.x_max) ? gfx_object->location.x_max : gfx_object->location_old.x_max;
 8002828:	f9b0 405c 	ldrsh.w	r4, [r0, #92]	@ 0x5c
	object_movement_area->y_max = (gfx_object->location.y_max > gfx_object->location_old.y_max) ? gfx_object->location.y_max : gfx_object->location_old.y_max;
 800282c:	f9b0 c06a 	ldrsh.w	ip, [r0, #106]	@ 0x6a
	object_movement_area->x_min = (gfx_object->location.x_min < gfx_object->location_old.x_min) ? gfx_object->location.x_min : gfx_object->location_old.x_min;
 8002830:	4596      	cmp	lr, r2
 8002832:	bfa8      	it	ge
 8002834:	4696      	movge	lr, r2
	object_movement_area->y_min = (gfx_object->location.y_min < gfx_object->location_old.y_min) ? gfx_object->location.y_min : gfx_object->location_old.y_min;
 8002836:	f9b0 205a 	ldrsh.w	r2, [r0, #90]	@ 0x5a
 800283a:	4293      	cmp	r3, r2
 800283c:	bfa8      	it	ge
 800283e:	4613      	movge	r3, r2
	object_movement_area->x_max = (gfx_object->location.x_max > gfx_object->location_old.x_max) ? gfx_object->location.x_max : gfx_object->location_old.x_max;
 8002840:	f9b0 2068 	ldrsh.w	r2, [r0, #104]	@ 0x68
	object_movement_area->y_max = (gfx_object->location.y_max > gfx_object->location_old.y_max) ? gfx_object->location.y_max : gfx_object->location_old.y_max;
 8002844:	f9b0 005e 	ldrsh.w	r0, [r0, #94]	@ 0x5e
	object_movement_area->x_max = (gfx_object->location.x_max > gfx_object->location_old.x_max) ? gfx_object->location.x_max : gfx_object->location_old.x_max;
 8002848:	42a2      	cmp	r2, r4
 800284a:	bfb8      	it	lt
 800284c:	4622      	movlt	r2, r4
	object_movement_area->y_max = (gfx_object->location.y_max > gfx_object->location_old.y_max) ? gfx_object->location.y_max : gfx_object->location_old.y_max;
 800284e:	4560      	cmp	r0, ip
 8002850:	bfb8      	it	lt
 8002852:	4660      	movlt	r0, ip
	object_movement_area->x_min = (gfx_object->location.x_min < gfx_object->location_old.x_min) ? gfx_object->location.x_min : gfx_object->location_old.x_min;
 8002854:	f04f 0c00 	mov.w	ip, #0
 8002858:	4664      	mov	r4, ip
 800285a:	f36e 0c0f 	bfi	ip, lr, #0, #16
 800285e:	f362 040f 	bfi	r4, r2, #0, #16
 8002862:	f363 4c1f 	bfi	ip, r3, #16, #16
	object_movement_area->x_center = (object_movement_area->x_max - object_movement_area->x_min) / 2;
 8002866:	eba2 020e 	sub.w	r2, r2, lr
	object_movement_area->y_center = (object_movement_area->y_max - object_movement_area->y_min) / 2;
 800286a:	1ac3      	subs	r3, r0, r3
	object_movement_area->x_center = (object_movement_area->x_max - object_movement_area->x_min) / 2;
 800286c:	eb02 72d2 	add.w	r2, r2, r2, lsr #31
	object_movement_area->y_center = (object_movement_area->y_max - object_movement_area->y_min) / 2;
 8002870:	eb03 73d3 	add.w	r3, r3, r3, lsr #31
	object_movement_area->x_min = (gfx_object->location.x_min < gfx_object->location_old.x_min) ? gfx_object->location.x_min : gfx_object->location_old.x_min;
 8002874:	f360 441f 	bfi	r4, r0, #16, #16
	object_movement_area->x_center = (object_movement_area->x_max - object_movement_area->x_min) / 2;
 8002878:	1052      	asrs	r2, r2, #1
	object_movement_area->y_center = (object_movement_area->y_max - object_movement_area->y_min) / 2;
 800287a:	105b      	asrs	r3, r3, #1
	object_movement_area->x_min = (gfx_object->location.x_min < gfx_object->location_old.x_min) ? gfx_object->location.x_min : gfx_object->location_old.x_min;
 800287c:	f8c1 c000 	str.w	ip, [r1]
 8002880:	604c      	str	r4, [r1, #4]
	object_movement_area->x_center = (object_movement_area->x_max - object_movement_area->x_min) / 2;
 8002882:	810a      	strh	r2, [r1, #8]
	object_movement_area->y_center = (object_movement_area->y_max - object_movement_area->y_min) / 2;
 8002884:	814b      	strh	r3, [r1, #10]
	GFX_get_object_movement_area(&pair->top, object_movement_area);
	GFX_get_object_movement_area(&pair->bottom, object_movement_area);
}
 8002886:	bd10      	pop	{r4, pc}

08002888 <GFX_clear_obstacle_pair_on_background>:


void GFX_clear_obstacle_pair_on_background(obstacle_pair_t *pair, location_t *object_movement_area)
{
 8002888:	b538      	push	{r3, r4, r5, lr}
	GFX_clear_gfx_object_on_background(&pair->top, &background);
 800288a:	4d06      	ldr	r5, [pc, #24]	@ (80028a4 <GFX_clear_obstacle_pair_on_background+0x1c>)
{
 800288c:	4604      	mov	r4, r0
	GFX_clear_gfx_object_on_background(&pair->top, &background);
 800288e:	4629      	mov	r1, r5
 8002890:	f7ff fcc4 	bl	800221c <GFX_clear_gfx_object_on_background>
	GFX_clear_gfx_object_on_background(&pair->bottom, &background);
 8002894:	4629      	mov	r1, r5
 8002896:	f104 004c 	add.w	r0, r4, #76	@ 0x4c
}
 800289a:	e8bd 4038 	ldmia.w	sp!, {r3, r4, r5, lr}
	GFX_clear_gfx_object_on_background(&pair->bottom, &background);
 800289e:	f7ff bcbd 	b.w	800221c <GFX_clear_gfx_object_on_background>
 80028a2:	bf00      	nop
 80028a4:	20000a34 	.word	0x20000a34

080028a8 <MATH_randomise_distance_between_obstacles>:
}


// TO DO: fine tunaj razdaljo med ovirami
obstacle_positions_t MATH_randomise_distance_between_obstacles(void)
{
 80028a8:	b500      	push	{lr}
 80028aa:	b083      	sub	sp, #12
	srand( HAL_GetTick() );
 80028ac:	f000 ff98 	bl	80037e0 <HAL_GetTick>
 80028b0:	f004 ff26 	bl	8007700 <srand>
	return   ( x_min + ( rand() % (interval_length + 1) ) );
 80028b4:	f004 ff52 	bl	800775c <rand>
 80028b8:	4b0b      	ldr	r3, [pc, #44]	@ (80028e8 <MATH_randomise_distance_between_obstacles+0x40>)
 80028ba:	fba3 2300 	umull	r2, r3, r3, r0
 80028be:	1ac2      	subs	r2, r0, r3
 80028c0:	eb03 0352 	add.w	r3, r3, r2, lsr #1
 80028c4:	099b      	lsrs	r3, r3, #6
 80028c6:	225b      	movs	r2, #91	@ 0x5b
 80028c8:	fb02 0013 	mls	r0, r2, r3, r0
	obstacle_positions_t obstacle_distances;
	MATH_init_random_generator();

	// Randomise the top obstacle position, the distance between obstacles is constant
	obstacle_distances.obstacle_top_y = MATH_random_integer_number_from_interval(-210, -120);
 80028cc:	f1a0 02d2 	sub.w	r2, r0, #210	@ 0xd2
	int16_t distance_between_obstacles = 100;
	int16_t obstacle_length = 240;
	obstacle_distances.obstacle_bottom_y = obstacle_distances.obstacle_top_y + distance_between_obstacles + obstacle_length;

	return obstacle_distances;
 80028d0:	f100 0382 	add.w	r3, r0, #130	@ 0x82
 80028d4:	b292      	uxth	r2, r2
 80028d6:	2000      	movs	r0, #0
 80028d8:	f362 000f 	bfi	r0, r2, #0, #16
 80028dc:	b29b      	uxth	r3, r3
 80028de:	f363 401f 	bfi	r0, r3, #16, #16
}
 80028e2:	b003      	add	sp, #12
 80028e4:	f85d fb04 	ldr.w	pc, [sp], #4
 80028e8:	68168169 	.word	0x68168169

080028ec <OBJ_init>:
// ---------------- OBJECTS for SETTINGS ----------------

void OBJ_init_settings(void)
{
	// set the min/max limits for velocity of moving objects
	settings.abs_velocity_min.x = 1;
 80028ec:	4b33      	ldr	r3, [pc, #204]	@ (80029bc <OBJ_init+0xd0>)
 80028ee:	4a34      	ldr	r2, [pc, #208]	@ (80029c0 <OBJ_init+0xd4>)
{
 80028f0:	e92d 41f0 	stmdb	sp!, {r4, r5, r6, r7, r8, lr}

// object "constructor"
void OBJ_init_canvas(void)
{
	// whole area
		canvas.whole_area.x_min = 0;
 80028f4:	4d33      	ldr	r5, [pc, #204]	@ (80029c4 <OBJ_init+0xd8>)
	settings.abs_velocity_min.x = 1;
 80028f6:	601a      	str	r2, [r3, #0]
		canvas.whole_area.x_min = 0;
 80028f8:	4b33      	ldr	r3, [pc, #204]	@ (80029c8 <OBJ_init+0xdc>)
void OBJ_init_background(void)
{
	// init graphic object

		// init image
		background.image.image_array = (uint16_t*) background_img;
 80028fa:	4e34      	ldr	r6, [pc, #208]	@ (80029cc <OBJ_init+0xe0>)
		canvas.whole_area.x_min = 0;
 80028fc:	61eb      	str	r3, [r5, #28]
	game_status.score = 0;					// tukaj se bo hranil score igre
 80028fe:	2400      	movs	r4, #0
		canvas.whole_area.x_min = 0;
 8002900:	e9c5 4300 	strd	r4, r3, [r5]
 8002904:	4b32      	ldr	r3, [pc, #200]	@ (80029d0 <OBJ_init+0xe4>)

		background.image.size_x = 320;
		background.image.size_y = 240;
		background.image.size = background.image.size_x * background.image.size_y;
 8002906:	4a33      	ldr	r2, [pc, #204]	@ (80029d4 <OBJ_init+0xe8>)
		canvas.whole_area.x_min = 0;
 8002908:	622b      	str	r3, [r5, #32]
		background.image.image_array = (uint16_t*) background_img;
 800290a:	4b33      	ldr	r3, [pc, #204]	@ (80029d8 <OBJ_init+0xec>)
 800290c:	6033      	str	r3, [r6, #0]
		background.image.size = background.image.size_x * background.image.size_y;
 800290e:	f44f 3396 	mov.w	r3, #76800	@ 0x12c00
 8002912:	e9c6 2301 	strd	r2, r3, [r6, #4]
		canvas.whole_area.x_min = 0;
 8002916:	4b31      	ldr	r3, [pc, #196]	@ (80029dc <OBJ_init+0xf0>)
 8002918:	60ab      	str	r3, [r5, #8]
 800291a:	4f31      	ldr	r7, [pc, #196]	@ (80029e0 <OBJ_init+0xf4>)
 800291c:	4b31      	ldr	r3, [pc, #196]	@ (80029e4 <OBJ_init+0xf8>)
	game_status.score = 0;					// tukaj se bo hranil score igre
 800291e:	f8df 80f0 	ldr.w	r8, [pc, #240]	@ 8002a10 <OBJ_init+0x124>
		canvas.whole_area.x_min = 0;
 8002922:	60ec      	str	r4, [r5, #12]
 8002924:	e9c5 7304 	strd	r7, r3, [r5, #16]

		// init the graphic object location
		GFX_init_location_restrictions (&background, &canvas.whole_area );
 8002928:	4629      	mov	r1, r5
		canvas.whole_area.x_min = 0;
 800292a:	f44f 0371 	mov.w	r3, #15794176	@ 0xf10000
		GFX_init_location_restrictions (&background, &canvas.whole_area );
 800292e:	4630      	mov	r0, r6
		canvas.whole_area.x_min = 0;
 8002930:	61ab      	str	r3, [r5, #24]
	game_status.score = 0;					// tukaj se bo hranil score igre
 8002932:	f8a8 4000 	strh.w	r4, [r8]
		GFX_init_location_restrictions (&background, &canvas.whole_area );
 8002936:	f7fe ffdd 	bl	80018f4 <GFX_init_location_restrictions>
		GFX_init_gfx_object_location( &background, 0, 0);
 800293a:	4622      	mov	r2, r4
 800293c:	4621      	mov	r1, r4
 800293e:	4630      	mov	r0, r6
 8002940:	f7ff f842 	bl	80019c8 <GFX_init_gfx_object_location>


		// set the initial object velocity
		GFX_set_gfx_object_velocity(&background, 0, 0);
 8002944:	4622      	mov	r2, r4
 8002946:	4630      	mov	r0, r6
 8002948:	4621      	mov	r1, r4
 800294a:	f7ff f915 	bl	8001b78 <GFX_set_gfx_object_velocity>
		misko.image.size_x = 50;
		misko.image.size_y = 25;
		misko.image.size = misko.image.size_x * misko.image.size_y;

		// init the graphic object location
		GFX_init_location_restrictions (&misko, &canvas.whole_area );
 800294e:	4629      	mov	r1, r5
		misko.image.image_array = (uint16_t*) misko_img;
 8002950:	4d25      	ldr	r5, [pc, #148]	@ (80029e8 <OBJ_init+0xfc>)
		misko.image.size = misko.image.size_x * misko.image.size_y;
 8002952:	f8df c0c0 	ldr.w	ip, [pc, #192]	@ 8002a14 <OBJ_init+0x128>
		misko.image.image_array = (uint16_t*) misko_img;
 8002956:	4b25      	ldr	r3, [pc, #148]	@ (80029ec <OBJ_init+0x100>)
 8002958:	602b      	str	r3, [r5, #0]
		background.edge_behavior = EDGE_IGNORE;
 800295a:	2702      	movs	r7, #2
		misko.image.size = misko.image.size_x * misko.image.size_y;
 800295c:	f240 43e2 	movw	r3, #1250	@ 0x4e2
		GFX_init_location_restrictions (&misko, &canvas.whole_area );
 8002960:	4628      	mov	r0, r5
		misko.image.size = misko.image.size_x * misko.image.size_y;
 8002962:	e9c5 c301 	strd	ip, r3, [r5, #4]
		background.edge_behavior = EDGE_IGNORE;
 8002966:	f886 704a 	strb.w	r7, [r6, #74]	@ 0x4a
		GFX_init_location_restrictions (&misko, &canvas.whole_area );
 800296a:	f7fe ffc3 	bl	80018f4 <GFX_init_location_restrictions>
		GFX_init_gfx_object_location(&misko, 50, 120);
 800296e:	2278      	movs	r2, #120	@ 0x78
 8002970:	2132      	movs	r1, #50	@ 0x32
 8002972:	4628      	mov	r0, r5
 8002974:	f7ff f828 	bl	80019c8 <GFX_init_gfx_object_location>


		// set the initial object velocity
		GFX_set_gfx_object_velocity(&misko, 0, 0);
 8002978:	4628      	mov	r0, r5
 800297a:	4622      	mov	r2, r4
 800297c:	4621      	mov	r1, r4
 800297e:	f7ff f8fb 	bl	8001b78 <GFX_set_gfx_object_velocity>

void OBJ_init_score_box_title(void)
{
	static char str[]= "SCORE";

	score_box_title.text = str;
 8002982:	4b1b      	ldr	r3, [pc, #108]	@ (80029f0 <OBJ_init+0x104>)
		background.edge_behavior = EDGE_IGNORE;
 8002984:	f886 704a 	strb.w	r7, [r6, #74]	@ 0x4a
	score_box_title.text = str;
 8002988:	491a      	ldr	r1, [pc, #104]	@ (80029f4 <OBJ_init+0x108>)

void OBJ_set_score_text_value(int16_t score)
{
	static char str[6];

	sprintf(str, "%5i", score);
 800298a:	4f1b      	ldr	r7, [pc, #108]	@ (80029f8 <OBJ_init+0x10c>)
	score_box_title.text = str;
 800298c:	6019      	str	r1, [r3, #0]
	score_box_title.x_min = 243;
 800298e:	491b      	ldr	r1, [pc, #108]	@ (80029fc <OBJ_init+0x110>)
 8002990:	6059      	str	r1, [r3, #4]
	sprintf(str, "%5i", score);
 8002992:	f9b8 2000 	ldrsh.w	r2, [r8]
	score_box_title.font = (UG_FONT*) &FONT_8X12;     
 8002996:	4d1a      	ldr	r5, [pc, #104]	@ (8002a00 <OBJ_init+0x114>)
	sprintf(str, "%5i", score);
 8002998:	491a      	ldr	r1, [pc, #104]	@ (8002a04 <OBJ_init+0x118>)
	score_box_title.font = (UG_FONT*) &FONT_8X12;     
 800299a:	609d      	str	r5, [r3, #8]
	score_box_title.fore_color = C_WHITE;
 800299c:	f64f 76ff 	movw	r6, #65535	@ 0xffff
	sprintf(str, "%5i", score);
 80029a0:	4638      	mov	r0, r7
	score_box_title.back_color = C_BLACK;
 80029a2:	e9c3 6403 	strd	r6, r4, [r3, #12]
	sprintf(str, "%5i", score);
 80029a6:	f005 f89f 	bl	8007ae8 <siprintf>
	score_text.text = str;
 80029aa:	4b17      	ldr	r3, [pc, #92]	@ (8002a08 <OBJ_init+0x11c>)

void OBJ_init_score_text(void)
{
	OBJ_set_score_text_value( game_status.score );

	score_text.x_min = 242;
 80029ac:	4a17      	ldr	r2, [pc, #92]	@ (8002a0c <OBJ_init+0x120>)
	score_text.text = str;
 80029ae:	601f      	str	r7, [r3, #0]
	score_text.y_min = 219;

	score_text.fore_color = C_WHITE;
	score_text.back_color = C_BLACK;
 80029b0:	e9c3 6403 	strd	r6, r4, [r3, #12]
	score_text.x_min = 242;
 80029b4:	605a      	str	r2, [r3, #4]

	score_text.font = (UG_FONT*) &FONT_8X12;   
 80029b6:	609d      	str	r5, [r3, #8]
}
 80029b8:	e8bd 81f0 	ldmia.w	sp!, {r4, r5, r6, r7, r8, pc}
 80029bc:	20000af4 	.word	0x20000af4
 80029c0:	04040101 	.word	0x04040101
 80029c4:	20000acc 	.word	0x20000acc
 80029c8:	00ef013f 	.word	0x00ef013f
 80029cc:	20000a34 	.word	0x20000a34
 80029d0:	ffff009f 	.word	0xffff009f
 80029d4:	00f00140 	.word	0x00f00140
 80029d8:	08036438 	.word	0x08036438
 80029dc:	0077009f 	.word	0x0077009f
 80029e0:	00f0013f 	.word	0x00f0013f
 80029e4:	0078009f 	.word	0x0078009f
 80029e8:	200005c0 	.word	0x200005c0
 80029ec:	08035a74 	.word	0x08035a74
 80029f0:	20000560 	.word	0x20000560
 80029f4:	20000020 	.word	0x20000020
 80029f8:	20000374 	.word	0x20000374
 80029fc:	00cd00f3 	.word	0x00cd00f3
 8002a00:	0805bce4 	.word	0x0805bce4
 8002a04:	08008cf0 	.word	0x08008cf0
 8002a08:	2000054c 	.word	0x2000054c
 8002a0c:	00db00f2 	.word	0x00db00f2
 8002a10:	20000af0 	.word	0x20000af0
 8002a14:	00190032 	.word	0x00190032

08002a18 <OBJ_init_small_sprite_object>:
{
 8002a18:	b570      	push	{r4, r5, r6, lr}
    sprite->image.image_array = (uint16_t*) small_sprite_img;
 8002a1a:	4b0d      	ldr	r3, [pc, #52]	@ (8002a50 <OBJ_init_small_sprite_object+0x38>)
 8002a1c:	6003      	str	r3, [r0, #0]
{
 8002a1e:	4616      	mov	r6, r2
    sprite->image.size = sprite->image.size_x * sprite->image.size_y;
 8002a20:	4a0c      	ldr	r2, [pc, #48]	@ (8002a54 <OBJ_init_small_sprite_object+0x3c>)
 8002a22:	f44f 53dc 	mov.w	r3, #7040	@ 0x1b80
 8002a26:	e9c0 2301 	strd	r2, r3, [r0, #4]
{
 8002a2a:	4604      	mov	r4, r0
 8002a2c:	460d      	mov	r5, r1
    GFX_init_location_restrictions(sprite, &canvas.whole_area);
 8002a2e:	490a      	ldr	r1, [pc, #40]	@ (8002a58 <OBJ_init_small_sprite_object+0x40>)
 8002a30:	f7fe ff60 	bl	80018f4 <GFX_init_location_restrictions>
    GFX_init_gfx_object_location(sprite, x, y);
 8002a34:	b232      	sxth	r2, r6
 8002a36:	b229      	sxth	r1, r5
 8002a38:	4620      	mov	r0, r4
 8002a3a:	f7fe ffc5 	bl	80019c8 <GFX_init_gfx_object_location>
    GFX_set_gfx_object_velocity(sprite, 0, 0);
 8002a3e:	2200      	movs	r2, #0
 8002a40:	4611      	mov	r1, r2
 8002a42:	4620      	mov	r0, r4
 8002a44:	f7ff f898 	bl	8001b78 <GFX_set_gfx_object_velocity>
    sprite->edge_behavior = EDGE_IGNORE;
 8002a48:	2302      	movs	r3, #2
 8002a4a:	f884 304a 	strb.w	r3, [r4, #74]	@ 0x4a
}
 8002a4e:	bd70      	pop	{r4, r5, r6, pc}
 8002a50:	080267f4 	.word	0x080267f4
 8002a54:	002000dc 	.word	0x002000dc
 8002a58:	20000acc 	.word	0x20000acc

08002a5c <OBJ_init_big_sprite>:
{
 8002a5c:	b570      	push	{r4, r5, r6, lr}
		big_sprite.image.image_array = (uint16_t*) big_sprite_img;
 8002a5e:	4c0e      	ldr	r4, [pc, #56]	@ (8002a98 <OBJ_init_big_sprite+0x3c>)
		big_sprite.image.size = big_sprite.image.size_x * big_sprite.image.size_y;
 8002a60:	4a0e      	ldr	r2, [pc, #56]	@ (8002a9c <OBJ_init_big_sprite+0x40>)
		big_sprite.image.image_array = (uint16_t*) big_sprite_img;
 8002a62:	4b0f      	ldr	r3, [pc, #60]	@ (8002aa0 <OBJ_init_big_sprite+0x44>)
 8002a64:	6023      	str	r3, [r4, #0]
{
 8002a66:	460e      	mov	r6, r1
		big_sprite.image.size = big_sprite.image.size_x * big_sprite.image.size_y;
 8002a68:	f243 63b0 	movw	r3, #14000	@ 0x36b0
		GFX_init_location_restrictions (&big_sprite, &canvas.whole_area );
 8002a6c:	490d      	ldr	r1, [pc, #52]	@ (8002aa4 <OBJ_init_big_sprite+0x48>)
{
 8002a6e:	4605      	mov	r5, r0
		GFX_init_location_restrictions (&big_sprite, &canvas.whole_area );
 8002a70:	4620      	mov	r0, r4
		big_sprite.image.size = big_sprite.image.size_x * big_sprite.image.size_y;
 8002a72:	e9c4 2301 	strd	r2, r3, [r4, #4]
		GFX_init_location_restrictions (&big_sprite, &canvas.whole_area );
 8002a76:	f7fe ff3d 	bl	80018f4 <GFX_init_location_restrictions>
		GFX_init_gfx_object_location( &big_sprite, x, y);
 8002a7a:	b232      	sxth	r2, r6
 8002a7c:	b229      	sxth	r1, r5
 8002a7e:	4620      	mov	r0, r4
 8002a80:	f7fe ffa2 	bl	80019c8 <GFX_init_gfx_object_location>
		GFX_set_gfx_object_velocity(&big_sprite, 0, 0);
 8002a84:	2200      	movs	r2, #0
 8002a86:	4611      	mov	r1, r2
 8002a88:	4620      	mov	r0, r4
 8002a8a:	f7ff f875 	bl	8001b78 <GFX_set_gfx_object_velocity>
		big_sprite.edge_behavior = EDGE_IGNORE;
 8002a8e:	2302      	movs	r3, #2
 8002a90:	f884 304a 	strb.w	r3, [r4, #74]	@ 0x4a
}
 8002a94:	bd70      	pop	{r4, r5, r6, pc}
 8002a96:	bf00      	nop
 8002a98:	200007d4 	.word	0x200007d4
 8002a9c:	00320118 	.word	0x00320118
 8002aa0:	0801fa94 	.word	0x0801fa94
 8002aa4:	20000acc 	.word	0x20000acc

08002aa8 <OBJ_init_high_score_sprite_large>:
{
 8002aa8:	b570      	push	{r4, r5, r6, lr}
		high_score_sprite_large.image.image_array = (uint16_t*) high_score_sprite_large_img;
 8002aaa:	4c0f      	ldr	r4, [pc, #60]	@ (8002ae8 <OBJ_init_high_score_sprite_large+0x40>)
		high_score_sprite_large.image.size = intro_sprite.image.size_x * intro_sprite.image.size_y;
 8002aac:	4a0f      	ldr	r2, [pc, #60]	@ (8002aec <OBJ_init_high_score_sprite_large+0x44>)
		high_score_sprite_large.image.image_array = (uint16_t*) high_score_sprite_large_img;
 8002aae:	4b10      	ldr	r3, [pc, #64]	@ (8002af0 <OBJ_init_high_score_sprite_large+0x48>)
 8002ab0:	6023      	str	r3, [r4, #0]
		high_score_sprite_large.image.size_x = 260;
 8002ab2:	4b10      	ldr	r3, [pc, #64]	@ (8002af4 <OBJ_init_high_score_sprite_large+0x4c>)
 8002ab4:	6063      	str	r3, [r4, #4]
		high_score_sprite_large.image.size = intro_sprite.image.size_x * intro_sprite.image.size_y;
 8002ab6:	8893      	ldrh	r3, [r2, #4]
 8002ab8:	88d2      	ldrh	r2, [r2, #6]
{
 8002aba:	4605      	mov	r5, r0
		high_score_sprite_large.image.size = intro_sprite.image.size_x * intro_sprite.image.size_y;
 8002abc:	fb02 f303 	mul.w	r3, r2, r3
{
 8002ac0:	460e      	mov	r6, r1
		GFX_init_location_restrictions (&high_score_sprite_large, &canvas.whole_area );
 8002ac2:	4620      	mov	r0, r4
 8002ac4:	490c      	ldr	r1, [pc, #48]	@ (8002af8 <OBJ_init_high_score_sprite_large+0x50>)
		high_score_sprite_large.image.size = intro_sprite.image.size_x * intro_sprite.image.size_y;
 8002ac6:	60a3      	str	r3, [r4, #8]
		GFX_init_location_restrictions (&high_score_sprite_large, &canvas.whole_area );
 8002ac8:	f7fe ff14 	bl	80018f4 <GFX_init_location_restrictions>
		GFX_init_gfx_object_location(&high_score_sprite_large, x, y);
 8002acc:	b232      	sxth	r2, r6
 8002ace:	b229      	sxth	r1, r5
 8002ad0:	4620      	mov	r0, r4
 8002ad2:	f7fe ff79 	bl	80019c8 <GFX_init_gfx_object_location>
		GFX_set_gfx_object_velocity(&high_score_sprite_large, 0, 0);
 8002ad6:	2200      	movs	r2, #0
 8002ad8:	4611      	mov	r1, r2
 8002ada:	4620      	mov	r0, r4
 8002adc:	f7ff f84c 	bl	8001b78 <GFX_set_gfx_object_velocity>
		high_score_sprite_large.edge_behavior = EDGE_IGNORE;
 8002ae0:	2302      	movs	r3, #2
 8002ae2:	f884 304a 	strb.w	r3, [r4, #74]	@ 0x4a
}
 8002ae6:	bd70      	pop	{r4, r5, r6, pc}
 8002ae8:	20000820 	.word	0x20000820
 8002aec:	20000a80 	.word	0x20000a80
 8002af0:	08008cf4 	.word	0x08008cf4
 8002af4:	00b40104 	.word	0x00b40104
 8002af8:	20000acc 	.word	0x20000acc

08002afc <OBJ_init_obstacle_pair>:
{
 8002afc:	b5f8      	push	{r3, r4, r5, r6, r7, lr}
    obstacle_pair->top.image.size_x = 50;
 8002afe:	4d0d      	ldr	r5, [pc, #52]	@ (8002b34 <OBJ_init_obstacle_pair+0x38>)
    obstacle_pair->top.image.image_array = (uint16_t*) obstacle_top_img;
 8002b00:	4b0d      	ldr	r3, [pc, #52]	@ (8002b38 <OBJ_init_obstacle_pair+0x3c>)
    GFX_init_location_restrictions(&obstacle_pair->top, &canvas.whole_area);
 8002b02:	4e0e      	ldr	r6, [pc, #56]	@ (8002b3c <OBJ_init_obstacle_pair+0x40>)
{
 8002b04:	4604      	mov	r4, r0
    obstacle_pair->top.image.size = obstacle_pair->top.image.size_x * obstacle_pair->top.image.size_y;
 8002b06:	f642 67e0 	movw	r7, #12000	@ 0x2ee0
    obstacle_pair->top.image.size_x = 50;
 8002b0a:	e9c0 3500 	strd	r3, r5, [r0]
    obstacle_pair->top.image.size = obstacle_pair->top.image.size_x * obstacle_pair->top.image.size_y;
 8002b0e:	6087      	str	r7, [r0, #8]
    GFX_init_location_restrictions(&obstacle_pair->top, &canvas.whole_area);
 8002b10:	4631      	mov	r1, r6
 8002b12:	f7fe feef 	bl	80018f4 <GFX_init_location_restrictions>
    obstacle_pair->bottom.image.image_array = (uint16_t*) obstacle_bottom_img;
 8002b16:	4b0a      	ldr	r3, [pc, #40]	@ (8002b40 <OBJ_init_obstacle_pair+0x44>)
    obstacle_pair->bottom.image.size_x = 50;
 8002b18:	6525      	str	r5, [r4, #80]	@ 0x50
    obstacle_pair->top.edge_behavior = EDGE_IGNORE;
 8002b1a:	2502      	movs	r5, #2
 8002b1c:	f884 504a 	strb.w	r5, [r4, #74]	@ 0x4a
    obstacle_pair->bottom.image.image_array = (uint16_t*) obstacle_bottom_img;
 8002b20:	64e3      	str	r3, [r4, #76]	@ 0x4c
    obstacle_pair->bottom.image.size = obstacle_pair->bottom.image.size_x * obstacle_pair->bottom.image.size_y;
 8002b22:	6567      	str	r7, [r4, #84]	@ 0x54
    GFX_init_location_restrictions(&obstacle_pair->bottom, &canvas.whole_area);
 8002b24:	4631      	mov	r1, r6
 8002b26:	f104 004c 	add.w	r0, r4, #76	@ 0x4c
 8002b2a:	f7fe fee3 	bl	80018f4 <GFX_init_location_restrictions>
    obstacle_pair->bottom.edge_behavior = EDGE_IGNORE;
 8002b2e:	f884 5096 	strb.w	r5, [r4, #150]	@ 0x96
}
 8002b32:	bdf8      	pop	{r3, r4, r5, r6, r7, pc}
 8002b34:	00f00032 	.word	0x00f00032
 8002b38:	08029ef4 	.word	0x08029ef4
 8002b3c:	20000acc 	.word	0x20000acc
 8002b40:	0802fcb4 	.word	0x0802fcb4

08002b44 <OBJ_set_score_text_value>:
{
 8002b44:	b510      	push	{r4, lr}
	sprintf(str, "%5i", score);
 8002b46:	4c04      	ldr	r4, [pc, #16]	@ (8002b58 <OBJ_set_score_text_value+0x14>)
 8002b48:	4904      	ldr	r1, [pc, #16]	@ (8002b5c <OBJ_set_score_text_value+0x18>)
{
 8002b4a:	4602      	mov	r2, r0
	sprintf(str, "%5i", score);
 8002b4c:	4620      	mov	r0, r4
 8002b4e:	f004 ffcb 	bl	8007ae8 <siprintf>
	score_text.text = str;
 8002b52:	4b03      	ldr	r3, [pc, #12]	@ (8002b60 <OBJ_set_score_text_value+0x1c>)
 8002b54:	601c      	str	r4, [r3, #0]
}
 8002b56:	bd10      	pop	{r4, pc}
 8002b58:	20000374 	.word	0x20000374
 8002b5c:	08008cf0 	.word	0x08008cf0
 8002b60:	2000054c 	.word	0x2000054c

08002b64 <OBJ_init_flappy_misko_text>:

	score_box_title.font = (UG_FONT*) &FONT_12X16;     
}

void OBJ_init_flappy_misko_text(int x_min, int y_min)
{
 8002b64:	b430      	push	{r4, r5}
    static char str[]= "FLAPPY MISKO";

    flappy_misko_text.text = str;
 8002b66:	4b07      	ldr	r3, [pc, #28]	@ (8002b84 <OBJ_init_flappy_misko_text+0x20>)
 8002b68:	4a07      	ldr	r2, [pc, #28]	@ (8002b88 <OBJ_init_flappy_misko_text+0x24>)
    flappy_misko_text.y_min = y_min;

    flappy_misko_text.fore_color = C_BLACK;
    flappy_misko_text.back_color = C_YELLOW;  

    flappy_misko_text.font = (UG_FONT*) &FONT_16X26;     
 8002b6a:	4c08      	ldr	r4, [pc, #32]	@ (8002b8c <OBJ_init_flappy_misko_text+0x28>)
    flappy_misko_text.text = str;
 8002b6c:	601a      	str	r2, [r3, #0]
    flappy_misko_text.fore_color = C_BLACK;
 8002b6e:	2500      	movs	r5, #0
 8002b70:	f64e 62a2 	movw	r2, #61090	@ 0xeea2
    flappy_misko_text.font = (UG_FONT*) &FONT_16X26;     
 8002b74:	e9c3 4502 	strd	r4, r5, [r3, #8]
    flappy_misko_text.x_min = x_min;
 8002b78:	8098      	strh	r0, [r3, #4]
}
 8002b7a:	bc30      	pop	{r4, r5}
    flappy_misko_text.y_min = y_min;
 8002b7c:	80d9      	strh	r1, [r3, #6]
    flappy_misko_text.fore_color = C_BLACK;
 8002b7e:	611a      	str	r2, [r3, #16]
}
 8002b80:	4770      	bx	lr
 8002b82:	bf00      	nop
 8002b84:	20000538 	.word	0x20000538
 8002b88:	20000010 	.word	0x20000010
 8002b8c:	0805bc90 	.word	0x0805bc90

08002b90 <OBJ_init_loading_text>:

void OBJ_init_loading_text(int x_min, int y_min, const char* str)
{
 8002b90:	b430      	push	{r4, r5}
    loading_text.text = str;
 8002b92:	4b06      	ldr	r3, [pc, #24]	@ (8002bac <OBJ_init_loading_text+0x1c>)
    loading_text.y_min = y_min;

    loading_text.fore_color = C_BLACK;
    loading_text.back_color = C_YELLOW;

    loading_text.font = (UG_FONT*) &FONT_12X20;     
 8002b94:	4c06      	ldr	r4, [pc, #24]	@ (8002bb0 <OBJ_init_loading_text+0x20>)
    loading_text.text = str;
 8002b96:	601a      	str	r2, [r3, #0]
    loading_text.fore_color = C_BLACK;
 8002b98:	2500      	movs	r5, #0
 8002b9a:	f64e 62a2 	movw	r2, #61090	@ 0xeea2
    loading_text.font = (UG_FONT*) &FONT_12X20;     
 8002b9e:	e9c3 4502 	strd	r4, r5, [r3, #8]
    loading_text.x_min = x_min;
 8002ba2:	8098      	strh	r0, [r3, #4]
}
 8002ba4:	bc30      	pop	{r4, r5}
    loading_text.y_min = y_min;
 8002ba6:	80d9      	strh	r1, [r3, #6]
    loading_text.fore_color = C_BLACK;
 8002ba8:	611a      	str	r2, [r3, #16]
}
 8002baa:	4770      	bx	lr
 8002bac:	20000520 	.word	0x20000520
 8002bb0:	0805bcac 	.word	0x0805bcac

08002bb4 <OBJ_init_text_small>:


void OBJ_init_text_small(int x_min, int y_min, const char* input_str, text_object_t *txt_object)
{
 8002bb4:	b430      	push	{r4, r5}
    txt_object->y_min = y_min;

    txt_object->fore_color = C_BLACK;
    txt_object->back_color = C_YELLOW;

    txt_object->font = (UG_FONT*) &FONT_12X16;     
 8002bb6:	4c06      	ldr	r4, [pc, #24]	@ (8002bd0 <OBJ_init_text_small+0x1c>)
    txt_object->text = input_str;
 8002bb8:	601a      	str	r2, [r3, #0]
    txt_object->fore_color = C_BLACK;
 8002bba:	2500      	movs	r5, #0
 8002bbc:	f64e 62a2 	movw	r2, #61090	@ 0xeea2
    txt_object->font = (UG_FONT*) &FONT_12X16;     
 8002bc0:	e9c3 4502 	strd	r4, r5, [r3, #8]
    txt_object->x_min = x_min;
 8002bc4:	8098      	strh	r0, [r3, #4]
}
 8002bc6:	bc30      	pop	{r4, r5}
    txt_object->y_min = y_min;
 8002bc8:	80d9      	strh	r1, [r3, #6]
    txt_object->fore_color = C_BLACK;
 8002bca:	611a      	str	r2, [r3, #16]
}
 8002bcc:	4770      	bx	lr
 8002bce:	bf00      	nop
 8002bd0:	0805bcc8 	.word	0x0805bcc8

08002bd4 <OBJ_init_text_big>:

void OBJ_init_text_big(int x_min, int y_min, const char* input_str, text_object_t *txt_object)
{
 8002bd4:	b430      	push	{r4, r5}
    txt_object->y_min = y_min;

    txt_object->fore_color = C_BLACK;
    txt_object->back_color = C_YELLOW;

    txt_object->font = (UG_FONT*) &FONT_16X26;     
 8002bd6:	4c06      	ldr	r4, [pc, #24]	@ (8002bf0 <OBJ_init_text_big+0x1c>)
    txt_object->text = input_str;
 8002bd8:	601a      	str	r2, [r3, #0]
    txt_object->fore_color = C_BLACK;
 8002bda:	2500      	movs	r5, #0
 8002bdc:	f64e 62a2 	movw	r2, #61090	@ 0xeea2
    txt_object->font = (UG_FONT*) &FONT_16X26;     
 8002be0:	e9c3 4502 	strd	r4, r5, [r3, #8]
    txt_object->x_min = x_min;
 8002be4:	8098      	strh	r0, [r3, #4]
}
 8002be6:	bc30      	pop	{r4, r5}
    txt_object->y_min = y_min;
 8002be8:	80d9      	strh	r1, [r3, #6]
    txt_object->fore_color = C_BLACK;
 8002bea:	611a      	str	r2, [r3, #16]
}
 8002bec:	4770      	bx	lr
 8002bee:	bf00      	nop
 8002bf0:	0805bc90 	.word	0x0805bc90

08002bf4 <OBJ_init_text_tiny>:

void OBJ_init_text_tiny(int x_min, int y_min, const char* input_str, text_object_t *txt_object)
{
 8002bf4:	b430      	push	{r4, r5}
    txt_object->y_min = y_min;

    txt_object->fore_color = C_BLACK;
    txt_object->back_color = C_YELLOW;

    txt_object->font = (UG_FONT*) &FONT_8X12;     
 8002bf6:	4c06      	ldr	r4, [pc, #24]	@ (8002c10 <OBJ_init_text_tiny+0x1c>)
    txt_object->text = input_str;
 8002bf8:	601a      	str	r2, [r3, #0]
    txt_object->fore_color = C_BLACK;
 8002bfa:	2500      	movs	r5, #0
 8002bfc:	f64e 62a2 	movw	r2, #61090	@ 0xeea2
    txt_object->font = (UG_FONT*) &FONT_8X12;     
 8002c00:	e9c3 4502 	strd	r4, r5, [r3, #8]
    txt_object->x_min = x_min;
 8002c04:	8098      	strh	r0, [r3, #4]
}
 8002c06:	bc30      	pop	{r4, r5}
    txt_object->y_min = y_min;
 8002c08:	80d9      	strh	r1, [r3, #6]
    txt_object->fore_color = C_BLACK;
 8002c0a:	611a      	str	r2, [r3, #16]
}
 8002c0c:	4770      	bx	lr
 8002c0e:	bf00      	nop
 8002c10:	0805bce4 	.word	0x0805bce4

08002c14 <SystemClock_Config>:
/**
  * @brief System Clock Configuration
  * @retval None
  */
void SystemClock_Config(void)
{
 8002c14:	b510      	push	{r4, lr}
 8002c16:	b094      	sub	sp, #80	@ 0x50
  RCC_OscInitTypeDef RCC_OscInitStruct = {0};
 8002c18:	2238      	movs	r2, #56	@ 0x38
 8002c1a:	2100      	movs	r1, #0
 8002c1c:	a806      	add	r0, sp, #24
 8002c1e:	f005 f85b 	bl	8007cd8 <memset>
  RCC_ClkInitTypeDef RCC_ClkInitStruct = {0};
 8002c22:	2000      	movs	r0, #0
 8002c24:	e9cd 0001 	strd	r0, r0, [sp, #4]
 8002c28:	e9cd 0003 	strd	r0, r0, [sp, #12]
 8002c2c:	9005      	str	r0, [sp, #20]

  /** Configure the main internal regulator output voltage
  */
  HAL_PWREx_ControlVoltageScaling(PWR_REGULATOR_VOLTAGE_SCALE1_BOOST);
 8002c2e:	f002 f817 	bl	8004c60 <HAL_PWREx_ControlVoltageScaling>
  /** Initializes the RCC Oscillators according to the specified parameters
  * in the RCC_OscInitTypeDef structure.
  */
  RCC_OscInitStruct.OscillatorType = RCC_OSCILLATORTYPE_HSE;
  RCC_OscInitStruct.HSEState = RCC_HSE_BYPASS;
  RCC_OscInitStruct.PLL.PLLState = RCC_PLL_ON;
 8002c32:	2302      	movs	r3, #2
  RCC_OscInitStruct.OscillatorType = RCC_OSCILLATORTYPE_HSE;
 8002c34:	2001      	movs	r0, #1
  RCC_OscInitStruct.PLL.PLLSource = RCC_PLLSOURCE_HSE;
  RCC_OscInitStruct.PLL.PLLM = RCC_PLLM_DIV2;
  RCC_OscInitStruct.PLL.PLLN = 85;
 8002c36:	2255      	movs	r2, #85	@ 0x55
  RCC_OscInitStruct.OscillatorType = RCC_OSCILLATORTYPE_HSE;
 8002c38:	f44f 21a0 	mov.w	r1, #327680	@ 0x50000
 8002c3c:	e9cd 0106 	strd	r0, r1, [sp, #24]
  RCC_OscInitStruct.PLL.PLLN = 85;
 8002c40:	e9cd 320f 	strd	r3, r2, [sp, #60]	@ 0x3c
  RCC_OscInitStruct.PLL.PLLSource = RCC_PLLSOURCE_HSE;
 8002c44:	2403      	movs	r4, #3
  RCC_OscInitStruct.PLL.PLLP = RCC_PLLP_DIV2;
 8002c46:	2206      	movs	r2, #6
  RCC_OscInitStruct.PLL.PLLQ = RCC_PLLQ_DIV6;
  RCC_OscInitStruct.PLL.PLLR = RCC_PLLR_DIV2;
  if (HAL_RCC_OscConfig(&RCC_OscInitStruct) != HAL_OK)
 8002c48:	a806      	add	r0, sp, #24
  RCC_OscInitStruct.PLL.PLLSource = RCC_PLLSOURCE_HSE;
 8002c4a:	e9cd 340d 	strd	r3, r4, [sp, #52]	@ 0x34
  RCC_OscInitStruct.PLL.PLLP = RCC_PLLP_DIV2;
 8002c4e:	e9cd 3211 	strd	r3, r2, [sp, #68]	@ 0x44
  RCC_OscInitStruct.PLL.PLLR = RCC_PLLR_DIV2;
 8002c52:	9313      	str	r3, [sp, #76]	@ 0x4c
  if (HAL_RCC_OscConfig(&RCC_OscInitStruct) != HAL_OK)
 8002c54:	f002 f87e 	bl	8004d54 <HAL_RCC_OscConfig>
 8002c58:	b108      	cbz	r0, 8002c5e <SystemClock_Config+0x4a>
  \details Disables IRQ interrupts by setting the I-bit in the CPSR.
           Can only be executed in Privileged modes.
 */
__STATIC_FORCEINLINE void __disable_irq(void)
{
  __ASM volatile ("cpsid i" : : : "memory");
 8002c5a:	b672      	cpsid	i
void Error_Handler(void)
{
  /* USER CODE BEGIN Error_Handler_Debug */
  /* User can add his own implementation to report the HAL error return state */
  __disable_irq();
  while (1)
 8002c5c:	e7fe      	b.n	8002c5c <SystemClock_Config+0x48>
  if (HAL_RCC_ClockConfig(&RCC_ClkInitStruct, FLASH_LATENCY_4) != HAL_OK)
 8002c5e:	2104      	movs	r1, #4
 8002c60:	4603      	mov	r3, r0
  RCC_ClkInitStruct.ClockType = RCC_CLOCKTYPE_HCLK|RCC_CLOCKTYPE_SYSCLK
 8002c62:	220f      	movs	r2, #15
  if (HAL_RCC_ClockConfig(&RCC_ClkInitStruct, FLASH_LATENCY_4) != HAL_OK)
 8002c64:	eb0d 0001 	add.w	r0, sp, r1
  RCC_ClkInitStruct.SYSCLKSource = RCC_SYSCLKSOURCE_PLLCLK;
 8002c68:	e9cd 2401 	strd	r2, r4, [sp, #4]
  RCC_ClkInitStruct.APB1CLKDivider = RCC_HCLK_DIV1;
 8002c6c:	e9cd 3303 	strd	r3, r3, [sp, #12]
  RCC_ClkInitStruct.APB2CLKDivider = RCC_HCLK_DIV1;
 8002c70:	9305      	str	r3, [sp, #20]
  if (HAL_RCC_ClockConfig(&RCC_ClkInitStruct, FLASH_LATENCY_4) != HAL_OK)
 8002c72:	f002 faed 	bl	8005250 <HAL_RCC_ClockConfig>
 8002c76:	b108      	cbz	r0, 8002c7c <SystemClock_Config+0x68>
 8002c78:	b672      	cpsid	i
  while (1)
 8002c7a:	e7fe      	b.n	8002c7a <SystemClock_Config+0x66>
}
 8002c7c:	b014      	add	sp, #80	@ 0x50
 8002c7e:	bd10      	pop	{r4, pc}

08002c80 <main>:
{
 8002c80:	e92d 4880 	stmdb	sp!, {r7, fp, lr}
  LL_GPIO_InitTypeDef GPIO_InitStruct = {0};
 8002c84:	2400      	movs	r4, #0
{
 8002c86:	b0b1      	sub	sp, #196	@ 0xc4
  HAL_Init();
 8002c88:	f000 fd8e 	bl	80037a8 <HAL_Init>
  SystemClock_Config();
 8002c8c:	f7ff ffc2 	bl	8002c14 <SystemClock_Config>
  LL_GPIO_InitTypeDef GPIO_InitStruct = {0};
 8002c90:	e9cd 441c 	strd	r4, r4, [sp, #112]	@ 0x70
 8002c94:	e9cd 441e 	strd	r4, r4, [sp, #120]	@ 0x78
  * @retval None
  */
__STATIC_INLINE void LL_AHB2_GRP1_EnableClock(uint32_t Periphs)
{
  __IO uint32_t tmpreg;
  SET_BIT(RCC->AHB2ENR, Periphs);
 8002c98:	4da5      	ldr	r5, [pc, #660]	@ (8002f30 <main+0x2b0>)
 8002c9a:	9420      	str	r4, [sp, #128]	@ 0x80
 8002c9c:	6ceb      	ldr	r3, [r5, #76]	@ 0x4c
  *         @arg @ref LL_GPIO_PIN_ALL
  * @retval None
  */
__STATIC_INLINE void LL_GPIO_ResetOutputPin(GPIO_TypeDef *GPIOx, uint32_t PinMask)
{
  WRITE_REG(GPIOx->BRR, PinMask);
 8002c9e:	f8df 82ac 	ldr.w	r8, [pc, #684]	@ 8002f4c <main+0x2cc>
 8002ca2:	4fa4      	ldr	r7, [pc, #656]	@ (8002f34 <main+0x2b4>)
 8002ca4:	f043 0304 	orr.w	r3, r3, #4
 8002ca8:	64eb      	str	r3, [r5, #76]	@ 0x4c
  /* Delay after an RCC peripheral clock enabling */
  tmpreg = READ_BIT(RCC->AHB2ENR, Periphs);
 8002caa:	6ceb      	ldr	r3, [r5, #76]	@ 0x4c
 8002cac:	f003 0304 	and.w	r3, r3, #4
 8002cb0:	9307      	str	r3, [sp, #28]
  (void)tmpreg;
 8002cb2:	9b07      	ldr	r3, [sp, #28]
  SET_BIT(RCC->AHB2ENR, Periphs);
 8002cb4:	6ceb      	ldr	r3, [r5, #76]	@ 0x4c
 8002cb6:	f043 0320 	orr.w	r3, r3, #32
 8002cba:	64eb      	str	r3, [r5, #76]	@ 0x4c
  tmpreg = READ_BIT(RCC->AHB2ENR, Periphs);
 8002cbc:	6ceb      	ldr	r3, [r5, #76]	@ 0x4c
 8002cbe:	f003 0320 	and.w	r3, r3, #32
 8002cc2:	9308      	str	r3, [sp, #32]
  (void)tmpreg;
 8002cc4:	9b08      	ldr	r3, [sp, #32]
  SET_BIT(RCC->AHB2ENR, Periphs);
 8002cc6:	6ceb      	ldr	r3, [r5, #76]	@ 0x4c
 8002cc8:	f043 0310 	orr.w	r3, r3, #16
 8002ccc:	64eb      	str	r3, [r5, #76]	@ 0x4c
  tmpreg = READ_BIT(RCC->AHB2ENR, Periphs);
 8002cce:	6ceb      	ldr	r3, [r5, #76]	@ 0x4c
 8002cd0:	f003 0310 	and.w	r3, r3, #16
 8002cd4:	9309      	str	r3, [sp, #36]	@ 0x24
  (void)tmpreg;
 8002cd6:	9b09      	ldr	r3, [sp, #36]	@ 0x24
  SET_BIT(RCC->AHB2ENR, Periphs);
 8002cd8:	6ceb      	ldr	r3, [r5, #76]	@ 0x4c
 8002cda:	f043 0302 	orr.w	r3, r3, #2
 8002cde:	64eb      	str	r3, [r5, #76]	@ 0x4c
  tmpreg = READ_BIT(RCC->AHB2ENR, Periphs);
 8002ce0:	6ceb      	ldr	r3, [r5, #76]	@ 0x4c
 8002ce2:	f003 0302 	and.w	r3, r3, #2
 8002ce6:	930a      	str	r3, [sp, #40]	@ 0x28
  (void)tmpreg;
 8002ce8:	9b0a      	ldr	r3, [sp, #40]	@ 0x28
  SET_BIT(RCC->AHB2ENR, Periphs);
 8002cea:	6ceb      	ldr	r3, [r5, #76]	@ 0x4c
 8002cec:	f043 0308 	orr.w	r3, r3, #8
 8002cf0:	64eb      	str	r3, [r5, #76]	@ 0x4c
  tmpreg = READ_BIT(RCC->AHB2ENR, Periphs);
 8002cf2:	6ceb      	ldr	r3, [r5, #76]	@ 0x4c
 8002cf4:	f003 0308 	and.w	r3, r3, #8
 8002cf8:	930b      	str	r3, [sp, #44]	@ 0x2c
  (void)tmpreg;
 8002cfa:	9b0b      	ldr	r3, [sp, #44]	@ 0x2c
  SET_BIT(RCC->AHB2ENR, Periphs);
 8002cfc:	6ceb      	ldr	r3, [r5, #76]	@ 0x4c
 8002cfe:	f043 0340 	orr.w	r3, r3, #64	@ 0x40
 8002d02:	64eb      	str	r3, [r5, #76]	@ 0x4c
  tmpreg = READ_BIT(RCC->AHB2ENR, Periphs);
 8002d04:	6ceb      	ldr	r3, [r5, #76]	@ 0x4c
 8002d06:	f003 0340 	and.w	r3, r3, #64	@ 0x40
 8002d0a:	930c      	str	r3, [sp, #48]	@ 0x30
 8002d0c:	f04f 0908 	mov.w	r9, #8
 8002d10:	2210      	movs	r2, #16
  (void)tmpreg;
 8002d12:	9b0c      	ldr	r3, [sp, #48]	@ 0x30
 8002d14:	f8c8 9028 	str.w	r9, [r8, #40]	@ 0x28
 8002d18:	f8c8 2028 	str.w	r2, [r8, #40]	@ 0x28
 8002d1c:	2220      	movs	r2, #32
 8002d1e:	f8c8 2028 	str.w	r2, [r8, #40]	@ 0x28
 8002d22:	4b85      	ldr	r3, [pc, #532]	@ (8002f38 <main+0x2b8>)
 8002d24:	4a85      	ldr	r2, [pc, #532]	@ (8002f3c <main+0x2bc>)
 8002d26:	2601      	movs	r6, #1
 8002d28:	f04f 0b04 	mov.w	fp, #4
 8002d2c:	f04f 0a02 	mov.w	sl, #2
 8002d30:	2140      	movs	r1, #64	@ 0x40
 8002d32:	62be      	str	r6, [r7, #40]	@ 0x28
  LL_GPIO_Init(GPIOC, &GPIO_InitStruct);
 8002d34:	4638      	mov	r0, r7
 8002d36:	f8c7 a028 	str.w	sl, [r7, #40]	@ 0x28
 8002d3a:	f8c7 b028 	str.w	fp, [r7, #40]	@ 0x28
 8002d3e:	f8c7 9028 	str.w	r9, [r7, #40]	@ 0x28
 8002d42:	f8c8 b028 	str.w	fp, [r8, #40]	@ 0x28
 8002d46:	f8c2 9028 	str.w	r9, [r2, #40]	@ 0x28
 8002d4a:	6291      	str	r1, [r2, #40]	@ 0x28
 8002d4c:	f8c3 a028 	str.w	sl, [r3, #40]	@ 0x28
 8002d50:	a91b      	add	r1, sp, #108	@ 0x6c
  GPIO_InitStruct.Pin = LL_GPIO_PIN_13;
 8002d52:	f44f 5300 	mov.w	r3, #8192	@ 0x2000
  GPIO_InitStruct.Pull = LL_GPIO_PULL_UP;
 8002d56:	961f      	str	r6, [sp, #124]	@ 0x7c
  GPIO_InitStruct.Pin = LL_GPIO_PIN_13;
 8002d58:	931b      	str	r3, [sp, #108]	@ 0x6c
  LL_GPIO_Init(GPIOC, &GPIO_InitStruct);
 8002d5a:	f003 f887 	bl	8005e6c <LL_GPIO_Init>
  GPIO_InitStruct.Pin = LL_GPIO_PIN_14;
 8002d5e:	f44f 4380 	mov.w	r3, #16384	@ 0x4000
  LL_GPIO_Init(GPIOC, &GPIO_InitStruct);
 8002d62:	a91b      	add	r1, sp, #108	@ 0x6c
 8002d64:	4638      	mov	r0, r7
  GPIO_InitStruct.Pin = LL_GPIO_PIN_14;
 8002d66:	931b      	str	r3, [sp, #108]	@ 0x6c
  GPIO_InitStruct.Pull = LL_GPIO_PULL_UP;
 8002d68:	961f      	str	r6, [sp, #124]	@ 0x7c
  GPIO_InitStruct.Mode = LL_GPIO_MODE_INPUT;
 8002d6a:	941c      	str	r4, [sp, #112]	@ 0x70
  LL_GPIO_Init(GPIOC, &GPIO_InitStruct);
 8002d6c:	f003 f87e 	bl	8005e6c <LL_GPIO_Init>
  GPIO_InitStruct.Pin = LL_GPIO_PIN_15;
 8002d70:	f44f 4000 	mov.w	r0, #32768	@ 0x8000
  LL_GPIO_Init(GPIOC, &GPIO_InitStruct);
 8002d74:	a91b      	add	r1, sp, #108	@ 0x6c
  GPIO_InitStruct.Pin = LL_GPIO_PIN_15;
 8002d76:	901b      	str	r0, [sp, #108]	@ 0x6c
  LL_GPIO_Init(GPIOC, &GPIO_InitStruct);
 8002d78:	4638      	mov	r0, r7
  GPIO_InitStruct.Pull = LL_GPIO_PULL_UP;
 8002d7a:	961f      	str	r6, [sp, #124]	@ 0x7c
  GPIO_InitStruct.Mode = LL_GPIO_MODE_INPUT;
 8002d7c:	941c      	str	r4, [sp, #112]	@ 0x70
  LL_GPIO_Init(GPIOC, &GPIO_InitStruct);
 8002d7e:	f003 f875 	bl	8005e6c <LL_GPIO_Init>
  LL_GPIO_Init(GPIOF, &GPIO_InitStruct);
 8002d82:	a91b      	add	r1, sp, #108	@ 0x6c
 8002d84:	4640      	mov	r0, r8
  GPIO_InitStruct.Mode = LL_GPIO_MODE_OUTPUT;
 8002d86:	e9cd 961b 	strd	r9, r6, [sp, #108]	@ 0x6c
  GPIO_InitStruct.OutputType = LL_GPIO_OUTPUT_PUSHPULL;
 8002d8a:	e9cd 441d 	strd	r4, r4, [sp, #116]	@ 0x74
  GPIO_InitStruct.Pull = LL_GPIO_PULL_NO;
 8002d8e:	941f      	str	r4, [sp, #124]	@ 0x7c
  LL_GPIO_Init(GPIOF, &GPIO_InitStruct);
 8002d90:	f003 f86c 	bl	8005e6c <LL_GPIO_Init>
  GPIO_InitStruct.Pin = LL_GPIO_PIN_4;
 8002d94:	2210      	movs	r2, #16
  LL_GPIO_Init(GPIOF, &GPIO_InitStruct);
 8002d96:	a91b      	add	r1, sp, #108	@ 0x6c
 8002d98:	4640      	mov	r0, r8
  GPIO_InitStruct.Mode = LL_GPIO_MODE_OUTPUT;
 8002d9a:	e9cd 261b 	strd	r2, r6, [sp, #108]	@ 0x6c
  GPIO_InitStruct.OutputType = LL_GPIO_OUTPUT_PUSHPULL;
 8002d9e:	e9cd 441d 	strd	r4, r4, [sp, #116]	@ 0x74
  GPIO_InitStruct.Pull = LL_GPIO_PULL_NO;
 8002da2:	941f      	str	r4, [sp, #124]	@ 0x7c
  LL_GPIO_Init(GPIOF, &GPIO_InitStruct);
 8002da4:	f003 f862 	bl	8005e6c <LL_GPIO_Init>
  GPIO_InitStruct.Pin = LL_GPIO_PIN_5;
 8002da8:	2320      	movs	r3, #32
  LL_GPIO_Init(GPIOF, &GPIO_InitStruct);
 8002daa:	a91b      	add	r1, sp, #108	@ 0x6c
 8002dac:	4640      	mov	r0, r8
  GPIO_InitStruct.Mode = LL_GPIO_MODE_OUTPUT;
 8002dae:	e9cd 361b 	strd	r3, r6, [sp, #108]	@ 0x6c
  GPIO_InitStruct.OutputType = LL_GPIO_OUTPUT_PUSHPULL;
 8002db2:	e9cd 441d 	strd	r4, r4, [sp, #116]	@ 0x74
  GPIO_InitStruct.Pull = LL_GPIO_PULL_NO;
 8002db6:	941f      	str	r4, [sp, #124]	@ 0x7c
  LL_GPIO_Init(GPIOF, &GPIO_InitStruct);
 8002db8:	f003 f858 	bl	8005e6c <LL_GPIO_Init>
  LL_GPIO_Init(GPIOC, &GPIO_InitStruct);
 8002dbc:	a91b      	add	r1, sp, #108	@ 0x6c
 8002dbe:	4638      	mov	r0, r7
  GPIO_InitStruct.Mode = LL_GPIO_MODE_OUTPUT;
 8002dc0:	e9cd 661b 	strd	r6, r6, [sp, #108]	@ 0x6c
  GPIO_InitStruct.OutputType = LL_GPIO_OUTPUT_PUSHPULL;
 8002dc4:	e9cd 441d 	strd	r4, r4, [sp, #116]	@ 0x74
  GPIO_InitStruct.Pull = LL_GPIO_PULL_NO;
 8002dc8:	941f      	str	r4, [sp, #124]	@ 0x7c
  LL_GPIO_Init(GPIOC, &GPIO_InitStruct);
 8002dca:	f003 f84f 	bl	8005e6c <LL_GPIO_Init>
  LL_GPIO_Init(GPIOC, &GPIO_InitStruct);
 8002dce:	a91b      	add	r1, sp, #108	@ 0x6c
 8002dd0:	4638      	mov	r0, r7
  GPIO_InitStruct.Mode = LL_GPIO_MODE_OUTPUT;
 8002dd2:	e9cd a61b 	strd	sl, r6, [sp, #108]	@ 0x6c
  GPIO_InitStruct.OutputType = LL_GPIO_OUTPUT_PUSHPULL;
 8002dd6:	e9cd 441d 	strd	r4, r4, [sp, #116]	@ 0x74
  GPIO_InitStruct.Pull = LL_GPIO_PULL_NO;
 8002dda:	941f      	str	r4, [sp, #124]	@ 0x7c
  LL_GPIO_Init(GPIOC, &GPIO_InitStruct);
 8002ddc:	f003 f846 	bl	8005e6c <LL_GPIO_Init>
  LL_GPIO_Init(GPIOC, &GPIO_InitStruct);
 8002de0:	a91b      	add	r1, sp, #108	@ 0x6c
 8002de2:	4638      	mov	r0, r7
  GPIO_InitStruct.Mode = LL_GPIO_MODE_OUTPUT;
 8002de4:	e9cd b61b 	strd	fp, r6, [sp, #108]	@ 0x6c
  GPIO_InitStruct.OutputType = LL_GPIO_OUTPUT_PUSHPULL;
 8002de8:	e9cd 441d 	strd	r4, r4, [sp, #116]	@ 0x74
  GPIO_InitStruct.Pull = LL_GPIO_PULL_NO;
 8002dec:	941f      	str	r4, [sp, #124]	@ 0x7c
  LL_GPIO_Init(GPIOC, &GPIO_InitStruct);
 8002dee:	f003 f83d 	bl	8005e6c <LL_GPIO_Init>
  LL_GPIO_Init(GPIOC, &GPIO_InitStruct);
 8002df2:	4638      	mov	r0, r7
 8002df4:	a91b      	add	r1, sp, #108	@ 0x6c
  GPIO_InitStruct.Mode = LL_GPIO_MODE_OUTPUT;
 8002df6:	e9cd 961b 	strd	r9, r6, [sp, #108]	@ 0x6c
  GPIO_InitStruct.OutputType = LL_GPIO_OUTPUT_PUSHPULL;
 8002dfa:	e9cd 441d 	strd	r4, r4, [sp, #116]	@ 0x74
  GPIO_InitStruct.Pull = LL_GPIO_PULL_NO;
 8002dfe:	941f      	str	r4, [sp, #124]	@ 0x7c
  LL_GPIO_Init(GPIOC, &GPIO_InitStruct);
 8002e00:	f003 f834 	bl	8005e6c <LL_GPIO_Init>
  LL_GPIO_Init(GPIOF, &GPIO_InitStruct);
 8002e04:	a91b      	add	r1, sp, #108	@ 0x6c
 8002e06:	4640      	mov	r0, r8
  GPIO_InitStruct.Mode = LL_GPIO_MODE_OUTPUT;
 8002e08:	e9cd b61b 	strd	fp, r6, [sp, #108]	@ 0x6c
  GPIO_InitStruct.OutputType = LL_GPIO_OUTPUT_PUSHPULL;
 8002e0c:	e9cd 441d 	strd	r4, r4, [sp, #116]	@ 0x74
  GPIO_InitStruct.Pull = LL_GPIO_PULL_NO;
 8002e10:	941f      	str	r4, [sp, #124]	@ 0x7c
  LL_GPIO_Init(GPIOF, &GPIO_InitStruct);
 8002e12:	f003 f82b 	bl	8005e6c <LL_GPIO_Init>
  LL_GPIO_Init(GPIOG, &GPIO_InitStruct);
 8002e16:	a91b      	add	r1, sp, #108	@ 0x6c
 8002e18:	4849      	ldr	r0, [pc, #292]	@ (8002f40 <main+0x2c0>)
  GPIO_InitStruct.Pull = LL_GPIO_PULL_UP;
 8002e1a:	961f      	str	r6, [sp, #124]	@ 0x7c
  GPIO_InitStruct.Mode = LL_GPIO_MODE_INPUT;
 8002e1c:	e9cd 641b 	strd	r6, r4, [sp, #108]	@ 0x6c
  LL_GPIO_Init(GPIOG, &GPIO_InitStruct);
 8002e20:	f003 f824 	bl	8005e6c <LL_GPIO_Init>
  LL_GPIO_Init(GPIOG, &GPIO_InitStruct);
 8002e24:	a91b      	add	r1, sp, #108	@ 0x6c
 8002e26:	4846      	ldr	r0, [pc, #280]	@ (8002f40 <main+0x2c0>)
  GPIO_InitStruct.Pull = LL_GPIO_PULL_UP;
 8002e28:	961f      	str	r6, [sp, #124]	@ 0x7c
  GPIO_InitStruct.Mode = LL_GPIO_MODE_INPUT;
 8002e2a:	e9cd a41b 	strd	sl, r4, [sp, #108]	@ 0x6c
  LL_GPIO_Init(GPIOG, &GPIO_InitStruct);
 8002e2e:	f003 f81d 	bl	8005e6c <LL_GPIO_Init>
  GPIO_InitStruct.Pin = LL_GPIO_PIN_6;
 8002e32:	2340      	movs	r3, #64	@ 0x40
  LL_GPIO_Init(GPIOG, &GPIO_InitStruct);
 8002e34:	a91b      	add	r1, sp, #108	@ 0x6c
 8002e36:	4842      	ldr	r0, [pc, #264]	@ (8002f40 <main+0x2c0>)
  GPIO_InitStruct.Pull = LL_GPIO_PULL_UP;
 8002e38:	961f      	str	r6, [sp, #124]	@ 0x7c
  GPIO_InitStruct.Mode = LL_GPIO_MODE_INPUT;
 8002e3a:	e9cd 341b 	strd	r3, r4, [sp, #108]	@ 0x6c
  GPIO_InitStruct.Pin = LL_GPIO_PIN_8;
 8002e3e:	f44f 7780 	mov.w	r7, #256	@ 0x100
  LL_GPIO_Init(GPIOG, &GPIO_InitStruct);
 8002e42:	f003 f813 	bl	8005e6c <LL_GPIO_Init>
  LL_GPIO_Init(GPIOG, &GPIO_InitStruct);
 8002e46:	a91b      	add	r1, sp, #108	@ 0x6c
 8002e48:	483d      	ldr	r0, [pc, #244]	@ (8002f40 <main+0x2c0>)
  GPIO_InitStruct.Pull = LL_GPIO_PULL_UP;
 8002e4a:	961f      	str	r6, [sp, #124]	@ 0x7c
  GPIO_InitStruct.Mode = LL_GPIO_MODE_INPUT;
 8002e4c:	941c      	str	r4, [sp, #112]	@ 0x70
  GPIO_InitStruct.Pin = LL_GPIO_PIN_8;
 8002e4e:	971b      	str	r7, [sp, #108]	@ 0x6c
  LL_GPIO_Init(GPIOG, &GPIO_InitStruct);
 8002e50:	f003 f80c 	bl	8005e6c <LL_GPIO_Init>
  LL_GPIO_Init(GPIOD, &GPIO_InitStruct);
 8002e54:	a91b      	add	r1, sp, #108	@ 0x6c
 8002e56:	4839      	ldr	r0, [pc, #228]	@ (8002f3c <main+0x2bc>)
  GPIO_InitStruct.Pull = LL_GPIO_PULL_NO;
 8002e58:	941f      	str	r4, [sp, #124]	@ 0x7c
  GPIO_InitStruct.Mode = LL_GPIO_MODE_OUTPUT;
 8002e5a:	e9cd 961b 	strd	r9, r6, [sp, #108]	@ 0x6c
  GPIO_InitStruct.OutputType = LL_GPIO_OUTPUT_PUSHPULL;
 8002e5e:	e9cd 441d 	strd	r4, r4, [sp, #116]	@ 0x74
  LL_GPIO_Init(GPIOD, &GPIO_InitStruct);
 8002e62:	f003 f803 	bl	8005e6c <LL_GPIO_Init>
  GPIO_InitStruct.Pin = LL_GPIO_PIN_6;
 8002e66:	2340      	movs	r3, #64	@ 0x40
  LL_GPIO_Init(GPIOD, &GPIO_InitStruct);
 8002e68:	a91b      	add	r1, sp, #108	@ 0x6c
 8002e6a:	4834      	ldr	r0, [pc, #208]	@ (8002f3c <main+0x2bc>)
  GPIO_InitStruct.Pull = LL_GPIO_PULL_NO;
 8002e6c:	941f      	str	r4, [sp, #124]	@ 0x7c
  GPIO_InitStruct.Mode = LL_GPIO_MODE_OUTPUT;
 8002e6e:	e9cd 361b 	strd	r3, r6, [sp, #108]	@ 0x6c
  GPIO_InitStruct.OutputType = LL_GPIO_OUTPUT_PUSHPULL;
 8002e72:	e9cd 441d 	strd	r4, r4, [sp, #116]	@ 0x74
  LL_GPIO_Init(GPIOD, &GPIO_InitStruct);
 8002e76:	f002 fff9 	bl	8005e6c <LL_GPIO_Init>
  LL_GPIO_Init(GPIOE, &GPIO_InitStruct);
 8002e7a:	4b2f      	ldr	r3, [pc, #188]	@ (8002f38 <main+0x2b8>)
  GPIO_InitStruct.Mode = LL_GPIO_MODE_OUTPUT;
 8002e7c:	961c      	str	r6, [sp, #112]	@ 0x70
  LL_GPIO_Init(GPIOE, &GPIO_InitStruct);
 8002e7e:	4618      	mov	r0, r3
 8002e80:	a91b      	add	r1, sp, #108	@ 0x6c
  GPIO_InitStruct.OutputType = LL_GPIO_OUTPUT_PUSHPULL;
 8002e82:	e9cd 441d 	strd	r4, r4, [sp, #116]	@ 0x74
  GPIO_InitStruct.Pin = LL_GPIO_PIN_1;
 8002e86:	f8cd a06c 	str.w	sl, [sp, #108]	@ 0x6c
  GPIO_InitStruct.Pull = LL_GPIO_PULL_NO;
 8002e8a:	941f      	str	r4, [sp, #124]	@ 0x7c
  LL_GPIO_Init(GPIOE, &GPIO_InitStruct);
 8002e8c:	f002 ffee 	bl	8005e6c <LL_GPIO_Init>
  __HAL_RCC_DMAMUX1_CLK_ENABLE();
 8002e90:	6cab      	ldr	r3, [r5, #72]	@ 0x48
  hdma_memtomem_dma1_channel1.Instance = DMA1_Channel1;
 8002e92:	482c      	ldr	r0, [pc, #176]	@ (8002f44 <main+0x2c4>)
  __HAL_RCC_DMAMUX1_CLK_ENABLE();
 8002e94:	ea43 030b 	orr.w	r3, r3, fp
 8002e98:	64ab      	str	r3, [r5, #72]	@ 0x48
 8002e9a:	6cab      	ldr	r3, [r5, #72]	@ 0x48
 8002e9c:	ea03 030b 	and.w	r3, r3, fp
 8002ea0:	9305      	str	r3, [sp, #20]
 8002ea2:	9b05      	ldr	r3, [sp, #20]
  __HAL_RCC_DMA1_CLK_ENABLE();
 8002ea4:	6cab      	ldr	r3, [r5, #72]	@ 0x48
 8002ea6:	4333      	orrs	r3, r6
 8002ea8:	64ab      	str	r3, [r5, #72]	@ 0x48
 8002eaa:	6cab      	ldr	r3, [r5, #72]	@ 0x48
  hdma_memtomem_dma1_channel1.Init.Request = DMA_REQUEST_MEM2MEM;
 8002eac:	6044      	str	r4, [r0, #4]
  __HAL_RCC_DMA1_CLK_ENABLE();
 8002eae:	4033      	ands	r3, r6
 8002eb0:	9306      	str	r3, [sp, #24]
  hdma_memtomem_dma1_channel1.Init.PeriphInc = DMA_PINC_ENABLE;
 8002eb2:	f44f 4680 	mov.w	r6, #16384	@ 0x4000
  __HAL_RCC_DMA1_CLK_ENABLE();
 8002eb6:	9b06      	ldr	r3, [sp, #24]
  hdma_memtomem_dma1_channel1.Init.Mode = DMA_NORMAL;
 8002eb8:	61c4      	str	r4, [r0, #28]
  hdma_memtomem_dma1_channel1.Init.PeriphInc = DMA_PINC_ENABLE;
 8002eba:	2340      	movs	r3, #64	@ 0x40
 8002ebc:	e9c0 6302 	strd	r6, r3, [r0, #8]
  hdma_memtomem_dma1_channel1.Init.Priority = DMA_PRIORITY_HIGH;
 8002ec0:	f44f 5300 	mov.w	r3, #8192	@ 0x2000
 8002ec4:	6203      	str	r3, [r0, #32]
  hdma_memtomem_dma1_channel1.Init.MemInc = DMA_MINC_ENABLE;
 8002ec6:	2680      	movs	r6, #128	@ 0x80
  hdma_memtomem_dma1_channel1.Instance = DMA1_Channel1;
 8002ec8:	4b1f      	ldr	r3, [pc, #124]	@ (8002f48 <main+0x2c8>)
 8002eca:	6003      	str	r3, [r0, #0]
  hdma_memtomem_dma1_channel1.Init.MemDataAlignment = DMA_MDATAALIGN_BYTE;
 8002ecc:	e9c0 4405 	strd	r4, r4, [r0, #20]
  hdma_memtomem_dma1_channel1.Init.MemInc = DMA_MINC_ENABLE;
 8002ed0:	6106      	str	r6, [r0, #16]
  if (HAL_DMA_Init(&hdma_memtomem_dma1_channel1) != HAL_OK)
 8002ed2:	f001 fa81 	bl	80043d8 <HAL_DMA_Init>
 8002ed6:	b108      	cbz	r0, 8002edc <main+0x25c>
 8002ed8:	b672      	cpsid	i
  while (1)
 8002eda:	e7fe      	b.n	8002eda <main+0x25a>
  HAL_NVIC_SetPriority(DMA1_Channel1_IRQn, 0, 0);
 8002edc:	4604      	mov	r4, r0
 8002ede:	4602      	mov	r2, r0
 8002ee0:	4601      	mov	r1, r0
 8002ee2:	200b      	movs	r0, #11
 8002ee4:	f001 fa14 	bl	8004310 <HAL_NVIC_SetPriority>
  HAL_NVIC_EnableIRQ(DMA1_Channel1_IRQn);
 8002ee8:	200b      	movs	r0, #11
 8002eea:	f001 fa4d 	bl	8004388 <HAL_NVIC_EnableIRQ>
  HAL_NVIC_SetPriority(DMA1_Channel2_IRQn, 0, 0);
 8002eee:	4622      	mov	r2, r4
 8002ef0:	4621      	mov	r1, r4
 8002ef2:	200c      	movs	r0, #12
 8002ef4:	f001 fa0c 	bl	8004310 <HAL_NVIC_SetPriority>
  HAL_NVIC_EnableIRQ(DMA1_Channel2_IRQn);
 8002ef8:	200c      	movs	r0, #12
 8002efa:	f001 fa45 	bl	8004388 <HAL_NVIC_EnableIRQ>
  LL_USART_InitTypeDef USART_InitStruct = {0};
 8002efe:	4621      	mov	r1, r4
 8002f00:	2220      	movs	r2, #32
 8002f02:	a813      	add	r0, sp, #76	@ 0x4c
 8002f04:	f004 fee8 	bl	8007cd8 <memset>
  RCC_PeriphCLKInitTypeDef PeriphClkInit = {0};
 8002f08:	4621      	mov	r1, r4
 8002f0a:	2250      	movs	r2, #80	@ 0x50
 8002f0c:	a81c      	add	r0, sp, #112	@ 0x70
  LL_GPIO_InitTypeDef GPIO_InitStruct = {0};
 8002f0e:	e9cd 440d 	strd	r4, r4, [sp, #52]	@ 0x34
 8002f12:	e9cd 440f 	strd	r4, r4, [sp, #60]	@ 0x3c
 8002f16:	e9cd 4411 	strd	r4, r4, [sp, #68]	@ 0x44
  RCC_PeriphCLKInitTypeDef PeriphClkInit = {0};
 8002f1a:	f004 fedd 	bl	8007cd8 <memset>
  if (HAL_RCCEx_PeriphCLKConfig(&PeriphClkInit) != HAL_OK)
 8002f1e:	a81b      	add	r0, sp, #108	@ 0x6c
  PeriphClkInit.PeriphClockSelection = RCC_PERIPHCLK_USART3;
 8002f20:	f8cd b06c 	str.w	fp, [sp, #108]	@ 0x6c
  if (HAL_RCCEx_PeriphCLKConfig(&PeriphClkInit) != HAL_OK)
 8002f24:	f002 fa98 	bl	8005458 <HAL_RCCEx_PeriphCLKConfig>
 8002f28:	4604      	mov	r4, r0
 8002f2a:	b188      	cbz	r0, 8002f50 <main+0x2d0>
 8002f2c:	b672      	cpsid	i
  while (1)
 8002f2e:	e7fe      	b.n	8002f2e <main+0x2ae>
 8002f30:	40021000 	.word	0x40021000
 8002f34:	48000800 	.word	0x48000800
 8002f38:	48001000 	.word	0x48001000
 8002f3c:	48000c00 	.word	0x48000c00
 8002f40:	48001800 	.word	0x48001800
 8002f44:	20000b54 	.word	0x20000b54
 8002f48:	40020008 	.word	0x40020008
 8002f4c:	48001400 	.word	0x48001400
  * @retval None
  */
__STATIC_INLINE void LL_APB1_GRP1_EnableClock(uint32_t Periphs)
{
  __IO uint32_t tmpreg;
  SET_BIT(RCC->APB1ENR1, Periphs);
 8002f50:	6dab      	ldr	r3, [r5, #88]	@ 0x58
 8002f52:	f443 2380 	orr.w	r3, r3, #262144	@ 0x40000
 8002f56:	65ab      	str	r3, [r5, #88]	@ 0x58
  /* Delay after an RCC peripheral clock enabling */
  tmpreg = READ_BIT(RCC->APB1ENR1, Periphs);
 8002f58:	6dab      	ldr	r3, [r5, #88]	@ 0x58
 8002f5a:	f403 2380 	and.w	r3, r3, #262144	@ 0x40000
 8002f5e:	9303      	str	r3, [sp, #12]
  (void)tmpreg;
 8002f60:	9b03      	ldr	r3, [sp, #12]
  SET_BIT(RCC->AHB2ENR, Periphs);
 8002f62:	6ceb      	ldr	r3, [r5, #76]	@ 0x4c
 8002f64:	f043 0302 	orr.w	r3, r3, #2
 8002f68:	64eb      	str	r3, [r5, #76]	@ 0x4c
  tmpreg = READ_BIT(RCC->AHB2ENR, Periphs);
 8002f6a:	6ceb      	ldr	r3, [r5, #76]	@ 0x4c
  GPIO_InitStruct.Pin = LL_GPIO_PIN_8;
 8002f6c:	970d      	str	r7, [sp, #52]	@ 0x34
 8002f6e:	f003 0302 	and.w	r3, r3, #2
  GPIO_InitStruct.Speed = LL_GPIO_SPEED_FREQ_LOW;
 8002f72:	e9cd a00e 	strd	sl, r0, [sp, #56]	@ 0x38
  GPIO_InitStruct.Pull = LL_GPIO_PULL_NO;
 8002f76:	e9cd 0010 	strd	r0, r0, [sp, #64]	@ 0x40
 8002f7a:	9304      	str	r3, [sp, #16]
  GPIO_InitStruct.Alternate = LL_GPIO_AF_7;
 8002f7c:	2507      	movs	r5, #7
  LL_GPIO_Init(GPIOB, &GPIO_InitStruct);
 8002f7e:	a90d      	add	r1, sp, #52	@ 0x34
 8002f80:	48bf      	ldr	r0, [pc, #764]	@ (8003280 <main+0x600>)
  (void)tmpreg;
 8002f82:	9b04      	ldr	r3, [sp, #16]
  GPIO_InitStruct.Alternate = LL_GPIO_AF_7;
 8002f84:	9512      	str	r5, [sp, #72]	@ 0x48
  LL_GPIO_Init(GPIOB, &GPIO_InitStruct);
 8002f86:	f002 ff71 	bl	8005e6c <LL_GPIO_Init>
  GPIO_InitStruct.Pin = LL_GPIO_PIN_9;
 8002f8a:	f44f 7300 	mov.w	r3, #512	@ 0x200
  LL_GPIO_Init(GPIOB, &GPIO_InitStruct);
 8002f8e:	a90d      	add	r1, sp, #52	@ 0x34
 8002f90:	48bb      	ldr	r0, [pc, #748]	@ (8003280 <main+0x600>)
  GPIO_InitStruct.Pin = LL_GPIO_PIN_9;
 8002f92:	930d      	str	r3, [sp, #52]	@ 0x34
  GPIO_InitStruct.OutputType = LL_GPIO_OUTPUT_PUSHPULL;
 8002f94:	e9cd 440f 	strd	r4, r4, [sp, #60]	@ 0x3c
  GPIO_InitStruct.Mode = LL_GPIO_MODE_ALTERNATE;
 8002f98:	f8cd a038 	str.w	sl, [sp, #56]	@ 0x38
  GPIO_InitStruct.Alternate = LL_GPIO_AF_7;
 8002f9c:	9512      	str	r5, [sp, #72]	@ 0x48
  GPIO_InitStruct.Pull = LL_GPIO_PULL_NO;
 8002f9e:	9411      	str	r4, [sp, #68]	@ 0x44
  LL_GPIO_Init(GPIOB, &GPIO_InitStruct);
 8002fa0:	f002 ff64 	bl	8005e6c <LL_GPIO_Init>
  \details Reads the priority grouping field from the NVIC Interrupt Controller.
  \return                Priority grouping field (SCB->AIRCR [10:8] PRIGROUP field).
 */
__STATIC_INLINE uint32_t __NVIC_GetPriorityGrouping(void)
{
  return ((uint32_t)((SCB->AIRCR & SCB_AIRCR_PRIGROUP_Msk) >> SCB_AIRCR_PRIGROUP_Pos));
 8002fa4:	4bb7      	ldr	r3, [pc, #732]	@ (8003284 <main+0x604>)
 8002fa6:	68db      	ldr	r3, [r3, #12]
 */
__STATIC_INLINE void __NVIC_SetPriority(IRQn_Type IRQn, uint32_t priority)
{
  if ((int32_t)(IRQn) >= 0)
  {
    NVIC->IP[((uint32_t)IRQn)]               = (uint8_t)((priority << (8U - __NVIC_PRIO_BITS)) & (uint32_t)0xFFUL);
 8002fa8:	4bb7      	ldr	r3, [pc, #732]	@ (8003288 <main+0x608>)
 8002faa:	f883 4327 	strb.w	r4, [r3, #807]	@ 0x327
    NVIC->ISER[(((uint32_t)IRQn) >> 5UL)] = (uint32_t)(1UL << (((uint32_t)IRQn) & 0x1FUL));
 8002fae:	605e      	str	r6, [r3, #4]
  USART_InitStruct.BaudRate = 115200;
 8002fb0:	f44f 33e1 	mov.w	r3, #115200	@ 0x1c200
 8002fb4:	e9cd 4313 	strd	r4, r3, [sp, #76]	@ 0x4c
  LL_USART_Init(USART3, &USART_InitStruct);
 8002fb8:	48b4      	ldr	r0, [pc, #720]	@ (800328c <main+0x60c>)
  USART_InitStruct.TransferDirection = LL_USART_DIRECTION_TX_RX;
 8002fba:	230c      	movs	r3, #12
  LL_USART_Init(USART3, &USART_InitStruct);
 8002fbc:	a913      	add	r1, sp, #76	@ 0x4c
  USART_InitStruct.StopBits = LL_USART_STOPBITS_1;
 8002fbe:	e9cd 4415 	strd	r4, r4, [sp, #84]	@ 0x54
  USART_InitStruct.TransferDirection = LL_USART_DIRECTION_TX_RX;
 8002fc2:	e9cd 4317 	strd	r4, r3, [sp, #92]	@ 0x5c
  USART_InitStruct.OverSampling = LL_USART_OVERSAMPLING_16;
 8002fc6:	e9cd 4419 	strd	r4, r4, [sp, #100]	@ 0x64
  LL_USART_Init(USART3, &USART_InitStruct);
 8002fca:	f003 fbe1 	bl	8006790 <LL_USART_Init>
 */
__STATIC_FORCEINLINE uint32_t __LDREXW(volatile uint32_t *addr)
{
    uint32_t result;

   __ASM volatile ("ldrex %0, %1" : "=r" (result) : "Q" (*addr) );
 8002fce:	f04f 2240 	mov.w	r2, #1073758208	@ 0x40004000
 8002fd2:	f602 0308 	addw	r3, r2, #2056	@ 0x808
 8002fd6:	e853 3f00 	ldrex	r3, [r3]
  *         @arg @ref LL_USART_FIFOTHRESHOLD_8_8
  * @retval None
  */
__STATIC_INLINE void LL_USART_SetTXFIFOThreshold(USART_TypeDef *USARTx, uint32_t Threshold)
{
  ATOMIC_MODIFY_REG(USARTx->CR3, USART_CR3_TXFTCFG, Threshold << USART_CR3_TXFTCFG_Pos);
 8002fda:	f023 4360 	bic.w	r3, r3, #3758096384	@ 0xe0000000
 */
__STATIC_FORCEINLINE uint32_t __STREXW(uint32_t value, volatile uint32_t *addr)
{
   uint32_t result;

   __ASM volatile ("strex %0, %2, %1" : "=&r" (result), "=Q" (*addr) : "r" (value) );
 8002fde:	f602 0008 	addw	r0, r2, #2056	@ 0x808
 8002fe2:	e840 3100 	strex	r1, r3, [r0]
 8002fe6:	2900      	cmp	r1, #0
 8002fe8:	d1f3      	bne.n	8002fd2 <main+0x352>
   __ASM volatile ("ldrex %0, %1" : "=r" (result) : "Q" (*addr) );
 8002fea:	f04f 2240 	mov.w	r2, #1073758208	@ 0x40004000
 8002fee:	f602 0308 	addw	r3, r2, #2056	@ 0x808
 8002ff2:	e853 3f00 	ldrex	r3, [r3]
  *         @arg @ref LL_USART_FIFOTHRESHOLD_8_8
  * @retval None
  */
__STATIC_INLINE void LL_USART_SetRXFIFOThreshold(USART_TypeDef *USARTx, uint32_t Threshold)
{
  ATOMIC_MODIFY_REG(USARTx->CR3, USART_CR3_RXFTCFG, Threshold << USART_CR3_RXFTCFG_Pos);
 8002ff6:	f023 6360 	bic.w	r3, r3, #234881024	@ 0xe000000
   __ASM volatile ("strex %0, %2, %1" : "=&r" (result), "=Q" (*addr) : "r" (value) );
 8002ffa:	f602 0008 	addw	r0, r2, #2056	@ 0x808
 8002ffe:	e840 3100 	strex	r1, r3, [r0]
 8003002:	460b      	mov	r3, r1
 8003004:	2900      	cmp	r1, #0
 8003006:	d1f2      	bne.n	8002fee <main+0x36e>
  CLEAR_BIT(USARTx->CR1, USART_CR1_FIFOEN);
 8003008:	4aa0      	ldr	r2, [pc, #640]	@ (800328c <main+0x60c>)
 800300a:	6811      	ldr	r1, [r2, #0]
 800300c:	f021 5100 	bic.w	r1, r1, #536870912	@ 0x20000000
 8003010:	6011      	str	r1, [r2, #0]
  * @param  USARTx USART Instance
  * @retval None
  */
__STATIC_INLINE void LL_USART_DisableOverrunDetect(USART_TypeDef *USARTx)
{
  SET_BIT(USARTx->CR3, USART_CR3_OVRDIS);
 8003012:	6891      	ldr	r1, [r2, #8]
 8003014:	f441 5180 	orr.w	r1, r1, #4096	@ 0x1000
 8003018:	6091      	str	r1, [r2, #8]
{
  /* In Asynchronous mode, the following bits must be kept cleared:
  - LINEN, CLKEN bits in the USART_CR2 register,
  - SCEN, IREN and HDSEL bits in the USART_CR3 register.
  */
  CLEAR_BIT(USARTx->CR2, (USART_CR2_LINEN | USART_CR2_CLKEN));
 800301a:	6851      	ldr	r1, [r2, #4]
 800301c:	f421 4190 	bic.w	r1, r1, #18432	@ 0x4800
 8003020:	6051      	str	r1, [r2, #4]
  CLEAR_BIT(USARTx->CR3, (USART_CR3_SCEN | USART_CR3_IREN | USART_CR3_HDSEL));
 8003022:	6891      	ldr	r1, [r2, #8]
 8003024:	f021 012a 	bic.w	r1, r1, #42	@ 0x2a
 8003028:	6091      	str	r1, [r2, #8]
  SET_BIT(USARTx->CR1, USART_CR1_UE);
 800302a:	6811      	ldr	r1, [r2, #0]
 800302c:	f041 0101 	orr.w	r1, r1, #1
 8003030:	6011      	str	r1, [r2, #0]
  * @param  USARTx USART Instance
  * @retval State of bit (1 or 0).
  */
__STATIC_INLINE uint32_t LL_USART_IsActiveFlag_TEACK(const USART_TypeDef *USARTx)
{
  return ((READ_BIT(USARTx->ISR, USART_ISR_TEACK) == (USART_ISR_TEACK)) ? 1UL : 0UL);
 8003032:	69d1      	ldr	r1, [r2, #28]
 8003034:	0288      	lsls	r0, r1, #10
 8003036:	d5fc      	bpl.n	8003032 <main+0x3b2>
  * @param  USARTx USART Instance
  * @retval State of bit (1 or 0).
  */
__STATIC_INLINE uint32_t LL_USART_IsActiveFlag_REACK(const USART_TypeDef *USARTx)
{
  return ((READ_BIT(USARTx->ISR, USART_ISR_REACK) == (USART_ISR_REACK)) ? 1UL : 0UL);
 8003038:	69d1      	ldr	r1, [r2, #28]
 800303a:	0249      	lsls	r1, r1, #9
 800303c:	d5f9      	bpl.n	8003032 <main+0x3b2>
  LL_TIM_InitTypeDef TIM_InitStruct = {0};
 800303e:	2200      	movs	r2, #0
 8003040:	e9cd 221b 	strd	r2, r2, [sp, #108]	@ 0x6c
 8003044:	e9cd 221d 	strd	r2, r2, [sp, #116]	@ 0x74
 8003048:	921f      	str	r2, [sp, #124]	@ 0x7c
  SET_BIT(RCC->APB1ENR1, Periphs);
 800304a:	f102 4280 	add.w	r2, r2, #1073741824	@ 0x40000000
 800304e:	f502 3204 	add.w	r2, r2, #135168	@ 0x21000
  return ((uint32_t)((SCB->AIRCR & SCB_AIRCR_PRIGROUP_Msk) >> SCB_AIRCR_PRIGROUP_Pos));
 8003052:	488c      	ldr	r0, [pc, #560]	@ (8003284 <main+0x604>)
 8003054:	6d91      	ldr	r1, [r2, #88]	@ 0x58
 8003056:	f041 0110 	orr.w	r1, r1, #16
 800305a:	6591      	str	r1, [r2, #88]	@ 0x58
  tmpreg = READ_BIT(RCC->APB1ENR1, Periphs);
 800305c:	6d92      	ldr	r2, [r2, #88]	@ 0x58
 800305e:	f002 0210 	and.w	r2, r2, #16
 8003062:	9202      	str	r2, [sp, #8]
  (void)tmpreg;
 8003064:	9a02      	ldr	r2, [sp, #8]
 8003066:	68c2      	ldr	r2, [r0, #12]
 8003068:	f3c2 2202 	ubfx	r2, r2, #8, #3
{
  uint32_t PriorityGroupTmp = (PriorityGroup & (uint32_t)0x07UL);   /* only values 0..7 are used          */
  uint32_t PreemptPriorityBits;
  uint32_t SubPriorityBits;

  PreemptPriorityBits = ((7UL - PriorityGroupTmp) > (uint32_t)(__NVIC_PRIO_BITS)) ? (uint32_t)(__NVIC_PRIO_BITS) : (uint32_t)(7UL - PriorityGroupTmp);
 800306c:	f1c2 0107 	rsb	r1, r2, #7
 8003070:	2904      	cmp	r1, #4
  SubPriorityBits     = ((PriorityGroupTmp + (uint32_t)(__NVIC_PRIO_BITS)) < (uint32_t)7UL) ? (uint32_t)0UL : (uint32_t)((PriorityGroupTmp - 7UL) + (uint32_t)(__NVIC_PRIO_BITS));
 8003072:	f102 0004 	add.w	r0, r2, #4
  PreemptPriorityBits = ((7UL - PriorityGroupTmp) > (uint32_t)(__NVIC_PRIO_BITS)) ? (uint32_t)(__NVIC_PRIO_BITS) : (uint32_t)(7UL - PriorityGroupTmp);
 8003076:	bf28      	it	cs
 8003078:	2104      	movcs	r1, #4
  SubPriorityBits     = ((PriorityGroupTmp + (uint32_t)(__NVIC_PRIO_BITS)) < (uint32_t)7UL) ? (uint32_t)0UL : (uint32_t)((PriorityGroupTmp - 7UL) + (uint32_t)(__NVIC_PRIO_BITS));
 800307a:	2806      	cmp	r0, #6
 800307c:	bf88      	it	hi
 800307e:	1ed3      	subhi	r3, r2, #3

  return (
           ((PreemptPriority & (uint32_t)((1UL << (PreemptPriorityBits)) - 1UL)) << SubPriorityBits) |
 8003080:	f04f 32ff 	mov.w	r2, #4294967295
 8003084:	408a      	lsls	r2, r1
 8003086:	43d2      	mvns	r2, r2
 8003088:	fa02 f303 	lsl.w	r3, r2, r3
    NVIC->IP[((uint32_t)IRQn)]               = (uint8_t)((priority << (8U - __NVIC_PRIO_BITS)) & (uint32_t)0xFFUL);
 800308c:	011b      	lsls	r3, r3, #4
 800308e:	4a7e      	ldr	r2, [pc, #504]	@ (8003288 <main+0x608>)
 8003090:	b2db      	uxtb	r3, r3
 8003092:	f882 3336 	strb.w	r3, [r2, #822]	@ 0x336
    NVIC->ISER[(((uint32_t)IRQn) >> 5UL)] = (uint32_t)(1UL << (((uint32_t)IRQn) & 0x1FUL));
 8003096:	f44f 0380 	mov.w	r3, #4194304	@ 0x400000
 800309a:	6053      	str	r3, [r2, #4]
  LL_TIM_Init(TIM6, &TIM_InitStruct);
 800309c:	4d7c      	ldr	r5, [pc, #496]	@ (8003290 <main+0x610>)
  *         @arg @ref LL_TIM_TRGO_ENCODERCLK
  * @retval None
  */
__STATIC_INLINE void LL_TIM_SetTriggerOutput(TIM_TypeDef *TIMx, uint32_t TimerSynchronization)
{
  MODIFY_REG(TIMx->CR2, TIM_CR2_MMS, TimerSynchronization);
 800309e:	f8df 9204 	ldr.w	r9, [pc, #516]	@ 80032a4 <main+0x624>
  SET_BIT(RCC->APB1ENR1, Periphs);
 80030a2:	4f7c      	ldr	r7, [pc, #496]	@ (8003294 <main+0x614>)
  hsram1.Instance = FMC_NORSRAM_DEVICE;
 80030a4:	f8df a200 	ldr.w	sl, [pc, #512]	@ 80032a8 <main+0x628>
  TIM_InitStruct.Prescaler = 143;
 80030a8:	238f      	movs	r3, #143	@ 0x8f
  TIM_InitStruct.CounterMode = LL_TIM_COUNTERMODE_UP;
 80030aa:	2400      	movs	r4, #0
  TIM_InitStruct.Prescaler = 143;
 80030ac:	f8ad 306c 	strh.w	r3, [sp, #108]	@ 0x6c
  LL_TIM_Init(TIM6, &TIM_InitStruct);
 80030b0:	a91b      	add	r1, sp, #108	@ 0x6c
  TIM_InitStruct.Autoreload = 49999;
 80030b2:	f24c 334f 	movw	r3, #49999	@ 0xc34f
  LL_TIM_Init(TIM6, &TIM_InitStruct);
 80030b6:	4628      	mov	r0, r5
  TIM_InitStruct.Autoreload = 49999;
 80030b8:	e9cd 431c 	strd	r4, r3, [sp, #112]	@ 0x70
  LL_TIM_Init(TIM6, &TIM_InitStruct);
 80030bc:	f003 f948 	bl	8006350 <LL_TIM_Init>
  CLEAR_BIT(TIMx->CR1, TIM_CR1_ARPE);
 80030c0:	682b      	ldr	r3, [r5, #0]
 80030c2:	f023 0380 	bic.w	r3, r3, #128	@ 0x80
 80030c6:	602b      	str	r3, [r5, #0]
  MODIFY_REG(TIMx->CR2, TIM_CR2_MMS, TimerSynchronization);
 80030c8:	686b      	ldr	r3, [r5, #4]
 80030ca:	ea03 0309 	and.w	r3, r3, r9
 80030ce:	606b      	str	r3, [r5, #4]
  * @param  TIMx Timer instance
  * @retval None
  */
__STATIC_INLINE void LL_TIM_DisableMasterSlaveMode(TIM_TypeDef *TIMx)
{
  CLEAR_BIT(TIMx->SMCR, TIM_SMCR_MSM);
 80030d0:	68ab      	ldr	r3, [r5, #8]
  LL_TIM_OC_InitTypeDef TIM_OC_InitStruct = {0};
 80030d2:	2620      	movs	r6, #32
 80030d4:	f023 0380 	bic.w	r3, r3, #128	@ 0x80
 80030d8:	60ab      	str	r3, [r5, #8]
 80030da:	4632      	mov	r2, r6
 80030dc:	4621      	mov	r1, r4
 80030de:	a81b      	add	r0, sp, #108	@ 0x6c
  LL_TIM_InitTypeDef TIM_InitStruct = {0};
 80030e0:	f8ad 4046 	strh.w	r4, [sp, #70]	@ 0x46
 80030e4:	f8cd 4036 	str.w	r4, [sp, #54]	@ 0x36
 80030e8:	f8cd 403a 	str.w	r4, [sp, #58]	@ 0x3a
 80030ec:	f8cd 403e 	str.w	r4, [sp, #62]	@ 0x3e
 80030f0:	f8cd 4042 	str.w	r4, [sp, #66]	@ 0x42
  LL_TIM_OC_InitTypeDef TIM_OC_InitStruct = {0};
 80030f4:	f004 fdf0 	bl	8007cd8 <memset>
  LL_GPIO_InitTypeDef GPIO_InitStruct = {0};
 80030f8:	e9cd 4413 	strd	r4, r4, [sp, #76]	@ 0x4c
 80030fc:	e9cd 4415 	strd	r4, r4, [sp, #84]	@ 0x54
 8003100:	e9cd 4417 	strd	r4, r4, [sp, #92]	@ 0x5c
 8003104:	6dbb      	ldr	r3, [r7, #88]	@ 0x58
 8003106:	f043 0304 	orr.w	r3, r3, #4
 800310a:	65bb      	str	r3, [r7, #88]	@ 0x58
  tmpreg = READ_BIT(RCC->APB1ENR1, Periphs);
 800310c:	6dbb      	ldr	r3, [r7, #88]	@ 0x58
 800310e:	f003 0304 	and.w	r3, r3, #4
 8003112:	9300      	str	r3, [sp, #0]
  LL_TIM_Init(TIM4, &TIM_InitStruct);
 8003114:	f5a5 6500 	sub.w	r5, r5, #2048	@ 0x800
  (void)tmpreg;
 8003118:	9b00      	ldr	r3, [sp, #0]
  TIM_InitStruct.Prescaler = 1439;
 800311a:	f240 539f 	movw	r3, #1439	@ 0x59f
  LL_TIM_Init(TIM4, &TIM_InitStruct);
 800311e:	a90d      	add	r1, sp, #52	@ 0x34
  TIM_InitStruct.Prescaler = 1439;
 8003120:	f8ad 3034 	strh.w	r3, [sp, #52]	@ 0x34
  LL_TIM_Init(TIM4, &TIM_InitStruct);
 8003124:	4628      	mov	r0, r5
  TIM_InitStruct.Autoreload = 99;
 8003126:	2363      	movs	r3, #99	@ 0x63
 8003128:	930f      	str	r3, [sp, #60]	@ 0x3c
  LL_TIM_Init(TIM4, &TIM_InitStruct);
 800312a:	f003 f911 	bl	8006350 <LL_TIM_Init>
  CLEAR_BIT(TIMx->CR1, TIM_CR1_ARPE);
 800312e:	682b      	ldr	r3, [r5, #0]
 8003130:	f023 0380 	bic.w	r3, r3, #128	@ 0x80
 8003134:	602b      	str	r3, [r5, #0]
  MODIFY_REG(TIMx->SMCR, TIM_SMCR_SMS | TIM_SMCR_ECE, ClockSource);
 8003136:	68ab      	ldr	r3, [r5, #8]
 8003138:	f423 33a0 	bic.w	r3, r3, #81920	@ 0x14000
  SET_BIT(*pReg, (TIM_CCMR1_OC1PE << SHIFT_TAB_OCxx[iChannel]));
 800313c:	f04f 4880 	mov.w	r8, #1073741824	@ 0x40000000
  MODIFY_REG(TIMx->SMCR, TIM_SMCR_SMS | TIM_SMCR_ECE, ClockSource);
 8003140:	f023 0307 	bic.w	r3, r3, #7
 8003144:	60ab      	str	r3, [r5, #8]
  SET_BIT(*pReg, (TIM_CCMR1_OC1PE << SHIFT_TAB_OCxx[iChannel]));
 8003146:	f8d8 3818 	ldr.w	r3, [r8, #2072]	@ 0x818
 800314a:	f043 0308 	orr.w	r3, r3, #8
 800314e:	f8c8 3818 	str.w	r3, [r8, #2072]	@ 0x818
  LL_TIM_OC_Init(TIM4, LL_TIM_CHANNEL_CH1, &TIM_OC_InitStruct);
 8003152:	aa1b      	add	r2, sp, #108	@ 0x6c
  TIM_OC_InitStruct.OCMode = LL_TIM_OCMODE_PWM1;
 8003154:	2360      	movs	r3, #96	@ 0x60
  LL_TIM_OC_Init(TIM4, LL_TIM_CHANNEL_CH1, &TIM_OC_InitStruct);
 8003156:	2101      	movs	r1, #1
 8003158:	4628      	mov	r0, r5
  TIM_OC_InitStruct.OCNState = LL_TIM_OCSTATE_DISABLE;
 800315a:	e9cd 441c 	strd	r4, r4, [sp, #112]	@ 0x70
  TIM_OC_InitStruct.OCPolarity = LL_TIM_OCPOLARITY_HIGH;
 800315e:	e9cd 441e 	strd	r4, r4, [sp, #120]	@ 0x78
  TIM_OC_InitStruct.OCMode = LL_TIM_OCMODE_PWM1;
 8003162:	931b      	str	r3, [sp, #108]	@ 0x6c
  LL_TIM_OC_Init(TIM4, LL_TIM_CHANNEL_CH1, &TIM_OC_InitStruct);
 8003164:	f003 f960 	bl	8006428 <LL_TIM_OC_Init>
  CLEAR_BIT(*pReg, (TIM_CCMR1_OC1FE << SHIFT_TAB_OCxx[iChannel]));
 8003168:	f8d8 3818 	ldr.w	r3, [r8, #2072]	@ 0x818
  LL_GPIO_Init(GPIOB, &GPIO_InitStruct);
 800316c:	4844      	ldr	r0, [pc, #272]	@ (8003280 <main+0x600>)
 800316e:	f023 0304 	bic.w	r3, r3, #4
 8003172:	f8c8 3818 	str.w	r3, [r8, #2072]	@ 0x818
  MODIFY_REG(TIMx->CR2, TIM_CR2_MMS, TimerSynchronization);
 8003176:	686b      	ldr	r3, [r5, #4]
 8003178:	ea03 0309 	and.w	r3, r3, r9
 800317c:	606b      	str	r3, [r5, #4]
  CLEAR_BIT(TIMx->SMCR, TIM_SMCR_MSM);
 800317e:	68ab      	ldr	r3, [r5, #8]
 8003180:	f023 0380 	bic.w	r3, r3, #128	@ 0x80
 8003184:	60ab      	str	r3, [r5, #8]
  SET_BIT(RCC->AHB2ENR, Periphs);
 8003186:	6cfb      	ldr	r3, [r7, #76]	@ 0x4c
 8003188:	f043 0302 	orr.w	r3, r3, #2
 800318c:	64fb      	str	r3, [r7, #76]	@ 0x4c
  tmpreg = READ_BIT(RCC->AHB2ENR, Periphs);
 800318e:	6cfb      	ldr	r3, [r7, #76]	@ 0x4c
  GPIO_InitStruct.Speed = LL_GPIO_SPEED_FREQ_LOW;
 8003190:	9415      	str	r4, [sp, #84]	@ 0x54
 8003192:	f003 0302 	and.w	r3, r3, #2
 8003196:	9301      	str	r3, [sp, #4]
  GPIO_InitStruct.Mode = LL_GPIO_MODE_ALTERNATE;
 8003198:	2502      	movs	r5, #2
  GPIO_InitStruct.Pin = LL_GPIO_PIN_6;
 800319a:	2340      	movs	r3, #64	@ 0x40
  LL_GPIO_Init(GPIOB, &GPIO_InitStruct);
 800319c:	a913      	add	r1, sp, #76	@ 0x4c
  GPIO_InitStruct.Pull = LL_GPIO_PULL_NO;
 800319e:	e9cd 4416 	strd	r4, r4, [sp, #88]	@ 0x58
  (void)tmpreg;
 80031a2:	9a01      	ldr	r2, [sp, #4]
  GPIO_InitStruct.Pin = LL_GPIO_PIN_6;
 80031a4:	9313      	str	r3, [sp, #76]	@ 0x4c
  GPIO_InitStruct.Mode = LL_GPIO_MODE_ALTERNATE;
 80031a6:	9514      	str	r5, [sp, #80]	@ 0x50
  GPIO_InitStruct.Alternate = LL_GPIO_AF_2;
 80031a8:	9518      	str	r5, [sp, #96]	@ 0x60
  LL_GPIO_Init(GPIOB, &GPIO_InitStruct);
 80031aa:	f002 fe5f 	bl	8005e6c <LL_GPIO_Init>
  hsram1.Instance = FMC_NORSRAM_DEVICE;
 80031ae:	483a      	ldr	r0, [pc, #232]	@ (8003298 <main+0x618>)
  FMC_NORSRAM_TimingTypeDef Timing = {0};
 80031b0:	9422      	str	r4, [sp, #136]	@ 0x88
  hsram1.Init.MemoryDataWidth = FMC_NORSRAM_MEM_BUS_WIDTH_16;
 80031b2:	2310      	movs	r3, #16
 80031b4:	6143      	str	r3, [r0, #20]
  Timing.CLKDivision = 16;
 80031b6:	9320      	str	r3, [sp, #128]	@ 0x80
  hsram1.Instance = FMC_NORSRAM_DEVICE;
 80031b8:	f04f 4320 	mov.w	r3, #2684354560	@ 0xa0000000
 80031bc:	e9c0 3a00 	strd	r3, sl, [r0]
  Timing.AddressHoldTime = 15;
 80031c0:	230f      	movs	r3, #15
  hsram1.Init.DataAddressMux = FMC_DATA_ADDRESS_MUX_DISABLE;
 80031c2:	e9c0 4402 	strd	r4, r4, [r0, #8]
  hsram1.Init.WaitSignalPolarity = FMC_WAIT_SIGNAL_POLARITY_LOW;
 80031c6:	e9c0 4406 	strd	r4, r4, [r0, #24]
  hsram1.Init.ExtendedMode = FMC_EXTENDED_MODE_DISABLE;
 80031ca:	e9c0 440a 	strd	r4, r4, [r0, #40]	@ 0x28
  hsram1.Init.WriteBurst = FMC_WRITE_BURST_DISABLE;
 80031ce:	e9c0 440c 	strd	r4, r4, [r0, #48]	@ 0x30
  hsram1.Init.WriteFifo = FMC_WRITE_FIFO_ENABLE;
 80031d2:	e9c0 440e 	strd	r4, r4, [r0, #56]	@ 0x38
  hsram1.Init.PageSize = FMC_PAGE_SIZE_NONE;
 80031d6:	e9c0 4410 	strd	r4, r4, [r0, #64]	@ 0x40
  hsram1.Init.MemoryType = FMC_MEMORY_TYPE_SRAM;
 80031da:	6104      	str	r4, [r0, #16]
  hsram1.Init.WaitSignalActive = FMC_WAIT_TIMING_BEFORE_WS;
 80031dc:	6204      	str	r4, [r0, #32]
  hsram1.Init.MaxChipSelectPulse = DISABLE;
 80031de:	f880 4048 	strb.w	r4, [r0, #72]	@ 0x48
  if (HAL_SRAM_Init(&hsram1, &Timing, NULL) != HAL_OK)
 80031e2:	4622      	mov	r2, r4
  Timing.AddressHoldTime = 15;
 80031e4:	931c      	str	r3, [sp, #112]	@ 0x70
  Timing.AddressSetupTime = 1;
 80031e6:	2401      	movs	r4, #1
  Timing.DataLatency = 17;
 80031e8:	2311      	movs	r3, #17
  hsram1.Init.WriteOperation = FMC_WRITE_OPERATION_ENABLE;
 80031ea:	f44f 5780 	mov.w	r7, #4096	@ 0x1000
  if (HAL_SRAM_Init(&hsram1, &Timing, NULL) != HAL_OK)
 80031ee:	a91b      	add	r1, sp, #108	@ 0x6c
  Timing.DataLatency = 17;
 80031f0:	9321      	str	r3, [sp, #132]	@ 0x84
  Timing.DataHoldTime = 1;
 80031f2:	e9cd 441d 	strd	r4, r4, [sp, #116]	@ 0x74
  Timing.AddressSetupTime = 1;
 80031f6:	941b      	str	r4, [sp, #108]	@ 0x6c
  Timing.BusTurnAroundDuration = 1;
 80031f8:	941f      	str	r4, [sp, #124]	@ 0x7c
  hsram1.Init.WriteOperation = FMC_WRITE_OPERATION_ENABLE;
 80031fa:	6247      	str	r7, [r0, #36]	@ 0x24
  if (HAL_SRAM_Init(&hsram1, &Timing, NULL) != HAL_OK)
 80031fc:	f002 fb36 	bl	800586c <HAL_SRAM_Init>
 8003200:	4603      	mov	r3, r0
 8003202:	b108      	cbz	r0, 8003208 <main+0x588>
  __ASM volatile ("cpsid i" : : : "memory");
 8003204:	b672      	cpsid	i
  while (1)
 8003206:	e7fe      	b.n	8003206 <main+0x586>
  hspi1.Instance = SPI1;
 8003208:	4824      	ldr	r0, [pc, #144]	@ (800329c <main+0x61c>)
  hspi1.Init.Mode = SPI_MODE_MASTER;
 800320a:	f8df e0a0 	ldr.w	lr, [pc, #160]	@ 80032ac <main+0x62c>
  hspi1.Init.Direction = SPI_DIRECTION_2LINES;
 800320e:	6083      	str	r3, [r0, #8]
  hspi1.Init.CLKPhase = SPI_PHASE_1EDGE;
 8003210:	e9c0 3304 	strd	r3, r3, [r0, #16]
  hspi1.Init.TIMode = SPI_TIMODE_DISABLE;
 8003214:	e9c0 3308 	strd	r3, r3, [r0, #32]
  hspi1.Init.NSSPMode = SPI_NSS_PULSE_DISABLE;
 8003218:	e9c0 330c 	strd	r3, r3, [r0, #48]	@ 0x30
  hspi1.Init.CRCCalculation = SPI_CRCCALCULATION_DISABLE;
 800321c:	6283      	str	r3, [r0, #40]	@ 0x28
  hspi1.Init.Mode = SPI_MODE_MASTER;
 800321e:	f44f 7382 	mov.w	r3, #260	@ 0x104
 8003222:	e9c0 e300 	strd	lr, r3, [r0]
  hspi1.Init.DataSize = SPI_DATASIZE_8BIT;
 8003226:	f44f 63e0 	mov.w	r3, #1792	@ 0x700
 800322a:	60c3      	str	r3, [r0, #12]
  hspi1.Init.BaudRatePrescaler = SPI_BAUDRATEPRESCALER_64;
 800322c:	f44f 7900 	mov.w	r9, #512	@ 0x200
 8003230:	2328      	movs	r3, #40	@ 0x28
  hspi1.Init.CRCPolynomial = 7;
 8003232:	f04f 0807 	mov.w	r8, #7
  hspi1.Init.BaudRatePrescaler = SPI_BAUDRATEPRESCALER_64;
 8003236:	e9c0 9306 	strd	r9, r3, [r0, #24]
  hspi1.Init.CRCPolynomial = 7;
 800323a:	f8c0 802c 	str.w	r8, [r0, #44]	@ 0x2c
  if (HAL_SPI_Init(&hspi1) != HAL_OK)
 800323e:	f002 fa97 	bl	8005770 <HAL_SPI_Init>
 8003242:	b9d8      	cbnz	r0, 800327c <main+0x5fc>
  htim1.Instance = TIM1;
 8003244:	f8df 9068 	ldr.w	r9, [pc, #104]	@ 80032b0 <main+0x630>
 8003248:	4b15      	ldr	r3, [pc, #84]	@ (80032a0 <main+0x620>)
  TIM_MasterConfigTypeDef sMasterConfig = {0};
 800324a:	9015      	str	r0, [sp, #84]	@ 0x54
  TIM_ClockConfigTypeDef sClockSourceConfig = {0};
 800324c:	e9cd 001b 	strd	r0, r0, [sp, #108]	@ 0x6c
 8003250:	e9cd 001d 	strd	r0, r0, [sp, #116]	@ 0x74
  TIM_MasterConfigTypeDef sMasterConfig = {0};
 8003254:	e9cd 0013 	strd	r0, r0, [sp, #76]	@ 0x4c
  htim1.Init.CounterMode = TIM_COUNTERMODE_UP;
 8003258:	e9c9 0001 	strd	r0, r0, [r9, #4]
  htim1.Init.RepetitionCounter = 0;
 800325c:	e9c9 0004 	strd	r0, r0, [r9, #16]
  htim1.Init.AutoReloadPreload = TIM_AUTORELOAD_PRELOAD_DISABLE;
 8003260:	f8c9 0018 	str.w	r0, [r9, #24]
  htim1.Instance = TIM1;
 8003264:	f8c9 3000 	str.w	r3, [r9]
  if (HAL_TIM_Base_Init(&htim1) != HAL_OK)
 8003268:	4648      	mov	r0, r9
  htim1.Init.Period = 65535;
 800326a:	f64f 73ff 	movw	r3, #65535	@ 0xffff
 800326e:	f8c9 300c 	str.w	r3, [r9, #12]
  if (HAL_TIM_Base_Init(&htim1) != HAL_OK)
 8003272:	f002 fb29 	bl	80058c8 <HAL_TIM_Base_Init>
 8003276:	b1e8      	cbz	r0, 80032b4 <main+0x634>
 8003278:	b672      	cpsid	i
  while (1)
 800327a:	e7fe      	b.n	800327a <main+0x5fa>
 800327c:	b672      	cpsid	i
 800327e:	e7fe      	b.n	800327e <main+0x5fe>
 8003280:	48000400 	.word	0x48000400
 8003284:	e000ed00 	.word	0xe000ed00
 8003288:	e000e100 	.word	0xe000e100
 800328c:	40004800 	.word	0x40004800
 8003290:	40001000 	.word	0x40001000
 8003294:	40021000 	.word	0x40021000
 8003298:	20000afc 	.word	0x20000afc
 800329c:	20000c00 	.word	0x20000c00
 80032a0:	40012c00 	.word	0x40012c00
 80032a4:	fdffff8f 	.word	0xfdffff8f
 80032a8:	a0000104 	.word	0xa0000104
 80032ac:	40013000 	.word	0x40013000
 80032b0:	20000bb4 	.word	0x20000bb4
  if (HAL_TIM_ConfigClockSource(&htim1, &sClockSourceConfig) != HAL_OK)
 80032b4:	a91b      	add	r1, sp, #108	@ 0x6c
 80032b6:	4648      	mov	r0, r9
  sClockSourceConfig.ClockSource = TIM_CLOCKSOURCE_INTERNAL;
 80032b8:	971b      	str	r7, [sp, #108]	@ 0x6c
  if (HAL_TIM_ConfigClockSource(&htim1, &sClockSourceConfig) != HAL_OK)
 80032ba:	f002 fbdf 	bl	8005a7c <HAL_TIM_ConfigClockSource>
 80032be:	b108      	cbz	r0, 80032c4 <main+0x644>
 80032c0:	b672      	cpsid	i
  while (1)
 80032c2:	e7fe      	b.n	80032c2 <main+0x642>
  sMasterConfig.MasterOutputTrigger2 = TIM_TRGO2_RESET;
 80032c4:	e9cd 6013 	strd	r6, r0, [sp, #76]	@ 0x4c
  sMasterConfig.MasterSlaveMode = TIM_MASTERSLAVEMODE_DISABLE;
 80032c8:	9015      	str	r0, [sp, #84]	@ 0x54
  if (HAL_TIMEx_MasterConfigSynchronization(&htim1, &sMasterConfig) != HAL_OK)
 80032ca:	a913      	add	r1, sp, #76	@ 0x4c
 80032cc:	4648      	mov	r0, r9
 80032ce:	f002 fcaf 	bl	8005c30 <HAL_TIMEx_MasterConfigSynchronization>
 80032d2:	4607      	mov	r7, r0
 80032d4:	b108      	cbz	r0, 80032da <main+0x65a>
 80032d6:	b672      	cpsid	i
  while (1)
 80032d8:	e7fe      	b.n	80032d8 <main+0x658>
  ADC_ChannelConfTypeDef sConfig = {0};
 80032da:	4601      	mov	r1, r0
 80032dc:	4632      	mov	r2, r6
 80032de:	a81b      	add	r0, sp, #108	@ 0x6c
 80032e0:	f004 fcfa 	bl	8007cd8 <memset>
  hadc4.Instance = ADC4;
 80032e4:	4e28      	ldr	r6, [pc, #160]	@ (8003388 <main+0x708>)
  hadc4.Init.ClockPrescaler = ADC_CLOCK_SYNC_PCLK_DIV4;
 80032e6:	4929      	ldr	r1, [pc, #164]	@ (800338c <main+0x70c>)
  hadc4.Init.NbrOfConversion = 2;
 80032e8:	6235      	str	r5, [r6, #32]
  hadc4.Init.ClockPrescaler = ADC_CLOCK_SYNC_PCLK_DIV4;
 80032ea:	f44f 3340 	mov.w	r3, #196608	@ 0x30000
  hadc4.Init.ScanConvMode = ADC_SCAN_ENABLE;
 80032ee:	e9c6 7404 	strd	r7, r4, [r6, #16]
  hadc4.Init.ClockPrescaler = ADC_CLOCK_SYNC_PCLK_DIV4;
 80032f2:	e9c6 1300 	strd	r1, r3, [r6]
  hadc4.Init.DMAContinuousRequests = ENABLE;
 80032f6:	f886 4038 	strb.w	r4, [r6, #56]	@ 0x38
  hadc4.Init.ExternalTrigConvEdge = ADC_EXTERNALTRIGCONVEDGE_RISING;
 80032fa:	f44f 65a4 	mov.w	r5, #1312	@ 0x520
  hadc4.Init.EOCSelection = ADC_EOC_SINGLE_CONV;
 80032fe:	2404      	movs	r4, #4
  hadc4.Init.ExternalTrigConvEdge = ADC_EXTERNALTRIGCONVEDGE_RISING;
 8003300:	f44f 6380 	mov.w	r3, #1024	@ 0x400
  if (HAL_ADC_Init(&hadc4) != HAL_OK)
 8003304:	4630      	mov	r0, r6
  hadc4.Init.DataAlign = ADC_DATAALIGN_RIGHT;
 8003306:	e9c6 7702 	strd	r7, r7, [r6, #8]
  hadc4.Init.ExternalTrigConvEdge = ADC_EXTERNALTRIGCONVEDGE_RISING;
 800330a:	e9c6 530b 	strd	r5, r3, [r6, #44]	@ 0x2c
  hadc4.Init.LowPowerAutoWait = DISABLE;
 800330e:	83b7      	strh	r7, [r6, #28]
  hadc4.Init.DiscontinuousConvMode = DISABLE;
 8003310:	f886 7024 	strb.w	r7, [r6, #36]	@ 0x24
  hadc4.Init.Overrun = ADC_OVR_DATA_PRESERVED;
 8003314:	63f7      	str	r7, [r6, #60]	@ 0x3c
  hadc4.Init.OversamplingMode = DISABLE;
 8003316:	f886 7040 	strb.w	r7, [r6, #64]	@ 0x40
  hadc4.Init.EOCSelection = ADC_EOC_SINGLE_CONV;
 800331a:	61b4      	str	r4, [r6, #24]
  if (HAL_ADC_Init(&hadc4) != HAL_OK)
 800331c:	f000 fa78 	bl	8003810 <HAL_ADC_Init>
 8003320:	b108      	cbz	r0, 8003326 <main+0x6a6>
 8003322:	b672      	cpsid	i
  while (1)
 8003324:	e7fe      	b.n	8003324 <main+0x6a4>
  sConfig.Rank = ADC_REGULAR_RANK_1;
 8003326:	4a1a      	ldr	r2, [pc, #104]	@ (8003390 <main+0x710>)
  sConfig.Offset = 0;
 8003328:	9020      	str	r0, [sp, #128]	@ 0x80
  sConfig.Rank = ADC_REGULAR_RANK_1;
 800332a:	2306      	movs	r3, #6
 800332c:	e9cd 231b 	strd	r2, r3, [sp, #108]	@ 0x6c
  if (HAL_ADC_ConfigChannel(&hadc4, &sConfig) != HAL_OK)
 8003330:	a91b      	add	r1, sp, #108	@ 0x6c
  sConfig.SingleDiff = ADC_DIFFERENTIAL_ENDED;
 8003332:	4b18      	ldr	r3, [pc, #96]	@ (8003394 <main+0x714>)
 8003334:	931e      	str	r3, [sp, #120]	@ 0x78
  if (HAL_ADC_ConfigChannel(&hadc4, &sConfig) != HAL_OK)
 8003336:	4630      	mov	r0, r6
  sConfig.SamplingTime = ADC_SAMPLETIME_640CYCLES_5;
 8003338:	f8cd 8074 	str.w	r8, [sp, #116]	@ 0x74
  sConfig.OffsetNumber = ADC_OFFSET_NONE;
 800333c:	941f      	str	r4, [sp, #124]	@ 0x7c
  if (HAL_ADC_ConfigChannel(&hadc4, &sConfig) != HAL_OK)
 800333e:	f000 fbd3 	bl	8003ae8 <HAL_ADC_ConfigChannel>
 8003342:	4603      	mov	r3, r0
 8003344:	b108      	cbz	r0, 800334a <main+0x6ca>
 8003346:	b672      	cpsid	i
  while (1)
 8003348:	e7fe      	b.n	8003348 <main+0x6c8>
  sConfig.Rank = ADC_REGULAR_RANK_2;
 800334a:	220c      	movs	r2, #12
  if (HAL_ADC_ConfigChannel(&hadc4, &sConfig) != HAL_OK)
 800334c:	a91b      	add	r1, sp, #108	@ 0x6c
 800334e:	4630      	mov	r0, r6
  sConfig.Rank = ADC_REGULAR_RANK_2;
 8003350:	921c      	str	r2, [sp, #112]	@ 0x70
  sConfig.SamplingTime = ADC_SAMPLETIME_2CYCLES_5;
 8003352:	931d      	str	r3, [sp, #116]	@ 0x74
  if (HAL_ADC_ConfigChannel(&hadc4, &sConfig) != HAL_OK)
 8003354:	f000 fbc8 	bl	8003ae8 <HAL_ADC_ConfigChannel>
 8003358:	b108      	cbz	r0, 800335e <main+0x6de>
 800335a:	b672      	cpsid	i
  while (1)
 800335c:	e7fe      	b.n	800335c <main+0x6dc>
  SCI_init();
 800335e:	f003 fb33 	bl	80069c8 <SCI_init>
  KBD_init();
 8003362:	f003 fc27 	bl	8006bb4 <KBD_init>
  LED_init();
 8003366:	f003 fa95 	bl	8006894 <LED_init>
  PSERV_init();
 800336a:	f003 fe47 	bl	8006ffc <PSERV_init>
  PSERV_enable();
 800336e:	f003 fe51 	bl	8007014 <PSERV_enable>
  LCD_Init();
 8003372:	f003 fca9 	bl	8006cc8 <LCD_Init>
  LCD_uGUI_init();
 8003376:	f003 fcdd 	bl	8006d34 <LCD_uGUI_init>
  JOY_init(&hadc4, &htim1);
 800337a:	4649      	mov	r1, r9
 800337c:	4630      	mov	r0, r6
 800337e:	f003 fbe3 	bl	8006b48 <JOY_init>
    Game();
 8003382:	f7fe fa65 	bl	8001850 <Game>
  while (1)
 8003386:	e7fc      	b.n	8003382 <main+0x702>
 8003388:	20000cc4 	.word	0x20000cc4
 800338c:	50000500 	.word	0x50000500
 8003390:	10c00010 	.word	0x10c00010
 8003394:	407f0000 	.word	0x407f0000

08003398 <Error_Handler>:
 8003398:	b672      	cpsid	i
  while (1)
 800339a:	e7fe      	b.n	800339a <Error_Handler+0x2>

0800339c <HAL_MspInit>:

  /* USER CODE BEGIN MspInit 0 */

  /* USER CODE END MspInit 0 */

  __HAL_RCC_SYSCFG_CLK_ENABLE();
 800339c:	4b0b      	ldr	r3, [pc, #44]	@ (80033cc <HAL_MspInit+0x30>)
 800339e:	6e1a      	ldr	r2, [r3, #96]	@ 0x60
 80033a0:	f042 0201 	orr.w	r2, r2, #1
 80033a4:	661a      	str	r2, [r3, #96]	@ 0x60
 80033a6:	6e1a      	ldr	r2, [r3, #96]	@ 0x60
{
 80033a8:	b082      	sub	sp, #8
  __HAL_RCC_SYSCFG_CLK_ENABLE();
 80033aa:	f002 0201 	and.w	r2, r2, #1
 80033ae:	9200      	str	r2, [sp, #0]
 80033b0:	9a00      	ldr	r2, [sp, #0]
  __HAL_RCC_PWR_CLK_ENABLE();
 80033b2:	6d9a      	ldr	r2, [r3, #88]	@ 0x58
 80033b4:	f042 5280 	orr.w	r2, r2, #268435456	@ 0x10000000
 80033b8:	659a      	str	r2, [r3, #88]	@ 0x58
 80033ba:	6d9b      	ldr	r3, [r3, #88]	@ 0x58
 80033bc:	f003 5380 	and.w	r3, r3, #268435456	@ 0x10000000
 80033c0:	9301      	str	r3, [sp, #4]
 80033c2:	9b01      	ldr	r3, [sp, #4]
  HAL_PWREx_DisableUCPDDeadBattery();

  /* USER CODE BEGIN MspInit 1 */

  /* USER CODE END MspInit 1 */
}
 80033c4:	b002      	add	sp, #8
  HAL_PWREx_DisableUCPDDeadBattery();
 80033c6:	f001 bcbd 	b.w	8004d44 <HAL_PWREx_DisableUCPDDeadBattery>
 80033ca:	bf00      	nop
 80033cc:	40021000 	.word	0x40021000

080033d0 <HAL_ADC_MspInit>:
* This function configures the hardware resources used in this example
* @param hadc: ADC handle pointer
* @retval None
*/
void HAL_ADC_MspInit(ADC_HandleTypeDef* hadc)
{
 80033d0:	b570      	push	{r4, r5, r6, lr}
 80033d2:	4604      	mov	r4, r0
 80033d4:	b09c      	sub	sp, #112	@ 0x70
  GPIO_InitTypeDef GPIO_InitStruct = {0};
 80033d6:	2100      	movs	r1, #0
  RCC_PeriphCLKInitTypeDef PeriphClkInit = {0};
 80033d8:	2254      	movs	r2, #84	@ 0x54
 80033da:	a807      	add	r0, sp, #28
  GPIO_InitTypeDef GPIO_InitStruct = {0};
 80033dc:	e9cd 1102 	strd	r1, r1, [sp, #8]
 80033e0:	e9cd 1104 	strd	r1, r1, [sp, #16]
 80033e4:	9106      	str	r1, [sp, #24]
  RCC_PeriphCLKInitTypeDef PeriphClkInit = {0};
 80033e6:	f004 fc77 	bl	8007cd8 <memset>
  if(hadc->Instance==ADC4)
 80033ea:	4b27      	ldr	r3, [pc, #156]	@ (8003488 <HAL_ADC_MspInit+0xb8>)
 80033ec:	6822      	ldr	r2, [r4, #0]
 80033ee:	429a      	cmp	r2, r3
 80033f0:	d001      	beq.n	80033f6 <HAL_ADC_MspInit+0x26>

  /* USER CODE END ADC4_MspInit 1 */

  }

}
 80033f2:	b01c      	add	sp, #112	@ 0x70
 80033f4:	bd70      	pop	{r4, r5, r6, pc}
    PeriphClkInit.PeriphClockSelection = RCC_PERIPHCLK_ADC345;
 80033f6:	f44f 3280 	mov.w	r2, #65536	@ 0x10000
    PeriphClkInit.Adc345ClockSelection = RCC_ADC345CLKSOURCE_SYSCLK;
 80033fa:	f04f 4300 	mov.w	r3, #2147483648	@ 0x80000000
    if (HAL_RCCEx_PeriphCLKConfig(&PeriphClkInit) != HAL_OK)
 80033fe:	a807      	add	r0, sp, #28
    PeriphClkInit.PeriphClockSelection = RCC_PERIPHCLK_ADC345;
 8003400:	9207      	str	r2, [sp, #28]
    PeriphClkInit.Adc345ClockSelection = RCC_ADC345CLKSOURCE_SYSCLK;
 8003402:	9319      	str	r3, [sp, #100]	@ 0x64
    if (HAL_RCCEx_PeriphCLKConfig(&PeriphClkInit) != HAL_OK)
 8003404:	f002 f828 	bl	8005458 <HAL_RCCEx_PeriphCLKConfig>
 8003408:	2800      	cmp	r0, #0
 800340a:	d137      	bne.n	800347c <HAL_ADC_MspInit+0xac>
    __HAL_RCC_ADC345_CLK_ENABLE();
 800340c:	4b1f      	ldr	r3, [pc, #124]	@ (800348c <HAL_ADC_MspInit+0xbc>)
    HAL_GPIO_Init(GPIOB, &GPIO_InitStruct);
 800340e:	4820      	ldr	r0, [pc, #128]	@ (8003490 <HAL_ADC_MspInit+0xc0>)
    __HAL_RCC_ADC345_CLK_ENABLE();
 8003410:	6cda      	ldr	r2, [r3, #76]	@ 0x4c
    hdma_adc4.Instance = DMA1_Channel2;
 8003412:	4d20      	ldr	r5, [pc, #128]	@ (8003494 <HAL_ADC_MspInit+0xc4>)
    __HAL_RCC_ADC345_CLK_ENABLE();
 8003414:	f442 4280 	orr.w	r2, r2, #16384	@ 0x4000
 8003418:	64da      	str	r2, [r3, #76]	@ 0x4c
 800341a:	6cda      	ldr	r2, [r3, #76]	@ 0x4c
 800341c:	f402 4280 	and.w	r2, r2, #16384	@ 0x4000
 8003420:	9200      	str	r2, [sp, #0]
 8003422:	9a00      	ldr	r2, [sp, #0]
    __HAL_RCC_GPIOB_CLK_ENABLE();
 8003424:	6cda      	ldr	r2, [r3, #76]	@ 0x4c
 8003426:	f042 0202 	orr.w	r2, r2, #2
 800342a:	64da      	str	r2, [r3, #76]	@ 0x4c
 800342c:	6cdb      	ldr	r3, [r3, #76]	@ 0x4c
 800342e:	f003 0302 	and.w	r3, r3, #2
 8003432:	9301      	str	r3, [sp, #4]
    GPIO_InitStruct.Pull = GPIO_NOPULL;
 8003434:	2600      	movs	r6, #0
    GPIO_InitStruct.Pin = GPIO_PIN_14|GPIO_PIN_15;
 8003436:	f44f 4240 	mov.w	r2, #49152	@ 0xc000
 800343a:	2303      	movs	r3, #3
    HAL_GPIO_Init(GPIOB, &GPIO_InitStruct);
 800343c:	a902      	add	r1, sp, #8
    GPIO_InitStruct.Pin = GPIO_PIN_14|GPIO_PIN_15;
 800343e:	e9cd 2302 	strd	r2, r3, [sp, #8]
    GPIO_InitStruct.Pull = GPIO_NOPULL;
 8003442:	9604      	str	r6, [sp, #16]
    __HAL_RCC_GPIOB_CLK_ENABLE();
 8003444:	9b01      	ldr	r3, [sp, #4]
    HAL_GPIO_Init(GPIOB, &GPIO_InitStruct);
 8003446:	f001 fb03 	bl	8004a50 <HAL_GPIO_Init>
    hdma_adc4.Init.Request = DMA_REQUEST_ADC4;
 800344a:	4a13      	ldr	r2, [pc, #76]	@ (8003498 <HAL_ADC_MspInit+0xc8>)
    hdma_adc4.Init.Priority = DMA_PRIORITY_LOW;
 800344c:	622e      	str	r6, [r5, #32]
    hdma_adc4.Init.Request = DMA_REQUEST_ADC4;
 800344e:	2326      	movs	r3, #38	@ 0x26
 8003450:	e9c5 2300 	strd	r2, r3, [r5]
    hdma_adc4.Init.MemInc = DMA_MINC_ENABLE;
 8003454:	2280      	movs	r2, #128	@ 0x80
    hdma_adc4.Init.PeriphDataAlignment = DMA_PDATAALIGN_HALFWORD;
 8003456:	f44f 7380 	mov.w	r3, #256	@ 0x100
 800345a:	e9c5 2304 	strd	r2, r3, [r5, #16]
    if (HAL_DMA_Init(&hdma_adc4) != HAL_OK)
 800345e:	4628      	mov	r0, r5
    hdma_adc4.Init.Mode = DMA_CIRCULAR;
 8003460:	f44f 6280 	mov.w	r2, #1024	@ 0x400
 8003464:	2320      	movs	r3, #32
    hdma_adc4.Init.PeriphInc = DMA_PINC_DISABLE;
 8003466:	e9c5 6602 	strd	r6, r6, [r5, #8]
    hdma_adc4.Init.Mode = DMA_CIRCULAR;
 800346a:	e9c5 2306 	strd	r2, r3, [r5, #24]
    if (HAL_DMA_Init(&hdma_adc4) != HAL_OK)
 800346e:	f000 ffb3 	bl	80043d8 <HAL_DMA_Init>
 8003472:	b930      	cbnz	r0, 8003482 <HAL_ADC_MspInit+0xb2>
    __HAL_LINKDMA(hadc,DMA_Handle,hdma_adc4);
 8003474:	6565      	str	r5, [r4, #84]	@ 0x54
 8003476:	62ac      	str	r4, [r5, #40]	@ 0x28
}
 8003478:	b01c      	add	sp, #112	@ 0x70
 800347a:	bd70      	pop	{r4, r5, r6, pc}
      Error_Handler();
 800347c:	f7ff ff8c 	bl	8003398 <Error_Handler>
 8003480:	e7c4      	b.n	800340c <HAL_ADC_MspInit+0x3c>
      Error_Handler();
 8003482:	f7ff ff89 	bl	8003398 <Error_Handler>
 8003486:	e7f5      	b.n	8003474 <HAL_ADC_MspInit+0xa4>
 8003488:	50000500 	.word	0x50000500
 800348c:	40021000 	.word	0x40021000
 8003490:	48000400 	.word	0x48000400
 8003494:	20000c64 	.word	0x20000c64
 8003498:	4002001c 	.word	0x4002001c
 800349c:	00000000 	.word	0x00000000

080034a0 <HAL_SPI_MspInit>:
* This function configures the hardware resources used in this example
* @param hspi: SPI handle pointer
* @retval None
*/
void HAL_SPI_MspInit(SPI_HandleTypeDef* hspi)
{
 80034a0:	b500      	push	{lr}
  GPIO_InitTypeDef GPIO_InitStruct = {0};
  if(hspi->Instance==SPI1)
 80034a2:	4a1b      	ldr	r2, [pc, #108]	@ (8003510 <HAL_SPI_MspInit+0x70>)
 80034a4:	6801      	ldr	r1, [r0, #0]
{
 80034a6:	b089      	sub	sp, #36	@ 0x24
  GPIO_InitTypeDef GPIO_InitStruct = {0};
 80034a8:	2300      	movs	r3, #0
  if(hspi->Instance==SPI1)
 80034aa:	4291      	cmp	r1, r2
  GPIO_InitTypeDef GPIO_InitStruct = {0};
 80034ac:	e9cd 3302 	strd	r3, r3, [sp, #8]
 80034b0:	e9cd 3304 	strd	r3, r3, [sp, #16]
 80034b4:	9306      	str	r3, [sp, #24]
  if(hspi->Instance==SPI1)
 80034b6:	d002      	beq.n	80034be <HAL_SPI_MspInit+0x1e>

  /* USER CODE END SPI1_MspInit 1 */

  }

}
 80034b8:	b009      	add	sp, #36	@ 0x24
 80034ba:	f85d fb04 	ldr.w	pc, [sp], #4
    __HAL_RCC_SPI1_CLK_ENABLE();
 80034be:	f103 4380 	add.w	r3, r3, #1073741824	@ 0x40000000
 80034c2:	f503 3304 	add.w	r3, r3, #135168	@ 0x21000
    GPIO_InitStruct.Pin = GPIO_PIN_2|GPIO_PIN_3|GPIO_PIN_4;
 80034c6:	ed9f 7b10 	vldr	d7, [pc, #64]	@ 8003508 <HAL_SPI_MspInit+0x68>
    __HAL_RCC_SPI1_CLK_ENABLE();
 80034ca:	6e1a      	ldr	r2, [r3, #96]	@ 0x60
    HAL_GPIO_Init(GPIOG, &GPIO_InitStruct);
 80034cc:	4811      	ldr	r0, [pc, #68]	@ (8003514 <HAL_SPI_MspInit+0x74>)
    __HAL_RCC_SPI1_CLK_ENABLE();
 80034ce:	f442 5280 	orr.w	r2, r2, #4096	@ 0x1000
 80034d2:	661a      	str	r2, [r3, #96]	@ 0x60
 80034d4:	6e1a      	ldr	r2, [r3, #96]	@ 0x60
 80034d6:	f402 5280 	and.w	r2, r2, #4096	@ 0x1000
 80034da:	9200      	str	r2, [sp, #0]
 80034dc:	9a00      	ldr	r2, [sp, #0]
    __HAL_RCC_GPIOG_CLK_ENABLE();
 80034de:	6cda      	ldr	r2, [r3, #76]	@ 0x4c
 80034e0:	f042 0240 	orr.w	r2, r2, #64	@ 0x40
 80034e4:	64da      	str	r2, [r3, #76]	@ 0x4c
 80034e6:	6cdb      	ldr	r3, [r3, #76]	@ 0x4c
 80034e8:	f003 0340 	and.w	r3, r3, #64	@ 0x40
 80034ec:	9301      	str	r3, [sp, #4]
    HAL_GPIO_Init(GPIOG, &GPIO_InitStruct);
 80034ee:	a902      	add	r1, sp, #8
    GPIO_InitStruct.Alternate = GPIO_AF5_SPI1;
 80034f0:	2305      	movs	r3, #5
    GPIO_InitStruct.Pin = GPIO_PIN_2|GPIO_PIN_3|GPIO_PIN_4;
 80034f2:	ed8d 7b02 	vstr	d7, [sp, #8]
    __HAL_RCC_GPIOG_CLK_ENABLE();
 80034f6:	9a01      	ldr	r2, [sp, #4]
    GPIO_InitStruct.Alternate = GPIO_AF5_SPI1;
 80034f8:	9306      	str	r3, [sp, #24]
    HAL_GPIO_Init(GPIOG, &GPIO_InitStruct);
 80034fa:	f001 faa9 	bl	8004a50 <HAL_GPIO_Init>
}
 80034fe:	b009      	add	sp, #36	@ 0x24
 8003500:	f85d fb04 	ldr.w	pc, [sp], #4
 8003504:	f3af 8000 	nop.w
 8003508:	0000001c 	.word	0x0000001c
 800350c:	00000002 	.word	0x00000002
 8003510:	40013000 	.word	0x40013000
 8003514:	48001800 	.word	0x48001800

08003518 <HAL_TIM_Base_MspInit>:
* @param htim_base: TIM_Base handle pointer
* @retval None
*/
void HAL_TIM_Base_MspInit(TIM_HandleTypeDef* htim_base)
{
  if(htim_base->Instance==TIM1)
 8003518:	4b09      	ldr	r3, [pc, #36]	@ (8003540 <HAL_TIM_Base_MspInit+0x28>)
 800351a:	6802      	ldr	r2, [r0, #0]
 800351c:	429a      	cmp	r2, r3
 800351e:	d000      	beq.n	8003522 <HAL_TIM_Base_MspInit+0xa>
 8003520:	4770      	bx	lr
  {
  /* USER CODE BEGIN TIM1_MspInit 0 */

  /* USER CODE END TIM1_MspInit 0 */
    /* Peripheral clock enable */
    __HAL_RCC_TIM1_CLK_ENABLE();
 8003522:	f503 4364 	add.w	r3, r3, #58368	@ 0xe400
{
 8003526:	b082      	sub	sp, #8
    __HAL_RCC_TIM1_CLK_ENABLE();
 8003528:	6e1a      	ldr	r2, [r3, #96]	@ 0x60
 800352a:	f442 6200 	orr.w	r2, r2, #2048	@ 0x800
 800352e:	661a      	str	r2, [r3, #96]	@ 0x60
 8003530:	6e1b      	ldr	r3, [r3, #96]	@ 0x60
 8003532:	f403 6300 	and.w	r3, r3, #2048	@ 0x800
 8003536:	9301      	str	r3, [sp, #4]
 8003538:	9b01      	ldr	r3, [sp, #4]

  /* USER CODE END TIM1_MspInit 1 */

  }

}
 800353a:	b002      	add	sp, #8
 800353c:	4770      	bx	lr
 800353e:	bf00      	nop
 8003540:	40012c00 	.word	0x40012c00

08003544 <HAL_SRAM_MspInit>:
  /* USER CODE BEGIN FMC_MspInit 1 */

  /* USER CODE END FMC_MspInit 1 */
}

void HAL_SRAM_MspInit(SRAM_HandleTypeDef* hsram){
 8003544:	b5f0      	push	{r4, r5, r6, r7, lr}
  if (FMC_Initialized) {
 8003546:	4b1c      	ldr	r3, [pc, #112]	@ (80035b8 <HAL_SRAM_MspInit+0x74>)
void HAL_SRAM_MspInit(SRAM_HandleTypeDef* hsram){
 8003548:	b089      	sub	sp, #36	@ 0x24
  if (FMC_Initialized) {
 800354a:	681c      	ldr	r4, [r3, #0]
  GPIO_InitTypeDef GPIO_InitStruct ={0};
 800354c:	2200      	movs	r2, #0
 800354e:	9204      	str	r2, [sp, #16]
  if (FMC_Initialized) {
 8003550:	bb7c      	cbnz	r4, 80035b2 <HAL_SRAM_MspInit+0x6e>
  __HAL_RCC_FMC_CLK_ENABLE();
 8003552:	f102 4280 	add.w	r2, r2, #1073741824	@ 0x40000000
 8003556:	f502 3204 	add.w	r2, r2, #135168	@ 0x21000
  FMC_Initialized = 1;
 800355a:	2101      	movs	r1, #1
 800355c:	6019      	str	r1, [r3, #0]
  __HAL_RCC_FMC_CLK_ENABLE();
 800355e:	6d13      	ldr	r3, [r2, #80]	@ 0x50
  HAL_GPIO_Init(GPIOE, &GPIO_InitStruct);
 8003560:	4816      	ldr	r0, [pc, #88]	@ (80035bc <HAL_SRAM_MspInit+0x78>)
  __HAL_RCC_FMC_CLK_ENABLE();
 8003562:	430b      	orrs	r3, r1
 8003564:	6513      	str	r3, [r2, #80]	@ 0x50
 8003566:	6d13      	ldr	r3, [r2, #80]	@ 0x50
 8003568:	400b      	ands	r3, r1
 800356a:	9301      	str	r3, [sp, #4]
  GPIO_InitStruct.Speed = GPIO_SPEED_FREQ_VERY_HIGH;
 800356c:	2603      	movs	r6, #3
 800356e:	250c      	movs	r5, #12
  GPIO_InitStruct.Pin = GPIO_PIN_7|GPIO_PIN_8|GPIO_PIN_9|GPIO_PIN_10
 8003570:	f64f 7280 	movw	r2, #65408	@ 0xff80
  __HAL_RCC_FMC_CLK_ENABLE();
 8003574:	9b01      	ldr	r3, [sp, #4]
  HAL_GPIO_Init(GPIOE, &GPIO_InitStruct);
 8003576:	a902      	add	r1, sp, #8
  GPIO_InitStruct.Pin = GPIO_PIN_7|GPIO_PIN_8|GPIO_PIN_9|GPIO_PIN_10
 8003578:	2302      	movs	r3, #2
 800357a:	e9cd 2302 	strd	r2, r3, [sp, #8]
  GPIO_InitStruct.Mode = GPIO_MODE_AF_PP;
 800357e:	2702      	movs	r7, #2
  GPIO_InitStruct.Speed = GPIO_SPEED_FREQ_VERY_HIGH;
 8003580:	e9cd 6505 	strd	r6, r5, [sp, #20]
  HAL_GPIO_Init(GPIOE, &GPIO_InitStruct);
 8003584:	f001 fa64 	bl	8004a50 <HAL_GPIO_Init>
  GPIO_InitStruct.Mode = GPIO_MODE_AF_PP;
 8003588:	f24c 73b3 	movw	r3, #51123	@ 0xc7b3
  HAL_GPIO_Init(GPIOD, &GPIO_InitStruct);
 800358c:	480c      	ldr	r0, [pc, #48]	@ (80035c0 <HAL_SRAM_MspInit+0x7c>)
  GPIO_InitStruct.Alternate = GPIO_AF12_FMC;
 800358e:	9506      	str	r5, [sp, #24]
  HAL_GPIO_Init(GPIOD, &GPIO_InitStruct);
 8003590:	a902      	add	r1, sp, #8
  GPIO_InitStruct.Mode = GPIO_MODE_AF_PP;
 8003592:	e9cd 3702 	strd	r3, r7, [sp, #8]
  GPIO_InitStruct.Speed = GPIO_SPEED_FREQ_VERY_HIGH;
 8003596:	e9cd 4604 	strd	r4, r6, [sp, #16]
  HAL_GPIO_Init(GPIOD, &GPIO_InitStruct);
 800359a:	f001 fa59 	bl	8004a50 <HAL_GPIO_Init>
  GPIO_InitStruct.Pin = GPIO_PIN_5;
 800359e:	2320      	movs	r3, #32
  HAL_GPIO_Init(GPIOG, &GPIO_InitStruct);
 80035a0:	4808      	ldr	r0, [pc, #32]	@ (80035c4 <HAL_SRAM_MspInit+0x80>)
  GPIO_InitStruct.Mode = GPIO_MODE_AF_PP;
 80035a2:	9703      	str	r7, [sp, #12]
  HAL_GPIO_Init(GPIOG, &GPIO_InitStruct);
 80035a4:	a902      	add	r1, sp, #8
  GPIO_InitStruct.Speed = GPIO_SPEED_FREQ_VERY_HIGH;
 80035a6:	e9cd 4604 	strd	r4, r6, [sp, #16]
  GPIO_InitStruct.Alternate = GPIO_AF12_FMC;
 80035aa:	9506      	str	r5, [sp, #24]
  GPIO_InitStruct.Pin = GPIO_PIN_5;
 80035ac:	9302      	str	r3, [sp, #8]
  HAL_GPIO_Init(GPIOG, &GPIO_InitStruct);
 80035ae:	f001 fa4f 	bl	8004a50 <HAL_GPIO_Init>
  /* USER CODE END SRAM_MspInit 0 */
  HAL_FMC_MspInit();
  /* USER CODE BEGIN SRAM_MspInit 1 */

  /* USER CODE END SRAM_MspInit 1 */
}
 80035b2:	b009      	add	sp, #36	@ 0x24
 80035b4:	bdf0      	pop	{r4, r5, r6, r7, pc}
 80035b6:	bf00      	nop
 80035b8:	20000d30 	.word	0x20000d30
 80035bc:	48001000 	.word	0x48001000
 80035c0:	48000c00 	.word	0x48000c00
 80035c4:	48001800 	.word	0x48001800

080035c8 <NMI_Handler>:
{
  /* USER CODE BEGIN NonMaskableInt_IRQn 0 */

  /* USER CODE END NonMaskableInt_IRQn 0 */
  /* USER CODE BEGIN NonMaskableInt_IRQn 1 */
  while (1)
 80035c8:	e7fe      	b.n	80035c8 <NMI_Handler>
 80035ca:	bf00      	nop

080035cc <HardFault_Handler>:
void HardFault_Handler(void)
{
  /* USER CODE BEGIN HardFault_IRQn 0 */

  /* USER CODE END HardFault_IRQn 0 */
  while (1)
 80035cc:	e7fe      	b.n	80035cc <HardFault_Handler>
 80035ce:	bf00      	nop

080035d0 <MemManage_Handler>:
void MemManage_Handler(void)
{
  /* USER CODE BEGIN MemoryManagement_IRQn 0 */

  /* USER CODE END MemoryManagement_IRQn 0 */
  while (1)
 80035d0:	e7fe      	b.n	80035d0 <MemManage_Handler>
 80035d2:	bf00      	nop

080035d4 <BusFault_Handler>:
void BusFault_Handler(void)
{
  /* USER CODE BEGIN BusFault_IRQn 0 */

  /* USER CODE END BusFault_IRQn 0 */
  while (1)
 80035d4:	e7fe      	b.n	80035d4 <BusFault_Handler>
 80035d6:	bf00      	nop

080035d8 <UsageFault_Handler>:
void UsageFault_Handler(void)
{
  /* USER CODE BEGIN UsageFault_IRQn 0 */

  /* USER CODE END UsageFault_IRQn 0 */
  while (1)
 80035d8:	e7fe      	b.n	80035d8 <UsageFault_Handler>
 80035da:	bf00      	nop

080035dc <SVC_Handler>:

  /* USER CODE END SVCall_IRQn 0 */
  /* USER CODE BEGIN SVCall_IRQn 1 */

  /* USER CODE END SVCall_IRQn 1 */
}
 80035dc:	4770      	bx	lr
 80035de:	bf00      	nop

080035e0 <DebugMon_Handler>:

/**
  * @brief This function handles Debug monitor.
  */
void DebugMon_Handler(void)
 80035e0:	4770      	bx	lr
 80035e2:	bf00      	nop

080035e4 <PendSV_Handler>:
}

/**
  * @brief This function handles Pendable request for system service.
  */
void PendSV_Handler(void)
 80035e4:	4770      	bx	lr
 80035e6:	bf00      	nop

080035e8 <SysTick_Handler>:
void SysTick_Handler(void)
{
  /* USER CODE BEGIN SysTick_IRQn 0 */

  /* USER CODE END SysTick_IRQn 0 */
  HAL_IncTick();
 80035e8:	f000 b8ee 	b.w	80037c8 <HAL_IncTick>

080035ec <DMA1_Channel1_IRQHandler>:
void DMA1_Channel1_IRQHandler(void)
{
  /* USER CODE BEGIN DMA1_Channel1_IRQn 0 */

  /* USER CODE END DMA1_Channel1_IRQn 0 */
  HAL_DMA_IRQHandler(&hdma_memtomem_dma1_channel1);
 80035ec:	4801      	ldr	r0, [pc, #4]	@ (80035f4 <DMA1_Channel1_IRQHandler+0x8>)
 80035ee:	f000 bfdd 	b.w	80045ac <HAL_DMA_IRQHandler>
 80035f2:	bf00      	nop
 80035f4:	20000b54 	.word	0x20000b54

080035f8 <DMA1_Channel2_IRQHandler>:
void DMA1_Channel2_IRQHandler(void)
{
  /* USER CODE BEGIN DMA1_Channel2_IRQn 0 */

  /* USER CODE END DMA1_Channel2_IRQn 0 */
  HAL_DMA_IRQHandler(&hdma_adc4);
 80035f8:	4801      	ldr	r0, [pc, #4]	@ (8003600 <DMA1_Channel2_IRQHandler+0x8>)
 80035fa:	f000 bfd7 	b.w	80045ac <HAL_DMA_IRQHandler>
 80035fe:	bf00      	nop
 8003600:	20000c64 	.word	0x20000c64

08003604 <USART3_IRQHandler>:

/**
  * @brief This function handles USART3 global interrupt / USART3 wake-up interrupt through EXTI line 28.
  */
void USART3_IRQHandler(void)
{
 8003604:	b508      	push	{r3, lr}
  * @param  USARTx USART Instance
  * @retval State of bit (1 or 0).
  */
__STATIC_INLINE uint32_t LL_USART_IsEnabledIT_RXNE_RXFNE(const USART_TypeDef *USARTx)
{
  return ((READ_BIT(USARTx->CR1, USART_CR1_RXNEIE_RXFNEIE) == (USART_CR1_RXNEIE_RXFNEIE)) ? 1UL : 0UL);
 8003606:	4b0b      	ldr	r3, [pc, #44]	@ (8003634 <USART3_IRQHandler+0x30>)
 8003608:	681a      	ldr	r2, [r3, #0]
 800360a:	0690      	lsls	r0, r2, #26
 800360c:	d502      	bpl.n	8003614 <USART3_IRQHandler+0x10>
  return ((READ_BIT(USARTx->ISR, USART_ISR_RXNE_RXFNE) == (USART_ISR_RXNE_RXFNE)) ? 1UL : 0UL);
 800360e:	69db      	ldr	r3, [r3, #28]
 8003610:	0699      	lsls	r1, r3, #26
 8003612:	d40b      	bmi.n	800362c <USART3_IRQHandler+0x28>
  * @param  USARTx USART Instance
  * @retval State of bit (1 or 0).
  */
__STATIC_INLINE uint32_t LL_USART_IsEnabledIT_TXE_TXFNF(const USART_TypeDef *USARTx)
{
  return ((READ_BIT(USARTx->CR1, USART_CR1_TXEIE_TXFNFIE) == (USART_CR1_TXEIE_TXFNFIE)) ? 1UL : 0UL);
 8003614:	4b07      	ldr	r3, [pc, #28]	@ (8003634 <USART3_IRQHandler+0x30>)
 8003616:	681a      	ldr	r2, [r3, #0]
 8003618:	0612      	lsls	r2, r2, #24
 800361a:	d506      	bpl.n	800362a <USART3_IRQHandler+0x26>
  return ((READ_BIT(USARTx->ISR, USART_ISR_TXE_TXFNF) == (USART_ISR_TXE_TXFNF)) ? 1UL : 0UL);
 800361c:	69db      	ldr	r3, [r3, #28]
 800361e:	061b      	lsls	r3, r3, #24
 8003620:	d503      	bpl.n	800362a <USART3_IRQHandler+0x26>

  /* USER CODE END USART3_IRQn 0 */
  /* USER CODE BEGIN USART3_IRQn 1 */

  /* USER CODE END USART3_IRQn 1 */
}
 8003622:	e8bd 4008 	ldmia.w	sp!, {r3, lr}
				SCI_transmit_char_Callback();
 8003626:	f003 ba21 	b.w	8006a6c <SCI_transmit_char_Callback>
}
 800362a:	bd08      	pop	{r3, pc}
				SCI_receive_char_Callback();
 800362c:	f003 fa12 	bl	8006a54 <SCI_receive_char_Callback>
 8003630:	e7f0      	b.n	8003614 <USART3_IRQHandler+0x10>
 8003632:	bf00      	nop
 8003634:	40004800 	.word	0x40004800

08003638 <TIM6_DAC_IRQHandler>:

/**
  * @brief This function handles TIM6 global interrupt, DAC1 and DAC3 channel underrun error interrupts.
  */
void TIM6_DAC_IRQHandler(void)
{
 8003638:	b510      	push	{r4, lr}
  * @param  TIMx Timer instance
  * @retval State of bit (1 or 0).
  */
__STATIC_INLINE uint32_t LL_TIM_IsEnabledIT_UPDATE(const TIM_TypeDef *TIMx)
{
  return ((READ_BIT(TIMx->DIER, TIM_DIER_UIE) == (TIM_DIER_UIE)) ? 1UL : 0UL);
 800363a:	4c06      	ldr	r4, [pc, #24]	@ (8003654 <TIM6_DAC_IRQHandler+0x1c>)
 800363c:	68e3      	ldr	r3, [r4, #12]
 800363e:	07da      	lsls	r2, r3, #31
 8003640:	d507      	bpl.n	8003652 <TIM6_DAC_IRQHandler+0x1a>
  return ((READ_BIT(TIMx->SR, TIM_SR_UIF) == (TIM_SR_UIF)) ? 1UL : 0UL);
 8003642:	6923      	ldr	r3, [r4, #16]
 8003644:	07db      	lsls	r3, r3, #31
 8003646:	d504      	bpl.n	8003652 <TIM6_DAC_IRQHandler+0x1a>

	if(LL_TIM_IsEnabledIT_UPDATE(TIM6))
	{
		if(LL_TIM_IsActiveFlag_UPDATE(TIM6))
		{
			PSERV_run_services_Callback();
 8003648:	f003 fcee 	bl	8007028 <PSERV_run_services_Callback>
  WRITE_REG(TIMx->SR, ~(TIM_SR_UIF));
 800364c:	f06f 0301 	mvn.w	r3, #1
 8003650:	6123      	str	r3, [r4, #16]

  /* USER CODE END TIM6_DAC_IRQn 0 */
  /* USER CODE BEGIN TIM6_DAC_IRQn 1 */

  /* USER CODE END TIM6_DAC_IRQn 1 */
}
 8003652:	bd10      	pop	{r4, pc}
 8003654:	40001000 	.word	0x40001000

08003658 <_getpid>:
}

int _getpid(void)
{
	return 1;
}
 8003658:	2001      	movs	r0, #1
 800365a:	4770      	bx	lr

0800365c <_kill>:

int _kill(int pid, int sig)
{
 800365c:	b508      	push	{r3, lr}
	errno = EINVAL;
 800365e:	f004 fb99 	bl	8007d94 <__errno>
 8003662:	2316      	movs	r3, #22
 8003664:	6003      	str	r3, [r0, #0]
	return -1;
}
 8003666:	f04f 30ff 	mov.w	r0, #4294967295
 800366a:	bd08      	pop	{r3, pc}

0800366c <_exit>:

void _exit (int status)
{
 800366c:	b508      	push	{r3, lr}
	errno = EINVAL;
 800366e:	f004 fb91 	bl	8007d94 <__errno>
 8003672:	2316      	movs	r3, #22
 8003674:	6003      	str	r3, [r0, #0]
	_kill(status, -1);
	while (1) {}		/* Make sure we hang here */
 8003676:	e7fe      	b.n	8003676 <_exit+0xa>

08003678 <_read>:
}

__attribute__((weak)) int _read(int file, char *ptr, int len)
{
 8003678:	b570      	push	{r4, r5, r6, lr}
	int DataIdx;

	for (DataIdx = 0; DataIdx < len; DataIdx++)
 800367a:	1e16      	subs	r6, r2, #0
 800367c:	dd07      	ble.n	800368e <_read+0x16>
 800367e:	460c      	mov	r4, r1
 8003680:	198d      	adds	r5, r1, r6
	{
		*ptr++ = __io_getchar();
 8003682:	f3af 8000 	nop.w
 8003686:	f804 0b01 	strb.w	r0, [r4], #1
	for (DataIdx = 0; DataIdx < len; DataIdx++)
 800368a:	42a5      	cmp	r5, r4
 800368c:	d1f9      	bne.n	8003682 <_read+0xa>
	}

return len;
}
 800368e:	4630      	mov	r0, r6
 8003690:	bd70      	pop	{r4, r5, r6, pc}
 8003692:	bf00      	nop

08003694 <_close>:
}

int _close(int file)
{
	return -1;
}
 8003694:	f04f 30ff 	mov.w	r0, #4294967295
 8003698:	4770      	bx	lr
 800369a:	bf00      	nop

0800369c <_fstat>:


int _fstat(int file, struct stat *st)
{
	st->st_mode = S_IFCHR;
 800369c:	f44f 5300 	mov.w	r3, #8192	@ 0x2000
 80036a0:	604b      	str	r3, [r1, #4]
	return 0;
}
 80036a2:	2000      	movs	r0, #0
 80036a4:	4770      	bx	lr
 80036a6:	bf00      	nop

080036a8 <_isatty>:

int _isatty(int file)
{
	return 1;
}
 80036a8:	2001      	movs	r0, #1
 80036aa:	4770      	bx	lr

080036ac <_lseek>:

int _lseek(int file, int ptr, int dir)
{
	return 0;
}
 80036ac:	2000      	movs	r0, #0
 80036ae:	4770      	bx	lr

080036b0 <_sbrk>:
  const uint32_t stack_limit = (uint32_t)&_estack - (uint32_t)&_Min_Stack_Size;
  const uint8_t *max_heap = (uint8_t *)stack_limit;
  uint8_t *prev_heap_end;

  /* Initialize heap end at first call */
  if (NULL == __sbrk_heap_end)
 80036b0:	490c      	ldr	r1, [pc, #48]	@ (80036e4 <_sbrk+0x34>)
  const uint32_t stack_limit = (uint32_t)&_estack - (uint32_t)&_Min_Stack_Size;
 80036b2:	4a0d      	ldr	r2, [pc, #52]	@ (80036e8 <_sbrk+0x38>)
  if (NULL == __sbrk_heap_end)
 80036b4:	680b      	ldr	r3, [r1, #0]
{
 80036b6:	b510      	push	{r4, lr}
  const uint32_t stack_limit = (uint32_t)&_estack - (uint32_t)&_Min_Stack_Size;
 80036b8:	4c0c      	ldr	r4, [pc, #48]	@ (80036ec <_sbrk+0x3c>)
 80036ba:	1b12      	subs	r2, r2, r4
  if (NULL == __sbrk_heap_end)
 80036bc:	b12b      	cbz	r3, 80036ca <_sbrk+0x1a>
  {
    __sbrk_heap_end = &_end;
  }

  /* Protect heap from growing into the reserved MSP stack */
  if (__sbrk_heap_end + incr > max_heap)
 80036be:	4418      	add	r0, r3
 80036c0:	4290      	cmp	r0, r2
 80036c2:	d807      	bhi.n	80036d4 <_sbrk+0x24>
    errno = ENOMEM;
    return (void *)-1;
  }

  prev_heap_end = __sbrk_heap_end;
  __sbrk_heap_end += incr;
 80036c4:	6008      	str	r0, [r1, #0]

  return (void *)prev_heap_end;
}
 80036c6:	4618      	mov	r0, r3
 80036c8:	bd10      	pop	{r4, pc}
    __sbrk_heap_end = &_end;
 80036ca:	4b09      	ldr	r3, [pc, #36]	@ (80036f0 <_sbrk+0x40>)
 80036cc:	600b      	str	r3, [r1, #0]
  if (__sbrk_heap_end + incr > max_heap)
 80036ce:	4418      	add	r0, r3
 80036d0:	4290      	cmp	r0, r2
 80036d2:	d9f7      	bls.n	80036c4 <_sbrk+0x14>
    errno = ENOMEM;
 80036d4:	f004 fb5e 	bl	8007d94 <__errno>
 80036d8:	230c      	movs	r3, #12
 80036da:	6003      	str	r3, [r0, #0]
    return (void *)-1;
 80036dc:	f04f 33ff 	mov.w	r3, #4294967295
}
 80036e0:	4618      	mov	r0, r3
 80036e2:	bd10      	pop	{r4, pc}
 80036e4:	20000d34 	.word	0x20000d34
 80036e8:	20020000 	.word	0x20020000
 80036ec:	00000400 	.word	0x00000400
 80036f0:	20001480 	.word	0x20001480

080036f4 <SystemInit>:

void SystemInit(void)
{
  /* FPU settings ------------------------------------------------------------*/
  #if (__FPU_PRESENT == 1) && (__FPU_USED == 1)
    SCB->CPACR |= ((3UL << (10*2))|(3UL << (11*2)));  /* set CP10 and CP11 Full Access */
 80036f4:	4a03      	ldr	r2, [pc, #12]	@ (8003704 <SystemInit+0x10>)
 80036f6:	f8d2 3088 	ldr.w	r3, [r2, #136]	@ 0x88
 80036fa:	f443 0370 	orr.w	r3, r3, #15728640	@ 0xf00000
 80036fe:	f8c2 3088 	str.w	r3, [r2, #136]	@ 0x88

  /* Configure the Vector Table location add offset address ------------------*/
#if defined(USER_VECT_TAB_ADDRESS)
  SCB->VTOR = VECT_TAB_BASE_ADDRESS | VECT_TAB_OFFSET; /* Vector Table Relocation in Internal SRAM */
#endif /* USER_VECT_TAB_ADDRESS */
}
 8003702:	4770      	bx	lr
 8003704:	e000ed00 	.word	0xe000ed00

08003708 <Reset_Handler>:

    .section	.text.Reset_Handler
	.weak	Reset_Handler
	.type	Reset_Handler, %function
Reset_Handler:
  ldr   r0, =_estack
 8003708:	480d      	ldr	r0, [pc, #52]	@ (8003740 <LoopForever+0x2>)
  mov   sp, r0          /* set stack pointer */
 800370a:	4685      	mov	sp, r0

/* Call the clock system initialization function.*/
    bl  SystemInit
 800370c:	f7ff fff2 	bl	80036f4 <SystemInit>

/* Copy the data segment initializers from flash to SRAM */
  ldr r0, =_sdata
 8003710:	480c      	ldr	r0, [pc, #48]	@ (8003744 <LoopForever+0x6>)
  ldr r1, =_edata
 8003712:	490d      	ldr	r1, [pc, #52]	@ (8003748 <LoopForever+0xa>)
  ldr r2, =_sidata
 8003714:	4a0d      	ldr	r2, [pc, #52]	@ (800374c <LoopForever+0xe>)
  movs r3, #0
 8003716:	2300      	movs	r3, #0
  b	LoopCopyDataInit
 8003718:	e002      	b.n	8003720 <LoopCopyDataInit>

0800371a <CopyDataInit>:

CopyDataInit:
  ldr r4, [r2, r3]
 800371a:	58d4      	ldr	r4, [r2, r3]
  str r4, [r0, r3]
 800371c:	50c4      	str	r4, [r0, r3]
  adds r3, r3, #4
 800371e:	3304      	adds	r3, #4

08003720 <LoopCopyDataInit>:

LoopCopyDataInit:
  adds r4, r0, r3
 8003720:	18c4      	adds	r4, r0, r3
  cmp r4, r1
 8003722:	428c      	cmp	r4, r1
  bcc CopyDataInit
 8003724:	d3f9      	bcc.n	800371a <CopyDataInit>
  
/* Zero fill the bss segment. */
  ldr r2, =_sbss
 8003726:	4a0a      	ldr	r2, [pc, #40]	@ (8003750 <LoopForever+0x12>)
  ldr r4, =_ebss
 8003728:	4c0a      	ldr	r4, [pc, #40]	@ (8003754 <LoopForever+0x16>)
  movs r3, #0
 800372a:	2300      	movs	r3, #0
  b LoopFillZerobss
 800372c:	e001      	b.n	8003732 <LoopFillZerobss>

0800372e <FillZerobss>:

FillZerobss:
  str  r3, [r2]
 800372e:	6013      	str	r3, [r2, #0]
  adds r2, r2, #4
 8003730:	3204      	adds	r2, #4

08003732 <LoopFillZerobss>:

LoopFillZerobss:
  cmp r2, r4
 8003732:	42a2      	cmp	r2, r4
  bcc FillZerobss
 8003734:	d3fb      	bcc.n	800372e <FillZerobss>

/* Call static constructors */
    bl __libc_init_array
 8003736:	f004 fb33 	bl	8007da0 <__libc_init_array>
/* Call the application's entry point.*/
	bl	main
 800373a:	f7ff faa1 	bl	8002c80 <main>

0800373e <LoopForever>:

LoopForever:
    b LoopForever
 800373e:	e7fe      	b.n	800373e <LoopForever>
  ldr   r0, =_estack
 8003740:	20020000 	.word	0x20020000
  ldr r0, =_sdata
 8003744:	20000000 	.word	0x20000000
  ldr r1, =_edata
 8003748:	200000b0 	.word	0x200000b0
  ldr r2, =_sidata
 800374c:	080645f0 	.word	0x080645f0
  ldr r2, =_sbss
 8003750:	200000b0 	.word	0x200000b0
  ldr r4, =_ebss
 8003754:	20001480 	.word	0x20001480

08003758 <ADC1_2_IRQHandler>:
 * @retval : None
*/
    .section	.text.Default_Handler,"ax",%progbits
Default_Handler:
Infinite_Loop:
	b	Infinite_Loop
 8003758:	e7fe      	b.n	8003758 <ADC1_2_IRQHandler>
	...

0800375c <HAL_InitTick>:
  *       implementation  in user file.
  * @param TickPriority: Tick interrupt priority.
  * @retval HAL status
  */
__weak HAL_StatusTypeDef HAL_InitTick(uint32_t TickPriority)
{
 800375c:	b538      	push	{r3, r4, r5, lr}
  HAL_StatusTypeDef  status = HAL_OK;

  if (uwTickFreq != 0U)
 800375e:	4b0f      	ldr	r3, [pc, #60]	@ (800379c <HAL_InitTick+0x40>)
 8003760:	681b      	ldr	r3, [r3, #0]
 8003762:	b90b      	cbnz	r3, 8003768 <HAL_InitTick+0xc>
        status = HAL_ERROR;
      }
    }
    else
    {
      status = HAL_ERROR;
 8003764:	2001      	movs	r0, #1
    status = HAL_ERROR;
  }

  /* Return function status */
  return status;
}
 8003766:	bd38      	pop	{r3, r4, r5, pc}
    if (HAL_SYSTICK_Config(SystemCoreClock / (1000U / uwTickFreq)) == 0U)
 8003768:	490d      	ldr	r1, [pc, #52]	@ (80037a0 <HAL_InitTick+0x44>)
 800376a:	f44f 727a 	mov.w	r2, #1000	@ 0x3e8
 800376e:	4605      	mov	r5, r0
 8003770:	fbb2 f3f3 	udiv	r3, r2, r3
 8003774:	6808      	ldr	r0, [r1, #0]
 8003776:	fbb0 f0f3 	udiv	r0, r0, r3
 800377a:	f000 fe13 	bl	80043a4 <HAL_SYSTICK_Config>
 800377e:	4604      	mov	r4, r0
 8003780:	2800      	cmp	r0, #0
 8003782:	d1ef      	bne.n	8003764 <HAL_InitTick+0x8>
      if (TickPriority < (1UL << __NVIC_PRIO_BITS))
 8003784:	2d0f      	cmp	r5, #15
 8003786:	d8ed      	bhi.n	8003764 <HAL_InitTick+0x8>
        HAL_NVIC_SetPriority(SysTick_IRQn, TickPriority, 0U);
 8003788:	4602      	mov	r2, r0
 800378a:	4629      	mov	r1, r5
 800378c:	f04f 30ff 	mov.w	r0, #4294967295
 8003790:	f000 fdbe 	bl	8004310 <HAL_NVIC_SetPriority>
        uwTickPrio = TickPriority;
 8003794:	4b03      	ldr	r3, [pc, #12]	@ (80037a4 <HAL_InitTick+0x48>)
 8003796:	4620      	mov	r0, r4
 8003798:	601d      	str	r5, [r3, #0]
}
 800379a:	bd38      	pop	{r3, r4, r5, pc}
 800379c:	2000002c 	.word	0x2000002c
 80037a0:	20000028 	.word	0x20000028
 80037a4:	20000030 	.word	0x20000030

080037a8 <HAL_Init>:
{
 80037a8:	b510      	push	{r4, lr}
  HAL_NVIC_SetPriorityGrouping(NVIC_PRIORITYGROUP_4);
 80037aa:	2003      	movs	r0, #3
 80037ac:	f000 fd9e 	bl	80042ec <HAL_NVIC_SetPriorityGrouping>
  if (HAL_InitTick(TICK_INT_PRIORITY) != HAL_OK)
 80037b0:	200e      	movs	r0, #14
 80037b2:	f7ff ffd3 	bl	800375c <HAL_InitTick>
 80037b6:	b110      	cbz	r0, 80037be <HAL_Init+0x16>
    status = HAL_ERROR;
 80037b8:	2401      	movs	r4, #1
}
 80037ba:	4620      	mov	r0, r4
 80037bc:	bd10      	pop	{r4, pc}
 80037be:	4604      	mov	r4, r0
    HAL_MspInit();
 80037c0:	f7ff fdec 	bl	800339c <HAL_MspInit>
}
 80037c4:	4620      	mov	r0, r4
 80037c6:	bd10      	pop	{r4, pc}

080037c8 <HAL_IncTick>:
  *      implementations in user file.
  * @retval None
  */
__weak void HAL_IncTick(void)
{
  uwTick += uwTickFreq;
 80037c8:	4a03      	ldr	r2, [pc, #12]	@ (80037d8 <HAL_IncTick+0x10>)
 80037ca:	4904      	ldr	r1, [pc, #16]	@ (80037dc <HAL_IncTick+0x14>)
 80037cc:	6813      	ldr	r3, [r2, #0]
 80037ce:	6809      	ldr	r1, [r1, #0]
 80037d0:	440b      	add	r3, r1
 80037d2:	6013      	str	r3, [r2, #0]
}
 80037d4:	4770      	bx	lr
 80037d6:	bf00      	nop
 80037d8:	20000d38 	.word	0x20000d38
 80037dc:	2000002c 	.word	0x2000002c

080037e0 <HAL_GetTick>:
  *       implementations in user file.
  * @retval tick value
  */
__weak uint32_t HAL_GetTick(void)
{
  return uwTick;
 80037e0:	4b01      	ldr	r3, [pc, #4]	@ (80037e8 <HAL_GetTick+0x8>)
 80037e2:	6818      	ldr	r0, [r3, #0]
}
 80037e4:	4770      	bx	lr
 80037e6:	bf00      	nop
 80037e8:	20000d38 	.word	0x20000d38

080037ec <HAL_Delay>:
  *       implementations in user file.
  * @param Delay specifies the delay time length, in milliseconds.
  * @retval None
  */
__weak void HAL_Delay(uint32_t Delay)
{
 80037ec:	b538      	push	{r3, r4, r5, lr}
 80037ee:	4604      	mov	r4, r0
  uint32_t tickstart = HAL_GetTick();
 80037f0:	f7ff fff6 	bl	80037e0 <HAL_GetTick>
  uint32_t wait = Delay;

  /* Add a freq to guarantee minimum wait */
  if (wait < HAL_MAX_DELAY)
 80037f4:	1c63      	adds	r3, r4, #1
  uint32_t tickstart = HAL_GetTick();
 80037f6:	4605      	mov	r5, r0
  if (wait < HAL_MAX_DELAY)
 80037f8:	d002      	beq.n	8003800 <HAL_Delay+0x14>
  {
    wait += (uint32_t)(uwTickFreq);
 80037fa:	4b04      	ldr	r3, [pc, #16]	@ (800380c <HAL_Delay+0x20>)
 80037fc:	681b      	ldr	r3, [r3, #0]
 80037fe:	441c      	add	r4, r3
  }

  while ((HAL_GetTick() - tickstart) < wait)
 8003800:	f7ff ffee 	bl	80037e0 <HAL_GetTick>
 8003804:	1b40      	subs	r0, r0, r5
 8003806:	42a0      	cmp	r0, r4
 8003808:	d3fa      	bcc.n	8003800 <HAL_Delay+0x14>
  {
  }
}
 800380a:	bd38      	pop	{r3, r4, r5, pc}
 800380c:	2000002c 	.word	0x2000002c

08003810 <HAL_ADC_Init>:
  *         without  disabling the other ADCs.
  * @param hadc ADC handle
  * @retval HAL status
  */
HAL_StatusTypeDef HAL_ADC_Init(ADC_HandleTypeDef *hadc)
{
 8003810:	b530      	push	{r4, r5, lr}
 8003812:	b083      	sub	sp, #12
  HAL_StatusTypeDef tmp_hal_status = HAL_OK;
  uint32_t tmp_cfgr;
  uint32_t tmp_adc_is_conversion_on_going_regular;
  uint32_t tmp_adc_is_conversion_on_going_injected;
  __IO uint32_t wait_loop_index = 0UL;
 8003814:	2300      	movs	r3, #0
 8003816:	9301      	str	r3, [sp, #4]

  /* Check ADC handle */
  if (hadc == NULL)
 8003818:	2800      	cmp	r0, #0
 800381a:	d05c      	beq.n	80038d6 <HAL_ADC_Init+0xc6>
  /* DISCEN and CONT bits cannot be set at the same time */
  assert_param(!((hadc->Init.DiscontinuousConvMode == ENABLE) && (hadc->Init.ContinuousConvMode == ENABLE)));

  /* Actions performed only if ADC is coming from state reset:                */
  /* - Initialization of ADC MSP                                              */
  if (hadc->State == HAL_ADC_STATE_RESET)
 800381c:	6dc5      	ldr	r5, [r0, #92]	@ 0x5c
 800381e:	4604      	mov	r4, r0
 8003820:	2d00      	cmp	r5, #0
 8003822:	f000 80cc 	beq.w	80039be <HAL_ADC_Init+0x1ae>
    /* Initialize Lock */
    hadc->Lock = HAL_UNLOCKED;
  }

  /* - Exit from deep-power-down mode and ADC voltage regulator enable        */
  if (LL_ADC_IsDeepPowerDownEnabled(hadc->Instance) != 0UL)
 8003826:	6822      	ldr	r2, [r4, #0]
  * @param  ADCx ADC instance
  * @retval 0: deep power down is disabled, 1: deep power down is enabled.
  */
__STATIC_INLINE uint32_t LL_ADC_IsDeepPowerDownEnabled(const ADC_TypeDef *ADCx)
{
  return ((READ_BIT(ADCx->CR, ADC_CR_DEEPPWD) == (ADC_CR_DEEPPWD)) ? 1UL : 0UL);
 8003828:	6893      	ldr	r3, [r2, #8]
 800382a:	009d      	lsls	r5, r3, #2
 800382c:	d505      	bpl.n	800383a <HAL_ADC_Init+0x2a>
  CLEAR_BIT(ADCx->CR, (ADC_CR_DEEPPWD | ADC_CR_BITS_PROPERTY_RS));
 800382e:	6893      	ldr	r3, [r2, #8]
 8003830:	f023 4320 	bic.w	r3, r3, #2684354560	@ 0xa0000000
 8003834:	f023 033f 	bic.w	r3, r3, #63	@ 0x3f
 8003838:	6093      	str	r3, [r2, #8]
  * @param  ADCx ADC instance
  * @retval 0: internal regulator is disabled, 1: internal regulator is enabled.
  */
__STATIC_INLINE uint32_t LL_ADC_IsInternalRegulatorEnabled(const ADC_TypeDef *ADCx)
{
  return ((READ_BIT(ADCx->CR, ADC_CR_ADVREGEN) == (ADC_CR_ADVREGEN)) ? 1UL : 0UL);
 800383a:	6893      	ldr	r3, [r2, #8]
 800383c:	00d8      	lsls	r0, r3, #3
 800383e:	d419      	bmi.n	8003874 <HAL_ADC_Init+0x64>
    LL_ADC_EnableInternalRegulator(hadc->Instance);

    /* Note: Variable divided by 2 to compensate partially              */
    /*       CPU processing cycles, scaling in us split to not          */
    /*       exceed 32 bits register capacity and handle low frequency. */
    wait_loop_index = ((LL_ADC_DELAY_INTERNAL_REGUL_STAB_US / 10UL) * ((SystemCoreClock / (100000UL * 2UL)) + 1UL));
 8003840:	4b78      	ldr	r3, [pc, #480]	@ (8003a24 <HAL_ADC_Init+0x214>)
 8003842:	4879      	ldr	r0, [pc, #484]	@ (8003a28 <HAL_ADC_Init+0x218>)
 8003844:	681b      	ldr	r3, [r3, #0]
  MODIFY_REG(ADCx->CR,
 8003846:	6891      	ldr	r1, [r2, #8]
 8003848:	099b      	lsrs	r3, r3, #6
 800384a:	fba0 0303 	umull	r0, r3, r0, r3
 800384e:	f021 4110 	bic.w	r1, r1, #2415919104	@ 0x90000000
 8003852:	099b      	lsrs	r3, r3, #6
 8003854:	f021 013f 	bic.w	r1, r1, #63	@ 0x3f
 8003858:	3301      	adds	r3, #1
 800385a:	005b      	lsls	r3, r3, #1
 800385c:	f041 5180 	orr.w	r1, r1, #268435456	@ 0x10000000
 8003860:	6091      	str	r1, [r2, #8]
 8003862:	9301      	str	r3, [sp, #4]
    while (wait_loop_index != 0UL)
 8003864:	9b01      	ldr	r3, [sp, #4]
 8003866:	b12b      	cbz	r3, 8003874 <HAL_ADC_Init+0x64>
    {
      wait_loop_index--;
 8003868:	9b01      	ldr	r3, [sp, #4]
 800386a:	3b01      	subs	r3, #1
 800386c:	9301      	str	r3, [sp, #4]
    while (wait_loop_index != 0UL)
 800386e:	9b01      	ldr	r3, [sp, #4]
 8003870:	2b00      	cmp	r3, #0
 8003872:	d1f9      	bne.n	8003868 <HAL_ADC_Init+0x58>
  return ((READ_BIT(ADCx->CR, ADC_CR_ADVREGEN) == (ADC_CR_ADVREGEN)) ? 1UL : 0UL);
 8003874:	6893      	ldr	r3, [r2, #8]
 8003876:	00d9      	lsls	r1, r3, #3
 8003878:	d430      	bmi.n	80038dc <HAL_ADC_Init+0xcc>
  /* or not ADC is coming from state reset (if any potential problem of       */
  /* clocking, voltage regulator would not be enabled).                       */
  if (LL_ADC_IsInternalRegulatorEnabled(hadc->Instance) == 0UL)
  {
    /* Update ADC state machine to error */
    SET_BIT(hadc->State, HAL_ADC_STATE_ERROR_INTERNAL);
 800387a:	6de3      	ldr	r3, [r4, #92]	@ 0x5c
 800387c:	f043 0310 	orr.w	r3, r3, #16
 8003880:	65e3      	str	r3, [r4, #92]	@ 0x5c

    /* Set ADC error code to ADC peripheral internal error */
    SET_BIT(hadc->ErrorCode, HAL_ADC_ERROR_INTERNAL);
 8003882:	6e23      	ldr	r3, [r4, #96]	@ 0x60

    tmp_hal_status = HAL_ERROR;
 8003884:	2001      	movs	r0, #1
    SET_BIT(hadc->ErrorCode, HAL_ADC_ERROR_INTERNAL);
 8003886:	4303      	orrs	r3, r0
 8003888:	6623      	str	r3, [r4, #96]	@ 0x60
  * @param  ADCx ADC instance
  * @retval 0: no conversion is on going on ADC group regular.
  */
__STATIC_INLINE uint32_t LL_ADC_REG_IsConversionOngoing(const ADC_TypeDef *ADCx)
{
  return ((READ_BIT(ADCx->CR, ADC_CR_ADSTART) == (ADC_CR_ADSTART)) ? 1UL : 0UL);
 800388a:	6893      	ldr	r3, [r2, #8]
 800388c:	f013 0f04 	tst.w	r3, #4
  /* correctly completed and if there is no conversion on going on regular    */
  /* group (ADC may already be enabled at this point if HAL_ADC_Init() is     */
  /* called to update a parameter on the fly).                                */
  tmp_adc_is_conversion_on_going_regular = LL_ADC_REG_IsConversionOngoing(hadc->Instance);

  if (((hadc->State & HAL_ADC_STATE_ERROR_INTERNAL) == 0UL)
 8003890:	6de3      	ldr	r3, [r4, #92]	@ 0x5c
 8003892:	d11c      	bne.n	80038ce <HAL_ADC_Init+0xbe>
 8003894:	06db      	lsls	r3, r3, #27
 8003896:	d41a      	bmi.n	80038ce <HAL_ADC_Init+0xbe>
      && (tmp_adc_is_conversion_on_going_regular == 0UL)
     )
  {
    /* Set ADC state */
    ADC_STATE_CLR_SET(hadc->State,
 8003898:	6de3      	ldr	r3, [r4, #92]	@ 0x5c
 800389a:	f423 7381 	bic.w	r3, r3, #258	@ 0x102
 800389e:	f043 0302 	orr.w	r3, r3, #2
 80038a2:	65e3      	str	r3, [r4, #92]	@ 0x5c
  return ((READ_BIT(ADCx->CR, ADC_CR_ADEN) == (ADC_CR_ADEN)) ? 1UL : 0UL);
 80038a4:	6893      	ldr	r3, [r2, #8]
 80038a6:	07dd      	lsls	r5, r3, #31
 80038a8:	d432      	bmi.n	8003910 <HAL_ADC_Init+0x100>
    /* Parameters update conditioned to ADC state:                            */
    /* Parameters that can be updated only when ADC is disabled:              */
    /*  - clock configuration                                                 */
    if (LL_ADC_IsEnabled(hadc->Instance) == 0UL)
    {
      if (__LL_ADC_IS_ENABLED_ALL_COMMON_INSTANCE(__LL_ADC_COMMON_INSTANCE(hadc->Instance)) == 0UL)
 80038aa:	f1b2 4fa0 	cmp.w	r2, #1342177280	@ 0x50000000
 80038ae:	d017      	beq.n	80038e0 <HAL_ADC_Init+0xd0>
 80038b0:	4b5e      	ldr	r3, [pc, #376]	@ (8003a2c <HAL_ADC_Init+0x21c>)
 80038b2:	429a      	cmp	r2, r3
 80038b4:	d014      	beq.n	80038e0 <HAL_ADC_Init+0xd0>
 80038b6:	495e      	ldr	r1, [pc, #376]	@ (8003a30 <HAL_ADC_Init+0x220>)
 80038b8:	4b5e      	ldr	r3, [pc, #376]	@ (8003a34 <HAL_ADC_Init+0x224>)
 80038ba:	6889      	ldr	r1, [r1, #8]
 80038bc:	689b      	ldr	r3, [r3, #8]
 80038be:	430b      	orrs	r3, r1
 80038c0:	495d      	ldr	r1, [pc, #372]	@ (8003a38 <HAL_ADC_Init+0x228>)
 80038c2:	6889      	ldr	r1, [r1, #8]
 80038c4:	430b      	orrs	r3, r1
 80038c6:	07d9      	lsls	r1, r3, #31
 80038c8:	d422      	bmi.n	8003910 <HAL_ADC_Init+0x100>
        /*     parameters: MDMA, DMACFG, DELAY, DUAL (set by API                */
        /*     HAL_ADCEx_MultiModeConfigChannel() )                             */
        /*   - internal measurement paths: Vbat, temperature sensor, Vref       */
        /*     (set into HAL_ADC_ConfigChannel() or                             */
        /*     HAL_ADCEx_InjectedConfigChannel() )                              */
        LL_ADC_SetCommonClock(__LL_ADC_COMMON_INSTANCE(hadc->Instance), hadc->Init.ClockPrescaler);
 80038ca:	495c      	ldr	r1, [pc, #368]	@ (8003a3c <HAL_ADC_Init+0x22c>)
 80038cc:	e01a      	b.n	8003904 <HAL_ADC_Init+0xf4>
    ADC_STATE_CLR_SET(hadc->State, HAL_ADC_STATE_BUSY_INTERNAL, HAL_ADC_STATE_READY);
  }
  else
  {
    /* Update ADC state machine to error */
    SET_BIT(hadc->State, HAL_ADC_STATE_ERROR_INTERNAL);
 80038ce:	6de3      	ldr	r3, [r4, #92]	@ 0x5c
 80038d0:	f043 0310 	orr.w	r3, r3, #16
 80038d4:	65e3      	str	r3, [r4, #92]	@ 0x5c
    return HAL_ERROR;
 80038d6:	2001      	movs	r0, #1
    tmp_hal_status = HAL_ERROR;
  }

  /* Return function status */
  return tmp_hal_status;
}
 80038d8:	b003      	add	sp, #12
 80038da:	bd30      	pop	{r4, r5, pc}
  HAL_StatusTypeDef tmp_hal_status = HAL_OK;
 80038dc:	2000      	movs	r0, #0
 80038de:	e7d4      	b.n	800388a <HAL_ADC_Init+0x7a>
 80038e0:	f04f 41a0 	mov.w	r1, #1342177280	@ 0x50000000
 80038e4:	4b51      	ldr	r3, [pc, #324]	@ (8003a2c <HAL_ADC_Init+0x21c>)
 80038e6:	688d      	ldr	r5, [r1, #8]
 80038e8:	6899      	ldr	r1, [r3, #8]
 80038ea:	07c9      	lsls	r1, r1, #31
 80038ec:	d410      	bmi.n	8003910 <HAL_ADC_Init+0x100>
      if (__LL_ADC_IS_ENABLED_ALL_COMMON_INSTANCE(__LL_ADC_COMMON_INSTANCE(hadc->Instance)) == 0UL)
 80038ee:	07ed      	lsls	r5, r5, #31
 80038f0:	d40e      	bmi.n	8003910 <HAL_ADC_Init+0x100>
        LL_ADC_SetCommonClock(__LL_ADC_COMMON_INSTANCE(hadc->Instance), hadc->Init.ClockPrescaler);
 80038f2:	f1b2 4fa0 	cmp.w	r2, #1342177280	@ 0x50000000
 80038f6:	f000 8092 	beq.w	8003a1e <HAL_ADC_Init+0x20e>
 80038fa:	4950      	ldr	r1, [pc, #320]	@ (8003a3c <HAL_ADC_Init+0x22c>)
 80038fc:	4d50      	ldr	r5, [pc, #320]	@ (8003a40 <HAL_ADC_Init+0x230>)
 80038fe:	429a      	cmp	r2, r3
 8003900:	bf08      	it	eq
 8003902:	4629      	moveq	r1, r5
  MODIFY_REG(ADCxy_COMMON->CCR, ADC_CCR_CKMODE | ADC_CCR_PRESC, CommonClock);
 8003904:	688b      	ldr	r3, [r1, #8]
 8003906:	6865      	ldr	r5, [r4, #4]
 8003908:	f423 137c 	bic.w	r3, r3, #4128768	@ 0x3f0000
 800390c:	432b      	orrs	r3, r5
 800390e:	608b      	str	r3, [r1, #8]
                 hadc->Init.DataAlign                                                   |
 8003910:	68e5      	ldr	r5, [r4, #12]
 8003912:	6be3      	ldr	r3, [r4, #60]	@ 0x3c
                 ADC_CFGR_REG_DISCONTINUOUS((uint32_t)hadc->Init.DiscontinuousConvMode));
 8003914:	f894 1024 	ldrb.w	r1, [r4, #36]	@ 0x24
                 hadc->Init.DataAlign                                                   |
 8003918:	432b      	orrs	r3, r5
 800391a:	68a5      	ldr	r5, [r4, #8]
 800391c:	432b      	orrs	r3, r5
    tmp_cfgr  = (ADC_CFGR_CONTINUOUS((uint32_t)hadc->Init.ContinuousConvMode)           |
 800391e:	7f65      	ldrb	r5, [r4, #29]
    if (hadc->Init.DiscontinuousConvMode == ENABLE)
 8003920:	2901      	cmp	r1, #1
                 hadc->Init.DataAlign                                                   |
 8003922:	ea43 3345 	orr.w	r3, r3, r5, lsl #13
    tmp_cfgr  = (ADC_CFGR_CONTINUOUS((uint32_t)hadc->Init.ContinuousConvMode)           |
 8003926:	ea43 4301 	orr.w	r3, r3, r1, lsl #16
    if (hadc->Init.DiscontinuousConvMode == ENABLE)
 800392a:	d04e      	beq.n	80039ca <HAL_ADC_Init+0x1ba>
    if (hadc->Init.ExternalTrigConv != ADC_SOFTWARE_START)
 800392c:	6ae1      	ldr	r1, [r4, #44]	@ 0x2c
 800392e:	b121      	cbz	r1, 800393a <HAL_ADC_Init+0x12a>
                   | hadc->Init.ExternalTrigConvEdge
 8003930:	6b25      	ldr	r5, [r4, #48]	@ 0x30
      tmp_cfgr |= ((hadc->Init.ExternalTrigConv & ADC_CFGR_EXTSEL)
 8003932:	f401 7178 	and.w	r1, r1, #992	@ 0x3e0
                   | hadc->Init.ExternalTrigConvEdge
 8003936:	4329      	orrs	r1, r5
      tmp_cfgr |= ((hadc->Init.ExternalTrigConv & ADC_CFGR_EXTSEL)
 8003938:	430b      	orrs	r3, r1
    MODIFY_REG(hadc->Instance->CFGR, ADC_CFGR_FIELDS_1, tmp_cfgr);
 800393a:	68d5      	ldr	r5, [r2, #12]
 800393c:	4941      	ldr	r1, [pc, #260]	@ (8003a44 <HAL_ADC_Init+0x234>)
 800393e:	4029      	ands	r1, r5
 8003940:	4319      	orrs	r1, r3
 8003942:	60d1      	str	r1, [r2, #12]
    MODIFY_REG(hadc->Instance->CFGR2, ADC_CFGR2_BULB | ADC_CFGR2_SMPTRIG, hadc->Init.SamplingMode);
 8003944:	6913      	ldr	r3, [r2, #16]
 8003946:	6b61      	ldr	r1, [r4, #52]	@ 0x34
 8003948:	f023 6340 	bic.w	r3, r3, #201326592	@ 0xc000000
 800394c:	430b      	orrs	r3, r1
 800394e:	6113      	str	r3, [r2, #16]
  * @param  ADCx ADC instance
  * @retval 0: no conversion is on going on ADC group injected.
  */
__STATIC_INLINE uint32_t LL_ADC_INJ_IsConversionOngoing(const ADC_TypeDef *ADCx)
{
  return ((READ_BIT(ADCx->CR, ADC_CR_JADSTART) == (ADC_CR_JADSTART)) ? 1UL : 0UL);
 8003950:	6893      	ldr	r3, [r2, #8]
 8003952:	071b      	lsls	r3, r3, #28
 8003954:	d424      	bmi.n	80039a0 <HAL_ADC_Init+0x190>
      MODIFY_REG(hadc->Instance->CFGR, ADC_CFGR_FIELDS_2, tmp_cfgr);
 8003956:	68d1      	ldr	r1, [r2, #12]
                   ADC_CFGR_DMACONTREQ((uint32_t)hadc->Init.DMAContinuousRequests));
 8003958:	f894 3038 	ldrb.w	r3, [r4, #56]	@ 0x38
                   ADC_CFGR_AUTOWAIT((uint32_t)hadc->Init.LowPowerAutoWait)        |
 800395c:	7f25      	ldrb	r5, [r4, #28]
      MODIFY_REG(hadc->Instance->CFGR, ADC_CFGR_FIELDS_2, tmp_cfgr);
 800395e:	f421 4180 	bic.w	r1, r1, #16384	@ 0x4000
                   ADC_CFGR_DMACONTREQ((uint32_t)hadc->Init.DMAContinuousRequests));
 8003962:	005b      	lsls	r3, r3, #1
      MODIFY_REG(hadc->Instance->CFGR, ADC_CFGR_FIELDS_2, tmp_cfgr);
 8003964:	f021 0102 	bic.w	r1, r1, #2
      tmp_cfgr = (ADC_CFGR_DFSDM(hadc)                                            |
 8003968:	ea43 3385 	orr.w	r3, r3, r5, lsl #14
      MODIFY_REG(hadc->Instance->CFGR, ADC_CFGR_FIELDS_2, tmp_cfgr);
 800396c:	430b      	orrs	r3, r1
      if (hadc->Init.GainCompensation != 0UL)
 800396e:	6921      	ldr	r1, [r4, #16]
      MODIFY_REG(hadc->Instance->CFGR, ADC_CFGR_FIELDS_2, tmp_cfgr);
 8003970:	60d3      	str	r3, [r2, #12]
        SET_BIT(hadc->Instance->CFGR2, ADC_CFGR2_GCOMP);
 8003972:	6913      	ldr	r3, [r2, #16]
      if (hadc->Init.GainCompensation != 0UL)
 8003974:	2900      	cmp	r1, #0
 8003976:	d035      	beq.n	80039e4 <HAL_ADC_Init+0x1d4>
        SET_BIT(hadc->Instance->CFGR2, ADC_CFGR2_GCOMP);
 8003978:	f443 3380 	orr.w	r3, r3, #65536	@ 0x10000
 800397c:	6113      	str	r3, [r2, #16]
        MODIFY_REG(hadc->Instance->GCOMP, ADC_GCOMP_GCOMPCOEFF, hadc->Init.GainCompensation);
 800397e:	f8d2 30c0 	ldr.w	r3, [r2, #192]	@ 0xc0
 8003982:	f423 537f 	bic.w	r3, r3, #16320	@ 0x3fc0
 8003986:	f023 033f 	bic.w	r3, r3, #63	@ 0x3f
 800398a:	430b      	orrs	r3, r1
 800398c:	f8c2 30c0 	str.w	r3, [r2, #192]	@ 0xc0
      if (hadc->Init.OversamplingMode == ENABLE)
 8003990:	f894 3040 	ldrb.w	r3, [r4, #64]	@ 0x40
 8003994:	2b01      	cmp	r3, #1
 8003996:	d031      	beq.n	80039fc <HAL_ADC_Init+0x1ec>
        CLEAR_BIT(hadc->Instance->CFGR2, ADC_CFGR2_ROVSE);
 8003998:	6913      	ldr	r3, [r2, #16]
 800399a:	f023 0301 	bic.w	r3, r3, #1
 800399e:	6113      	str	r3, [r2, #16]
    if (hadc->Init.ScanConvMode == ADC_SCAN_ENABLE)
 80039a0:	6963      	ldr	r3, [r4, #20]
 80039a2:	2b01      	cmp	r3, #1
 80039a4:	d016      	beq.n	80039d4 <HAL_ADC_Init+0x1c4>
      CLEAR_BIT(hadc->Instance->SQR1, ADC_SQR1_L);
 80039a6:	6b13      	ldr	r3, [r2, #48]	@ 0x30
 80039a8:	f023 030f 	bic.w	r3, r3, #15
 80039ac:	6313      	str	r3, [r2, #48]	@ 0x30
    ADC_STATE_CLR_SET(hadc->State, HAL_ADC_STATE_BUSY_INTERNAL, HAL_ADC_STATE_READY);
 80039ae:	6de3      	ldr	r3, [r4, #92]	@ 0x5c
 80039b0:	f023 0303 	bic.w	r3, r3, #3
 80039b4:	f043 0301 	orr.w	r3, r3, #1
 80039b8:	65e3      	str	r3, [r4, #92]	@ 0x5c
}
 80039ba:	b003      	add	sp, #12
 80039bc:	bd30      	pop	{r4, r5, pc}
    HAL_ADC_MspInit(hadc);
 80039be:	f7ff fd07 	bl	80033d0 <HAL_ADC_MspInit>
    ADC_CLEAR_ERRORCODE(hadc);
 80039c2:	6625      	str	r5, [r4, #96]	@ 0x60
    hadc->Lock = HAL_UNLOCKED;
 80039c4:	f884 5058 	strb.w	r5, [r4, #88]	@ 0x58
 80039c8:	e72d      	b.n	8003826 <HAL_ADC_Init+0x16>
      tmp_cfgr |= ADC_CFGR_DISCONTINUOUS_NUM(hadc->Init.NbrOfDiscConversion);
 80039ca:	6aa1      	ldr	r1, [r4, #40]	@ 0x28
 80039cc:	3901      	subs	r1, #1
 80039ce:	ea43 4341 	orr.w	r3, r3, r1, lsl #17
 80039d2:	e7ab      	b.n	800392c <HAL_ADC_Init+0x11c>
      MODIFY_REG(hadc->Instance->SQR1, ADC_SQR1_L, (hadc->Init.NbrOfConversion - (uint8_t)1));
 80039d4:	6b11      	ldr	r1, [r2, #48]	@ 0x30
 80039d6:	6a23      	ldr	r3, [r4, #32]
 80039d8:	f021 010f 	bic.w	r1, r1, #15
 80039dc:	3b01      	subs	r3, #1
 80039de:	430b      	orrs	r3, r1
 80039e0:	6313      	str	r3, [r2, #48]	@ 0x30
 80039e2:	e7e4      	b.n	80039ae <HAL_ADC_Init+0x19e>
        CLEAR_BIT(hadc->Instance->CFGR2, ADC_CFGR2_GCOMP);
 80039e4:	f423 3380 	bic.w	r3, r3, #65536	@ 0x10000
 80039e8:	6113      	str	r3, [r2, #16]
        MODIFY_REG(hadc->Instance->GCOMP, ADC_GCOMP_GCOMPCOEFF, 0UL);
 80039ea:	f8d2 30c0 	ldr.w	r3, [r2, #192]	@ 0xc0
 80039ee:	f423 537f 	bic.w	r3, r3, #16320	@ 0x3fc0
 80039f2:	f023 033f 	bic.w	r3, r3, #63	@ 0x3f
 80039f6:	f8c2 30c0 	str.w	r3, [r2, #192]	@ 0xc0
 80039fa:	e7c9      	b.n	8003990 <HAL_ADC_Init+0x180>
        MODIFY_REG(hadc->Instance->CFGR2,
 80039fc:	6911      	ldr	r1, [r2, #16]
 80039fe:	6c63      	ldr	r3, [r4, #68]	@ 0x44
 8003a00:	6ca5      	ldr	r5, [r4, #72]	@ 0x48
 8003a02:	f421 61ff 	bic.w	r1, r1, #2040	@ 0x7f8
 8003a06:	f021 0104 	bic.w	r1, r1, #4
 8003a0a:	432b      	orrs	r3, r5
 8003a0c:	430b      	orrs	r3, r1
 8003a0e:	6ce1      	ldr	r1, [r4, #76]	@ 0x4c
 8003a10:	430b      	orrs	r3, r1
 8003a12:	6d21      	ldr	r1, [r4, #80]	@ 0x50
 8003a14:	430b      	orrs	r3, r1
 8003a16:	f043 0301 	orr.w	r3, r3, #1
 8003a1a:	6113      	str	r3, [r2, #16]
 8003a1c:	e7c0      	b.n	80039a0 <HAL_ADC_Init+0x190>
        LL_ADC_SetCommonClock(__LL_ADC_COMMON_INSTANCE(hadc->Instance), hadc->Init.ClockPrescaler);
 8003a1e:	4908      	ldr	r1, [pc, #32]	@ (8003a40 <HAL_ADC_Init+0x230>)
 8003a20:	e770      	b.n	8003904 <HAL_ADC_Init+0xf4>
 8003a22:	bf00      	nop
 8003a24:	20000028 	.word	0x20000028
 8003a28:	053e2d63 	.word	0x053e2d63
 8003a2c:	50000100 	.word	0x50000100
 8003a30:	50000400 	.word	0x50000400
 8003a34:	50000500 	.word	0x50000500
 8003a38:	50000600 	.word	0x50000600
 8003a3c:	50000700 	.word	0x50000700
 8003a40:	50000300 	.word	0x50000300
 8003a44:	fff04007 	.word	0xfff04007

08003a48 <HAL_ADC_ConvCpltCallback>:
/**
  * @brief  Conversion complete callback in non-blocking mode.
  * @param hadc ADC handle
  * @retval None
  */
__weak void HAL_ADC_ConvCpltCallback(ADC_HandleTypeDef *hadc)
 8003a48:	4770      	bx	lr
 8003a4a:	bf00      	nop

08003a4c <HAL_ADC_ConvHalfCpltCallback>:
/**
  * @brief  Conversion DMA half-transfer callback in non-blocking mode.
  * @param hadc ADC handle
  * @retval None
  */
__weak void HAL_ADC_ConvHalfCpltCallback(ADC_HandleTypeDef *hadc)
 8003a4c:	4770      	bx	lr
 8003a4e:	bf00      	nop

08003a50 <ADC_DMAHalfConvCplt>:
  * @brief  DMA half transfer complete callback.
  * @param hdma pointer to DMA handle.
  * @retval None
  */
void ADC_DMAHalfConvCplt(DMA_HandleTypeDef *hdma)
{
 8003a50:	b508      	push	{r3, lr}

  /* Half conversion callback */
#if (USE_HAL_ADC_REGISTER_CALLBACKS == 1)
  hadc->ConvHalfCpltCallback(hadc);
#else
  HAL_ADC_ConvHalfCpltCallback(hadc);
 8003a52:	6a80      	ldr	r0, [r0, #40]	@ 0x28
 8003a54:	f7ff fffa 	bl	8003a4c <HAL_ADC_ConvHalfCpltCallback>
#endif /* USE_HAL_ADC_REGISTER_CALLBACKS */
}
 8003a58:	bd08      	pop	{r3, pc}
 8003a5a:	bf00      	nop

08003a5c <HAL_ADC_ErrorCallback>:
__weak void HAL_ADC_ErrorCallback(ADC_HandleTypeDef *hadc)
 8003a5c:	4770      	bx	lr
 8003a5e:	bf00      	nop

08003a60 <ADC_DMAConvCplt>:
  ADC_HandleTypeDef *hadc = (ADC_HandleTypeDef *)((DMA_HandleTypeDef *)hdma)->Parent;
 8003a60:	6a83      	ldr	r3, [r0, #40]	@ 0x28
  if ((hadc->State & (HAL_ADC_STATE_ERROR_INTERNAL | HAL_ADC_STATE_ERROR_DMA)) == 0UL)
 8003a62:	6dda      	ldr	r2, [r3, #92]	@ 0x5c
 8003a64:	f012 0f50 	tst.w	r2, #80	@ 0x50
{
 8003a68:	b510      	push	{r4, lr}
    SET_BIT(hadc->State, HAL_ADC_STATE_REG_EOC);
 8003a6a:	6dda      	ldr	r2, [r3, #92]	@ 0x5c
  if ((hadc->State & (HAL_ADC_STATE_ERROR_INTERNAL | HAL_ADC_STATE_ERROR_DMA)) == 0UL)
 8003a6c:	d11d      	bne.n	8003aaa <ADC_DMAConvCplt+0x4a>
    if ((hadc->Instance->ISR & ADC_FLAG_EOS) != 0UL)
 8003a6e:	6819      	ldr	r1, [r3, #0]
    SET_BIT(hadc->State, HAL_ADC_STATE_REG_EOC);
 8003a70:	f442 7200 	orr.w	r2, r2, #512	@ 0x200
 8003a74:	65da      	str	r2, [r3, #92]	@ 0x5c
    if ((hadc->Instance->ISR & ADC_FLAG_EOS) != 0UL)
 8003a76:	680a      	ldr	r2, [r1, #0]
 8003a78:	f012 0f08 	tst.w	r2, #8
  return ((READ_BIT(ADCx->CFGR, ADC_CFGR_EXTEN) == (LL_ADC_REG_TRIG_SOFTWARE & ADC_CFGR_EXTEN)) ? 1UL : 0UL);
 8003a7c:	68ca      	ldr	r2, [r1, #12]
 8003a7e:	d01b      	beq.n	8003ab8 <ADC_DMAConvCplt+0x58>
 8003a80:	f412 6f40 	tst.w	r2, #3072	@ 0xc00
 8003a84:	d10d      	bne.n	8003aa2 <ADC_DMAConvCplt+0x42>
        if (READ_BIT(hadc->Instance->CFGR, ADC_CFGR_CONT) == 0UL)
 8003a86:	68ca      	ldr	r2, [r1, #12]
 8003a88:	0494      	lsls	r4, r2, #18
 8003a8a:	d40a      	bmi.n	8003aa2 <ADC_DMAConvCplt+0x42>
        CLEAR_BIT(hadc->State, HAL_ADC_STATE_REG_BUSY);
 8003a8c:	6dda      	ldr	r2, [r3, #92]	@ 0x5c
 8003a8e:	f422 7280 	bic.w	r2, r2, #256	@ 0x100
 8003a92:	65da      	str	r2, [r3, #92]	@ 0x5c
        if ((hadc->State & HAL_ADC_STATE_INJ_BUSY) == 0UL)
 8003a94:	6dda      	ldr	r2, [r3, #92]	@ 0x5c
 8003a96:	04d1      	lsls	r1, r2, #19
 8003a98:	d403      	bmi.n	8003aa2 <ADC_DMAConvCplt+0x42>
          SET_BIT(hadc->State, HAL_ADC_STATE_READY);
 8003a9a:	6dda      	ldr	r2, [r3, #92]	@ 0x5c
 8003a9c:	f042 0201 	orr.w	r2, r2, #1
 8003aa0:	65da      	str	r2, [r3, #92]	@ 0x5c
    HAL_ADC_ConvCpltCallback(hadc);
 8003aa2:	4618      	mov	r0, r3
 8003aa4:	f7ff ffd0 	bl	8003a48 <HAL_ADC_ConvCpltCallback>
}
 8003aa8:	bd10      	pop	{r4, pc}
    if ((hadc->State & HAL_ADC_STATE_ERROR_INTERNAL) != 0UL)
 8003aaa:	06d2      	lsls	r2, r2, #27
 8003aac:	d40a      	bmi.n	8003ac4 <ADC_DMAConvCplt+0x64>
      hadc->DMA_Handle->XferErrorCallback(hdma);
 8003aae:	6d5b      	ldr	r3, [r3, #84]	@ 0x54
}
 8003ab0:	e8bd 4010 	ldmia.w	sp!, {r4, lr}
      hadc->DMA_Handle->XferErrorCallback(hdma);
 8003ab4:	6b5b      	ldr	r3, [r3, #52]	@ 0x34
 8003ab6:	4718      	bx	r3
      if (READ_BIT(hadc->Instance->CFGR, ADC_CFGR_DMACFG) == 0UL)
 8003ab8:	0790      	lsls	r0, r2, #30
 8003aba:	d5e7      	bpl.n	8003a8c <ADC_DMAConvCplt+0x2c>
    HAL_ADC_ConvCpltCallback(hadc);
 8003abc:	4618      	mov	r0, r3
 8003abe:	f7ff ffc3 	bl	8003a48 <HAL_ADC_ConvCpltCallback>
 8003ac2:	e7f1      	b.n	8003aa8 <ADC_DMAConvCplt+0x48>
      HAL_ADC_ErrorCallback(hadc);
 8003ac4:	4618      	mov	r0, r3
 8003ac6:	f7ff ffc9 	bl	8003a5c <HAL_ADC_ErrorCallback>
}
 8003aca:	bd10      	pop	{r4, pc}

08003acc <ADC_DMAError>:
  * @retval None
  */
void ADC_DMAError(DMA_HandleTypeDef *hdma)
{
  /* Retrieve ADC handle corresponding to current DMA handle */
  ADC_HandleTypeDef *hadc = (ADC_HandleTypeDef *)((DMA_HandleTypeDef *)hdma)->Parent;
 8003acc:	6a80      	ldr	r0, [r0, #40]	@ 0x28
{
 8003ace:	b508      	push	{r3, lr}

  /* Set ADC state */
  SET_BIT(hadc->State, HAL_ADC_STATE_ERROR_DMA);
 8003ad0:	6dc3      	ldr	r3, [r0, #92]	@ 0x5c
 8003ad2:	f043 0340 	orr.w	r3, r3, #64	@ 0x40
 8003ad6:	65c3      	str	r3, [r0, #92]	@ 0x5c

  /* Set ADC error code to DMA error */
  SET_BIT(hadc->ErrorCode, HAL_ADC_ERROR_DMA);
 8003ad8:	6e03      	ldr	r3, [r0, #96]	@ 0x60
 8003ada:	f043 0304 	orr.w	r3, r3, #4
 8003ade:	6603      	str	r3, [r0, #96]	@ 0x60

  /* Error callback */
#if (USE_HAL_ADC_REGISTER_CALLBACKS == 1)
  hadc->ErrorCallback(hadc);
#else
  HAL_ADC_ErrorCallback(hadc);
 8003ae0:	f7ff ffbc 	bl	8003a5c <HAL_ADC_ErrorCallback>
#endif /* USE_HAL_ADC_REGISTER_CALLBACKS */
}
 8003ae4:	bd08      	pop	{r3, pc}
 8003ae6:	bf00      	nop

08003ae8 <HAL_ADC_ConfigChannel>:
{
 8003ae8:	e92d 41f0 	stmdb	sp!, {r4, r5, r6, r7, r8, lr}
  __HAL_LOCK(hadc);
 8003aec:	f890 2058 	ldrb.w	r2, [r0, #88]	@ 0x58
{
 8003af0:	b082      	sub	sp, #8
 8003af2:	4603      	mov	r3, r0
  __HAL_LOCK(hadc);
 8003af4:	2a01      	cmp	r2, #1
  __IO uint32_t wait_loop_index = 0UL;
 8003af6:	f04f 0000 	mov.w	r0, #0
 8003afa:	9001      	str	r0, [sp, #4]
  __HAL_LOCK(hadc);
 8003afc:	f000 811e 	beq.w	8003d3c <HAL_ADC_ConfigChannel+0x254>
  if (LL_ADC_REG_IsConversionOngoing(hadc->Instance) == 0UL)
 8003b00:	681a      	ldr	r2, [r3, #0]
  __HAL_LOCK(hadc);
 8003b02:	2001      	movs	r0, #1
 8003b04:	f883 0058 	strb.w	r0, [r3, #88]	@ 0x58
  return ((READ_BIT(ADCx->CR, ADC_CR_ADSTART) == (ADC_CR_ADSTART)) ? 1UL : 0UL);
 8003b08:	6894      	ldr	r4, [r2, #8]
 8003b0a:	0764      	lsls	r4, r4, #29
 8003b0c:	d467      	bmi.n	8003bde <HAL_ADC_ConfigChannel+0xf6>
    LL_ADC_REG_SetSequencerRanks(hadc->Instance, pConfig->Rank, pConfig->Channel);
 8003b0e:	6848      	ldr	r0, [r1, #4]
  __IO uint32_t *preg = __ADC_PTR_REG_OFFSET(ADCx->SQR1,
 8003b10:	ea4f 1e90 	mov.w	lr, r0, lsr #6
  MODIFY_REG(*preg,
 8003b14:	f000 0c1f 	and.w	ip, r0, #31
  __IO uint32_t *preg = __ADC_PTR_REG_OFFSET(ADCx->SQR1,
 8003b18:	f00e 0e0c 	and.w	lr, lr, #12
  MODIFY_REG(*preg,
 8003b1c:	6808      	ldr	r0, [r1, #0]
  __IO uint32_t *preg = __ADC_PTR_REG_OFFSET(ADCx->SQR1,
 8003b1e:	f102 0430 	add.w	r4, r2, #48	@ 0x30
  MODIFY_REG(*preg,
 8003b22:	f3c0 6084 	ubfx	r0, r0, #26, #5
 8003b26:	f854 500e 	ldr.w	r5, [r4, lr]
 8003b2a:	261f      	movs	r6, #31
 8003b2c:	fa00 f00c 	lsl.w	r0, r0, ip
 8003b30:	fa06 fc0c 	lsl.w	ip, r6, ip
 8003b34:	ea25 0c0c 	bic.w	ip, r5, ip
 8003b38:	ea40 000c 	orr.w	r0, r0, ip
 8003b3c:	f844 000e 	str.w	r0, [r4, lr]
  return ((READ_BIT(ADCx->CR, ADC_CR_ADSTART) == (ADC_CR_ADSTART)) ? 1UL : 0UL);
 8003b40:	6890      	ldr	r0, [r2, #8]
 8003b42:	0747      	lsls	r7, r0, #29
 8003b44:	d555      	bpl.n	8003bf2 <HAL_ADC_ConfigChannel+0x10a>
  return ((READ_BIT(ADCx->CR, ADC_CR_JADSTART) == (ADC_CR_JADSTART)) ? 1UL : 0UL);
 8003b46:	6890      	ldr	r0, [r2, #8]
        LL_ADC_SetChannelSamplingTime(hadc->Instance, pConfig->Channel, LL_ADC_SAMPLINGTIME_2CYCLES_5);
 8003b48:	6808      	ldr	r0, [r1, #0]
  return ((READ_BIT(ADCx->CR, ADC_CR_ADEN) == (ADC_CR_ADEN)) ? 1UL : 0UL);
 8003b4a:	6894      	ldr	r4, [r2, #8]
 8003b4c:	07e5      	lsls	r5, r4, #31
 8003b4e:	d412      	bmi.n	8003b76 <HAL_ADC_ConfigChannel+0x8e>
      LL_ADC_SetChannelSingleDiff(hadc->Instance, pConfig->Channel, pConfig->SingleDiff);
 8003b50:	68ce      	ldr	r6, [r1, #12]
  MODIFY_REG(ADCx->DIFSEL,
 8003b52:	4cba      	ldr	r4, [pc, #744]	@ (8003e3c <HAL_ADC_ConfigChannel+0x354>)
 8003b54:	f8d2 50b0 	ldr.w	r5, [r2, #176]	@ 0xb0
 8003b58:	f006 0718 	and.w	r7, r6, #24
 8003b5c:	40fc      	lsrs	r4, r7
 8003b5e:	f3c0 0712 	ubfx	r7, r0, #0, #19
 8003b62:	4004      	ands	r4, r0
 8003b64:	ea25 0507 	bic.w	r5, r5, r7
 8003b68:	432c      	orrs	r4, r5
 8003b6a:	f8c2 40b0 	str.w	r4, [r2, #176]	@ 0xb0
      if (pConfig->SingleDiff == ADC_DIFFERENTIAL_ENDED)
 8003b6e:	4cb4      	ldr	r4, [pc, #720]	@ (8003e40 <HAL_ADC_ConfigChannel+0x358>)
 8003b70:	42a6      	cmp	r6, r4
 8003b72:	f000 8090 	beq.w	8003c96 <HAL_ADC_ConfigChannel+0x1ae>
    if (__LL_ADC_IS_CHANNEL_INTERNAL(pConfig->Channel))
 8003b76:	49b3      	ldr	r1, [pc, #716]	@ (8003e44 <HAL_ADC_ConfigChannel+0x35c>)
 8003b78:	4208      	tst	r0, r1
 8003b7a:	d02e      	beq.n	8003bda <HAL_ADC_ConfigChannel+0xf2>
      tmp_config_internal_channel = LL_ADC_GetCommonPathInternalCh(__LL_ADC_COMMON_INSTANCE(hadc->Instance));
 8003b7c:	f1b2 4fa0 	cmp.w	r2, #1342177280	@ 0x50000000
 8003b80:	f000 80da 	beq.w	8003d38 <HAL_ADC_ConfigChannel+0x250>
 8003b84:	4db0      	ldr	r5, [pc, #704]	@ (8003e48 <HAL_ADC_ConfigChannel+0x360>)
 8003b86:	49b1      	ldr	r1, [pc, #708]	@ (8003e4c <HAL_ADC_ConfigChannel+0x364>)
 8003b88:	4cb1      	ldr	r4, [pc, #708]	@ (8003e50 <HAL_ADC_ConfigChannel+0x368>)
 8003b8a:	42aa      	cmp	r2, r5
 8003b8c:	bf08      	it	eq
 8003b8e:	4621      	moveq	r1, r4
      if (((pConfig->Channel == ADC_CHANNEL_TEMPSENSOR_ADC1) || (pConfig->Channel == ADC_CHANNEL_TEMPSENSOR_ADC5))
 8003b90:	4cb0      	ldr	r4, [pc, #704]	@ (8003e54 <HAL_ADC_ConfigChannel+0x36c>)
  return (uint32_t)(READ_BIT(ADCxy_COMMON->CCR, ADC_CCR_VREFEN | ADC_CCR_VSENSESEL | ADC_CCR_VBATSEL));
 8003b92:	6889      	ldr	r1, [r1, #8]
 8003b94:	42a0      	cmp	r0, r4
 8003b96:	f001 75e0 	and.w	r5, r1, #29360128	@ 0x1c00000
 8003b9a:	f000 80d3 	beq.w	8003d44 <HAL_ADC_ConfigChannel+0x25c>
 8003b9e:	4cae      	ldr	r4, [pc, #696]	@ (8003e58 <HAL_ADC_ConfigChannel+0x370>)
 8003ba0:	42a0      	cmp	r0, r4
 8003ba2:	f000 80cf 	beq.w	8003d44 <HAL_ADC_ConfigChannel+0x25c>
      else if ((pConfig->Channel == ADC_CHANNEL_VBAT)
 8003ba6:	4cad      	ldr	r4, [pc, #692]	@ (8003e5c <HAL_ADC_ConfigChannel+0x374>)
 8003ba8:	42a0      	cmp	r0, r4
 8003baa:	f000 80f4 	beq.w	8003d96 <HAL_ADC_ConfigChannel+0x2ae>
      else if ((pConfig->Channel == ADC_CHANNEL_VREFINT)
 8003bae:	4cac      	ldr	r4, [pc, #688]	@ (8003e60 <HAL_ADC_ConfigChannel+0x378>)
 8003bb0:	42a0      	cmp	r0, r4
 8003bb2:	d112      	bne.n	8003bda <HAL_ADC_ConfigChannel+0xf2>
               && ((tmp_config_internal_channel & LL_ADC_PATH_INTERNAL_VREFINT) == 0UL))
 8003bb4:	0249      	lsls	r1, r1, #9
 8003bb6:	d410      	bmi.n	8003bda <HAL_ADC_ConfigChannel+0xf2>
        if (ADC_VREFINT_INSTANCE(hadc))
 8003bb8:	49a3      	ldr	r1, [pc, #652]	@ (8003e48 <HAL_ADC_ConfigChannel+0x360>)
 8003bba:	428a      	cmp	r2, r1
 8003bbc:	d00d      	beq.n	8003bda <HAL_ADC_ConfigChannel+0xf2>
          LL_ADC_SetCommonPathInternalCh(__LL_ADC_COMMON_INSTANCE(hadc->Instance),
 8003bbe:	48a4      	ldr	r0, [pc, #656]	@ (8003e50 <HAL_ADC_ConfigChannel+0x368>)
 8003bc0:	f501 61c0 	add.w	r1, r1, #1536	@ 0x600
 8003bc4:	f1b2 4fa0 	cmp.w	r2, #1342177280	@ 0x50000000
 8003bc8:	bf08      	it	eq
 8003bca:	4601      	moveq	r1, r0
  MODIFY_REG(ADCxy_COMMON->CCR, ADC_CCR_VREFEN | ADC_CCR_VSENSESEL | ADC_CCR_VBATSEL, PathInternal);
 8003bcc:	688a      	ldr	r2, [r1, #8]
 8003bce:	f022 72e0 	bic.w	r2, r2, #29360128	@ 0x1c00000
 8003bd2:	432a      	orrs	r2, r5
 8003bd4:	f442 0280 	orr.w	r2, r2, #4194304	@ 0x400000
 8003bd8:	608a      	str	r2, [r1, #8]
  HAL_StatusTypeDef tmp_hal_status = HAL_OK;
 8003bda:	2000      	movs	r0, #0
 8003bdc:	e003      	b.n	8003be6 <HAL_ADC_ConfigChannel+0xfe>
    SET_BIT(hadc->State, HAL_ADC_STATE_ERROR_CONFIG);
 8003bde:	6dda      	ldr	r2, [r3, #92]	@ 0x5c
 8003be0:	f042 0220 	orr.w	r2, r2, #32
 8003be4:	65da      	str	r2, [r3, #92]	@ 0x5c
  __HAL_UNLOCK(hadc);
 8003be6:	2200      	movs	r2, #0
 8003be8:	f883 2058 	strb.w	r2, [r3, #88]	@ 0x58
}
 8003bec:	b002      	add	sp, #8
 8003bee:	e8bd 81f0 	ldmia.w	sp!, {r4, r5, r6, r7, r8, pc}
  return ((READ_BIT(ADCx->CR, ADC_CR_JADSTART) == (ADC_CR_JADSTART)) ? 1UL : 0UL);
 8003bf2:	6894      	ldr	r4, [r2, #8]
        LL_ADC_SetChannelSamplingTime(hadc->Instance, pConfig->Channel, LL_ADC_SAMPLINGTIME_2CYCLES_5);
 8003bf4:	6808      	ldr	r0, [r1, #0]
 8003bf6:	0726      	lsls	r6, r4, #28
 8003bf8:	d4a7      	bmi.n	8003b4a <HAL_ADC_ConfigChannel+0x62>
      if (pConfig->SamplingTime == ADC_SAMPLETIME_3CYCLES_5)
 8003bfa:	688d      	ldr	r5, [r1, #8]
  MODIFY_REG(*preg,
 8003bfc:	f3c0 5604 	ubfx	r6, r0, #20, #5
 8003c00:	2407      	movs	r4, #7
  __IO uint32_t *preg = __ADC_PTR_REG_OFFSET(ADCx->SMPR1,
 8003c02:	0dc0      	lsrs	r0, r0, #23
  MODIFY_REG(*preg,
 8003c04:	40b4      	lsls	r4, r6
 8003c06:	f1b5 4f00 	cmp.w	r5, #2147483648	@ 0x80000000
  __IO uint32_t *preg = __ADC_PTR_REG_OFFSET(ADCx->SMPR1,
 8003c0a:	f000 0004 	and.w	r0, r0, #4
  MODIFY_REG(*preg,
 8003c0e:	ea6f 0404 	mvn.w	r4, r4
  __IO uint32_t *preg = __ADC_PTR_REG_OFFSET(ADCx->SMPR1,
 8003c12:	f102 0714 	add.w	r7, r2, #20
 8003c16:	f000 812d 	beq.w	8003e74 <HAL_ADC_ConfigChannel+0x38c>
  MODIFY_REG(*preg,
 8003c1a:	40b5      	lsls	r5, r6
 8003c1c:	583e      	ldr	r6, [r7, r0]
 8003c1e:	4034      	ands	r4, r6
 8003c20:	432c      	orrs	r4, r5
 8003c22:	503c      	str	r4, [r7, r0]
  MODIFY_REG(ADCx->SMPR1, ADC_SMPR1_SMPPLUS, SamplingTimeCommonConfig);
 8003c24:	6950      	ldr	r0, [r2, #20]
 8003c26:	f020 4000 	bic.w	r0, r0, #2147483648	@ 0x80000000
 8003c2a:	6150      	str	r0, [r2, #20]
      tmpOffsetShifted = ADC_OFFSET_SHIFT_RESOLUTION(hadc, (uint32_t)pConfig->Offset);
 8003c2c:	e9d1 7504 	ldrd	r7, r5, [r1, #16]
        LL_ADC_SetOffset(hadc->Instance, pConfig->OffsetNumber, pConfig->Channel, tmpOffsetShifted);
 8003c30:	6808      	ldr	r0, [r1, #0]
      tmpOffsetShifted = ADC_OFFSET_SHIFT_RESOLUTION(hadc, (uint32_t)pConfig->Offset);
 8003c32:	68d6      	ldr	r6, [r2, #12]
      if (pConfig->OffsetNumber != ADC_OFFSET_NONE)
 8003c34:	2f04      	cmp	r7, #4
  __IO uint32_t *preg = __ADC_PTR_REG_OFFSET(ADCx->OFR1, Offsety);
 8003c36:	f102 0460 	add.w	r4, r2, #96	@ 0x60
        LL_ADC_SetOffset(hadc->Instance, pConfig->OffsetNumber, pConfig->Channel, tmpOffsetShifted);
 8003c3a:	4684      	mov	ip, r0
      if (pConfig->OffsetNumber != ADC_OFFSET_NONE)
 8003c3c:	f000 80d6 	beq.w	8003dec <HAL_ADC_ConfigChannel+0x304>
      tmpOffsetShifted = ADC_OFFSET_SHIFT_RESOLUTION(hadc, (uint32_t)pConfig->Offset);
 8003c40:	f3c6 06c1 	ubfx	r6, r6, #3, #2
 8003c44:	0076      	lsls	r6, r6, #1
  MODIFY_REG(*preg,
 8003c46:	f854 c027 	ldr.w	ip, [r4, r7, lsl #2]
 8003c4a:	40b5      	lsls	r5, r6
 8003c4c:	4e85      	ldr	r6, [pc, #532]	@ (8003e64 <HAL_ADC_ConfigChannel+0x37c>)
 8003c4e:	f000 40f8 	and.w	r0, r0, #2080374784	@ 0x7c000000
 8003c52:	ea0c 0606 	and.w	r6, ip, r6
 8003c56:	4306      	orrs	r6, r0
 8003c58:	4335      	orrs	r5, r6
 8003c5a:	f045 4500 	orr.w	r5, r5, #2147483648	@ 0x80000000
 8003c5e:	f844 5027 	str.w	r5, [r4, r7, lsl #2]
  __IO uint32_t *preg = __ADC_PTR_REG_OFFSET(ADCx->OFR1, Offsety);
 8003c62:	690d      	ldr	r5, [r1, #16]
  MODIFY_REG(*preg,
 8003c64:	698e      	ldr	r6, [r1, #24]
 8003c66:	f854 0025 	ldr.w	r0, [r4, r5, lsl #2]
 8003c6a:	f020 7080 	bic.w	r0, r0, #16777216	@ 0x1000000
 8003c6e:	4330      	orrs	r0, r6
 8003c70:	f844 0025 	str.w	r0, [r4, r5, lsl #2]
  __IO uint32_t *preg = __ADC_PTR_REG_OFFSET(ADCx->OFR1, Offsety);
 8003c74:	690e      	ldr	r6, [r1, #16]
        LL_ADC_SetOffsetSaturation(hadc->Instance, pConfig->OffsetNumber,
 8003c76:	7f0d      	ldrb	r5, [r1, #28]
  MODIFY_REG(*preg,
 8003c78:	f854 0026 	ldr.w	r0, [r4, r6, lsl #2]
 8003c7c:	f1a5 0501 	sub.w	r5, r5, #1
 8003c80:	fab5 f585 	clz	r5, r5
 8003c84:	096d      	lsrs	r5, r5, #5
 8003c86:	f020 7000 	bic.w	r0, r0, #33554432	@ 0x2000000
 8003c8a:	ea40 6045 	orr.w	r0, r0, r5, lsl #25
 8003c8e:	f844 0026 	str.w	r0, [r4, r6, lsl #2]
      LL_ADC_SetChannelSingleDiff(hadc->Instance, pConfig->Channel, pConfig->SingleDiff);
 8003c92:	6808      	ldr	r0, [r1, #0]
}
 8003c94:	e759      	b.n	8003b4a <HAL_ADC_ConfigChannel+0x62>
                                      (uint32_t)(__LL_ADC_DECIMAL_NB_TO_CHANNEL(
 8003c96:	2f00      	cmp	r7, #0
 8003c98:	f000 8092 	beq.w	8003dc0 <HAL_ADC_ConfigChannel+0x2d8>
   __ASM volatile ("rbit %0, %1" : "=r" (result) : "r" (value) );
 8003c9c:	fa90 f4a0 	rbit	r4, r0
  if (value == 0U)
 8003ca0:	2c00      	cmp	r4, #0
 8003ca2:	f000 80ef 	beq.w	8003e84 <HAL_ADC_ConfigChannel+0x39c>
  return __builtin_clz(value);
 8003ca6:	fab4 f484 	clz	r4, r4
        LL_ADC_SetChannelSamplingTime(hadc->Instance,
 8003caa:	3401      	adds	r4, #1
 8003cac:	f004 041f 	and.w	r4, r4, #31
 8003cb0:	2c09      	cmp	r4, #9
 8003cb2:	f240 80e7 	bls.w	8003e84 <HAL_ADC_ConfigChannel+0x39c>
   __ASM volatile ("rbit %0, %1" : "=r" (result) : "r" (value) );
 8003cb6:	fa90 f4a0 	rbit	r4, r0
  if (value == 0U)
 8003cba:	2c00      	cmp	r4, #0
 8003cbc:	f000 8186 	beq.w	8003fcc <HAL_ADC_ConfigChannel+0x4e4>
  return __builtin_clz(value);
 8003cc0:	fab4 f484 	clz	r4, r4
                                      (uint32_t)(__LL_ADC_DECIMAL_NB_TO_CHANNEL(
 8003cc4:	3401      	adds	r4, #1
 8003cc6:	06a4      	lsls	r4, r4, #26
 8003cc8:	f004 44f8 	and.w	r4, r4, #2080374784	@ 0x7c000000
   __ASM volatile ("rbit %0, %1" : "=r" (result) : "r" (value) );
 8003ccc:	fa90 f5a0 	rbit	r5, r0
  if (value == 0U)
 8003cd0:	2d00      	cmp	r5, #0
 8003cd2:	f000 8180 	beq.w	8003fd6 <HAL_ADC_ConfigChannel+0x4ee>
  return __builtin_clz(value);
 8003cd6:	fab5 f585 	clz	r5, r5
 8003cda:	3501      	adds	r5, #1
 8003cdc:	f005 051f 	and.w	r5, r5, #31
 8003ce0:	2601      	movs	r6, #1
 8003ce2:	fa06 f505 	lsl.w	r5, r6, r5
 8003ce6:	432c      	orrs	r4, r5
   __ASM volatile ("rbit %0, %1" : "=r" (result) : "r" (value) );
 8003ce8:	fa90 f0a0 	rbit	r0, r0
  if (value == 0U)
 8003cec:	2800      	cmp	r0, #0
 8003cee:	f000 8170 	beq.w	8003fd2 <HAL_ADC_ConfigChannel+0x4ea>
  return __builtin_clz(value);
 8003cf2:	fab0 f080 	clz	r0, r0
 8003cf6:	1c45      	adds	r5, r0, #1
 8003cf8:	f005 051f 	and.w	r5, r5, #31
 8003cfc:	2003      	movs	r0, #3
 8003cfe:	f06f 061d 	mvn.w	r6, #29
 8003d02:	fb10 6005 	smlabb	r0, r0, r5, r6
 8003d06:	0500      	lsls	r0, r0, #20
 8003d08:	f040 7000 	orr.w	r0, r0, #33554432	@ 0x2000000
        LL_ADC_SetChannelSamplingTime(hadc->Instance,
 8003d0c:	4320      	orrs	r0, r4
  __IO uint32_t *preg = __ADC_PTR_REG_OFFSET(ADCx->SMPR1,
 8003d0e:	0dc5      	lsrs	r5, r0, #23
  MODIFY_REG(*preg,
 8003d10:	688c      	ldr	r4, [r1, #8]
  __IO uint32_t *preg = __ADC_PTR_REG_OFFSET(ADCx->SMPR1,
 8003d12:	f005 0504 	and.w	r5, r5, #4
 8003d16:	f102 0614 	add.w	r6, r2, #20
  MODIFY_REG(*preg,
 8003d1a:	f3c0 5004 	ubfx	r0, r0, #20, #5
 8003d1e:	fa04 f700 	lsl.w	r7, r4, r0
 8003d22:	f04f 0c07 	mov.w	ip, #7
 8003d26:	5974      	ldr	r4, [r6, r5]
 8003d28:	fa0c f000 	lsl.w	r0, ip, r0
 8003d2c:	ea24 0000 	bic.w	r0, r4, r0
 8003d30:	4338      	orrs	r0, r7
 8003d32:	5170      	str	r0, [r6, r5]
    if (__LL_ADC_IS_CHANNEL_INTERNAL(pConfig->Channel))
 8003d34:	6808      	ldr	r0, [r1, #0]
}
 8003d36:	e71e      	b.n	8003b76 <HAL_ADC_ConfigChannel+0x8e>
      tmp_config_internal_channel = LL_ADC_GetCommonPathInternalCh(__LL_ADC_COMMON_INSTANCE(hadc->Instance));
 8003d38:	4945      	ldr	r1, [pc, #276]	@ (8003e50 <HAL_ADC_ConfigChannel+0x368>)
 8003d3a:	e729      	b.n	8003b90 <HAL_ADC_ConfigChannel+0xa8>
  __HAL_LOCK(hadc);
 8003d3c:	2002      	movs	r0, #2
}
 8003d3e:	b002      	add	sp, #8
 8003d40:	e8bd 81f0 	ldmia.w	sp!, {r4, r5, r6, r7, r8, pc}
          && ((tmp_config_internal_channel & LL_ADC_PATH_INTERNAL_TEMPSENSOR) == 0UL))
 8003d44:	020c      	lsls	r4, r1, #8
 8003d46:	f53f af48 	bmi.w	8003bda <HAL_ADC_ConfigChannel+0xf2>
        if (ADC_TEMPERATURE_SENSOR_INSTANCE(hadc))
 8003d4a:	f1b2 4fa0 	cmp.w	r2, #1342177280	@ 0x50000000
 8003d4e:	d04b      	beq.n	8003de8 <HAL_ADC_ConfigChannel+0x300>
 8003d50:	4945      	ldr	r1, [pc, #276]	@ (8003e68 <HAL_ADC_ConfigChannel+0x380>)
 8003d52:	428a      	cmp	r2, r1
 8003d54:	f47f af41 	bne.w	8003bda <HAL_ADC_ConfigChannel+0xf2>
          LL_ADC_SetCommonPathInternalCh(__LL_ADC_COMMON_INSTANCE(hadc->Instance),
 8003d58:	483c      	ldr	r0, [pc, #240]	@ (8003e4c <HAL_ADC_ConfigChannel+0x364>)
          wait_loop_index = ((LL_ADC_DELAY_TEMPSENSOR_STAB_US / 10UL) * ((SystemCoreClock / (100000UL * 2UL)) + 1UL));
 8003d5a:	4a44      	ldr	r2, [pc, #272]	@ (8003e6c <HAL_ADC_ConfigChannel+0x384>)
 8003d5c:	4c44      	ldr	r4, [pc, #272]	@ (8003e70 <HAL_ADC_ConfigChannel+0x388>)
 8003d5e:	6812      	ldr	r2, [r2, #0]
  MODIFY_REG(ADCxy_COMMON->CCR, ADC_CCR_VREFEN | ADC_CCR_VSENSESEL | ADC_CCR_VBATSEL, PathInternal);
 8003d60:	6881      	ldr	r1, [r0, #8]
 8003d62:	0992      	lsrs	r2, r2, #6
 8003d64:	fba4 4202 	umull	r4, r2, r4, r2
 8003d68:	0992      	lsrs	r2, r2, #6
 8003d6a:	f021 71e0 	bic.w	r1, r1, #29360128	@ 0x1c00000
 8003d6e:	3201      	adds	r2, #1
 8003d70:	4329      	orrs	r1, r5
 8003d72:	eb02 0242 	add.w	r2, r2, r2, lsl #1
 8003d76:	0092      	lsls	r2, r2, #2
 8003d78:	f441 0100 	orr.w	r1, r1, #8388608	@ 0x800000
 8003d7c:	6081      	str	r1, [r0, #8]
 8003d7e:	9201      	str	r2, [sp, #4]
          while (wait_loop_index != 0UL)
 8003d80:	9a01      	ldr	r2, [sp, #4]
 8003d82:	2a00      	cmp	r2, #0
 8003d84:	f43f af29 	beq.w	8003bda <HAL_ADC_ConfigChannel+0xf2>
            wait_loop_index--;
 8003d88:	9a01      	ldr	r2, [sp, #4]
 8003d8a:	3a01      	subs	r2, #1
 8003d8c:	9201      	str	r2, [sp, #4]
          while (wait_loop_index != 0UL)
 8003d8e:	9a01      	ldr	r2, [sp, #4]
 8003d90:	2a00      	cmp	r2, #0
 8003d92:	d1f9      	bne.n	8003d88 <HAL_ADC_ConfigChannel+0x2a0>
 8003d94:	e721      	b.n	8003bda <HAL_ADC_ConfigChannel+0xf2>
               && ((tmp_config_internal_channel & LL_ADC_PATH_INTERNAL_VBAT) == 0UL))
 8003d96:	01c8      	lsls	r0, r1, #7
 8003d98:	f53f af1f 	bmi.w	8003bda <HAL_ADC_ConfigChannel+0xf2>
          LL_ADC_SetCommonPathInternalCh(__LL_ADC_COMMON_INSTANCE(hadc->Instance),
 8003d9c:	f1b2 4fa0 	cmp.w	r2, #1342177280	@ 0x50000000
 8003da0:	f000 810a 	beq.w	8003fb8 <HAL_ADC_ConfigChannel+0x4d0>
 8003da4:	4c28      	ldr	r4, [pc, #160]	@ (8003e48 <HAL_ADC_ConfigChannel+0x360>)
 8003da6:	4929      	ldr	r1, [pc, #164]	@ (8003e4c <HAL_ADC_ConfigChannel+0x364>)
 8003da8:	4829      	ldr	r0, [pc, #164]	@ (8003e50 <HAL_ADC_ConfigChannel+0x368>)
 8003daa:	42a2      	cmp	r2, r4
 8003dac:	bf08      	it	eq
 8003dae:	4601      	moveq	r1, r0
 8003db0:	688a      	ldr	r2, [r1, #8]
 8003db2:	f022 72e0 	bic.w	r2, r2, #29360128	@ 0x1c00000
 8003db6:	432a      	orrs	r2, r5
 8003db8:	f042 7280 	orr.w	r2, r2, #16777216	@ 0x1000000
 8003dbc:	608a      	str	r2, [r1, #8]
}
 8003dbe:	e70c      	b.n	8003bda <HAL_ADC_ConfigChannel+0xf2>
                                      (uint32_t)(__LL_ADC_DECIMAL_NB_TO_CHANNEL(
 8003dc0:	0e80      	lsrs	r0, r0, #26
 8003dc2:	3001      	adds	r0, #1
 8003dc4:	f000 051f 	and.w	r5, r0, #31
 8003dc8:	2401      	movs	r4, #1
 8003dca:	0680      	lsls	r0, r0, #26
 8003dcc:	f000 40f8 	and.w	r0, r0, #2080374784	@ 0x7c000000
 8003dd0:	40ac      	lsls	r4, r5
        LL_ADC_SetChannelSamplingTime(hadc->Instance,
 8003dd2:	2d09      	cmp	r5, #9
                                      (uint32_t)(__LL_ADC_DECIMAL_NB_TO_CHANNEL(
 8003dd4:	ea44 0400 	orr.w	r4, r4, r0
 8003dd8:	eb05 0045 	add.w	r0, r5, r5, lsl #1
        LL_ADC_SetChannelSamplingTime(hadc->Instance,
 8003ddc:	d977      	bls.n	8003ece <HAL_ADC_ConfigChannel+0x3e6>
                                      (uint32_t)(__LL_ADC_DECIMAL_NB_TO_CHANNEL(
 8003dde:	381e      	subs	r0, #30
 8003de0:	0500      	lsls	r0, r0, #20
 8003de2:	f040 7000 	orr.w	r0, r0, #33554432	@ 0x2000000
 8003de6:	e791      	b.n	8003d0c <HAL_ADC_ConfigChannel+0x224>
          LL_ADC_SetCommonPathInternalCh(__LL_ADC_COMMON_INSTANCE(hadc->Instance),
 8003de8:	4819      	ldr	r0, [pc, #100]	@ (8003e50 <HAL_ADC_ConfigChannel+0x368>)
 8003dea:	e7b6      	b.n	8003d5a <HAL_ADC_ConfigChannel+0x272>
  return (uint32_t) READ_BIT(*preg, ADC_OFR1_OFFSET1_CH);
 8003dec:	6e15      	ldr	r5, [r2, #96]	@ 0x60
 8003dee:	6e15      	ldr	r5, [r2, #96]	@ 0x60
            == __LL_ADC_CHANNEL_TO_DECIMAL_NB(pConfig->Channel))
 8003df0:	f3c0 0612 	ubfx	r6, r0, #0, #19
        if (__LL_ADC_CHANNEL_TO_DECIMAL_NB(LL_ADC_GetOffsetChannel(hadc->Instance, LL_ADC_OFFSET_1))
 8003df4:	f3c5 6584 	ubfx	r5, r5, #26, #5
            == __LL_ADC_CHANNEL_TO_DECIMAL_NB(pConfig->Channel))
 8003df8:	2e00      	cmp	r6, #0
 8003dfa:	d16a      	bne.n	8003ed2 <HAL_ADC_ConfigChannel+0x3ea>
 8003dfc:	f3c0 6084 	ubfx	r0, r0, #26, #5
        if (__LL_ADC_CHANNEL_TO_DECIMAL_NB(LL_ADC_GetOffsetChannel(hadc->Instance, LL_ADC_OFFSET_1))
 8003e00:	4285      	cmp	r5, r0
 8003e02:	f000 8097 	beq.w	8003f34 <HAL_ADC_ConfigChannel+0x44c>
 8003e06:	6e55      	ldr	r5, [r2, #100]	@ 0x64
 8003e08:	6e55      	ldr	r5, [r2, #100]	@ 0x64
        if (__LL_ADC_CHANNEL_TO_DECIMAL_NB(LL_ADC_GetOffsetChannel(hadc->Instance, LL_ADC_OFFSET_2))
 8003e0a:	f3c5 6584 	ubfx	r5, r5, #26, #5
 8003e0e:	4285      	cmp	r5, r0
 8003e10:	f000 80a2 	beq.w	8003f58 <HAL_ADC_ConfigChannel+0x470>
 8003e14:	68a5      	ldr	r5, [r4, #8]
 8003e16:	68a5      	ldr	r5, [r4, #8]
  const __IO uint32_t *preg = __ADC_PTR_REG_OFFSET(ADCx->OFR1, Offsety);
 8003e18:	f104 0708 	add.w	r7, r4, #8
        if (__LL_ADC_CHANNEL_TO_DECIMAL_NB(LL_ADC_GetOffsetChannel(hadc->Instance, LL_ADC_OFFSET_3))
 8003e1c:	f3c5 6584 	ubfx	r5, r5, #26, #5
 8003e20:	4285      	cmp	r5, r0
 8003e22:	f000 80ae 	beq.w	8003f82 <HAL_ADC_ConfigChannel+0x49a>
  return (uint32_t) READ_BIT(*preg, ADC_OFR1_OFFSET1_CH);
 8003e26:	68e5      	ldr	r5, [r4, #12]
 8003e28:	68e5      	ldr	r5, [r4, #12]
  const __IO uint32_t *preg = __ADC_PTR_REG_OFFSET(ADCx->OFR1, Offsety);
 8003e2a:	f104 060c 	add.w	r6, r4, #12
        if (__LL_ADC_CHANNEL_TO_DECIMAL_NB(LL_ADC_GetOffsetChannel(hadc->Instance, LL_ADC_OFFSET_4))
 8003e2e:	f3c5 6484 	ubfx	r4, r5, #26, #5
 8003e32:	42a0      	cmp	r0, r4
 8003e34:	f000 80ba 	beq.w	8003fac <HAL_ADC_ConfigChannel+0x4c4>
      LL_ADC_SetChannelSingleDiff(hadc->Instance, pConfig->Channel, pConfig->SingleDiff);
 8003e38:	4660      	mov	r0, ip
 8003e3a:	e686      	b.n	8003b4a <HAL_ADC_ConfigChannel+0x62>
 8003e3c:	0007ffff 	.word	0x0007ffff
 8003e40:	407f0000 	.word	0x407f0000
 8003e44:	80080000 	.word	0x80080000
 8003e48:	50000100 	.word	0x50000100
 8003e4c:	50000700 	.word	0x50000700
 8003e50:	50000300 	.word	0x50000300
 8003e54:	c3210000 	.word	0xc3210000
 8003e58:	90c00010 	.word	0x90c00010
 8003e5c:	c7520000 	.word	0xc7520000
 8003e60:	cb840000 	.word	0xcb840000
 8003e64:	03fff000 	.word	0x03fff000
 8003e68:	50000600 	.word	0x50000600
 8003e6c:	20000028 	.word	0x20000028
 8003e70:	053e2d63 	.word	0x053e2d63
  MODIFY_REG(*preg,
 8003e74:	583d      	ldr	r5, [r7, r0]
 8003e76:	402c      	ands	r4, r5
 8003e78:	503c      	str	r4, [r7, r0]
  MODIFY_REG(ADCx->SMPR1, ADC_SMPR1_SMPPLUS, SamplingTimeCommonConfig);
 8003e7a:	6950      	ldr	r0, [r2, #20]
 8003e7c:	f040 4000 	orr.w	r0, r0, #2147483648	@ 0x80000000
 8003e80:	6150      	str	r0, [r2, #20]
}
 8003e82:	e6d3      	b.n	8003c2c <HAL_ADC_ConfigChannel+0x144>
   __ASM volatile ("rbit %0, %1" : "=r" (result) : "r" (value) );
 8003e84:	fa90 f4a0 	rbit	r4, r0
  if (value == 0U)
 8003e88:	2c00      	cmp	r4, #0
 8003e8a:	f000 8099 	beq.w	8003fc0 <HAL_ADC_ConfigChannel+0x4d8>
  return __builtin_clz(value);
 8003e8e:	fab4 f484 	clz	r4, r4
                                      (uint32_t)(__LL_ADC_DECIMAL_NB_TO_CHANNEL(
 8003e92:	3401      	adds	r4, #1
 8003e94:	06a4      	lsls	r4, r4, #26
 8003e96:	f004 44f8 	and.w	r4, r4, #2080374784	@ 0x7c000000
   __ASM volatile ("rbit %0, %1" : "=r" (result) : "r" (value) );
 8003e9a:	fa90 f5a0 	rbit	r5, r0
  if (value == 0U)
 8003e9e:	2d00      	cmp	r5, #0
 8003ea0:	f000 808c 	beq.w	8003fbc <HAL_ADC_ConfigChannel+0x4d4>
  return __builtin_clz(value);
 8003ea4:	fab5 f585 	clz	r5, r5
 8003ea8:	3501      	adds	r5, #1
 8003eaa:	f005 051f 	and.w	r5, r5, #31
 8003eae:	2601      	movs	r6, #1
 8003eb0:	fa06 f505 	lsl.w	r5, r6, r5
 8003eb4:	432c      	orrs	r4, r5
   __ASM volatile ("rbit %0, %1" : "=r" (result) : "r" (value) );
 8003eb6:	fa90 f0a0 	rbit	r0, r0
  if (value == 0U)
 8003eba:	2800      	cmp	r0, #0
 8003ebc:	f000 8083 	beq.w	8003fc6 <HAL_ADC_ConfigChannel+0x4de>
  return __builtin_clz(value);
 8003ec0:	fab0 f080 	clz	r0, r0
 8003ec4:	3001      	adds	r0, #1
 8003ec6:	f000 001f 	and.w	r0, r0, #31
 8003eca:	eb00 0040 	add.w	r0, r0, r0, lsl #1
 8003ece:	0500      	lsls	r0, r0, #20
 8003ed0:	e71c      	b.n	8003d0c <HAL_ADC_ConfigChannel+0x224>
   __ASM volatile ("rbit %0, %1" : "=r" (result) : "r" (value) );
 8003ed2:	fa90 f6a0 	rbit	r6, r0
  if (value == 0U)
 8003ed6:	b11e      	cbz	r6, 8003ee0 <HAL_ADC_ConfigChannel+0x3f8>
  return __builtin_clz(value);
 8003ed8:	fab6 f686 	clz	r6, r6
        if (__LL_ADC_CHANNEL_TO_DECIMAL_NB(LL_ADC_GetOffsetChannel(hadc->Instance, LL_ADC_OFFSET_1))
 8003edc:	42b5      	cmp	r5, r6
 8003ede:	d029      	beq.n	8003f34 <HAL_ADC_ConfigChannel+0x44c>
  return (uint32_t) READ_BIT(*preg, ADC_OFR1_OFFSET1_CH);
 8003ee0:	6e55      	ldr	r5, [r2, #100]	@ 0x64
 8003ee2:	6e55      	ldr	r5, [r2, #100]	@ 0x64
        if (__LL_ADC_CHANNEL_TO_DECIMAL_NB(LL_ADC_GetOffsetChannel(hadc->Instance, LL_ADC_OFFSET_2))
 8003ee4:	f3c5 6584 	ubfx	r5, r5, #26, #5
   __ASM volatile ("rbit %0, %1" : "=r" (result) : "r" (value) );
 8003ee8:	fa9c f6ac 	rbit	r6, ip
  const __IO uint32_t *preg = __ADC_PTR_REG_OFFSET(ADCx->OFR1, Offsety);
 8003eec:	f104 0708 	add.w	r7, r4, #8
 8003ef0:	46be      	mov	lr, r7
  if (value == 0U)
 8003ef2:	b11e      	cbz	r6, 8003efc <HAL_ADC_ConfigChannel+0x414>
  return __builtin_clz(value);
 8003ef4:	fab6 f686 	clz	r6, r6
 8003ef8:	42ae      	cmp	r6, r5
 8003efa:	d02f      	beq.n	8003f5c <HAL_ADC_ConfigChannel+0x474>
  return (uint32_t) READ_BIT(*preg, ADC_OFR1_OFFSET1_CH);
 8003efc:	68a5      	ldr	r5, [r4, #8]
 8003efe:	68a5      	ldr	r5, [r4, #8]
        if (__LL_ADC_CHANNEL_TO_DECIMAL_NB(LL_ADC_GetOffsetChannel(hadc->Instance, LL_ADC_OFFSET_3))
 8003f00:	f3c5 6584 	ubfx	r5, r5, #26, #5
   __ASM volatile ("rbit %0, %1" : "=r" (result) : "r" (value) );
 8003f04:	fa9c feac 	rbit	lr, ip
  const __IO uint32_t *preg = __ADC_PTR_REG_OFFSET(ADCx->OFR1, Offsety);
 8003f08:	f104 060c 	add.w	r6, r4, #12
 8003f0c:	46b0      	mov	r8, r6
  if (value == 0U)
 8003f0e:	f1be 0f00 	cmp.w	lr, #0
 8003f12:	d003      	beq.n	8003f1c <HAL_ADC_ConfigChannel+0x434>
  return __builtin_clz(value);
 8003f14:	fabe fe8e 	clz	lr, lr
 8003f18:	45ae      	cmp	lr, r5
 8003f1a:	d034      	beq.n	8003f86 <HAL_ADC_ConfigChannel+0x49e>
  return (uint32_t) READ_BIT(*preg, ADC_OFR1_OFFSET1_CH);
 8003f1c:	68e5      	ldr	r5, [r4, #12]
 8003f1e:	68e4      	ldr	r4, [r4, #12]
        if (__LL_ADC_CHANNEL_TO_DECIMAL_NB(LL_ADC_GetOffsetChannel(hadc->Instance, LL_ADC_OFFSET_4))
 8003f20:	f3c4 6484 	ubfx	r4, r4, #26, #5
   __ASM volatile ("rbit %0, %1" : "=r" (result) : "r" (value) );
 8003f24:	fa9c f5ac 	rbit	r5, ip
  if (value == 0U)
 8003f28:	2d00      	cmp	r5, #0
 8003f2a:	f43f ae0e 	beq.w	8003b4a <HAL_ADC_ConfigChannel+0x62>
  return __builtin_clz(value);
 8003f2e:	fab5 f085 	clz	r0, r5
 8003f32:	e77e      	b.n	8003e32 <HAL_ADC_ConfigChannel+0x34a>
  MODIFY_REG(*preg,
 8003f34:	6e10      	ldr	r0, [r2, #96]	@ 0x60
 8003f36:	f020 4000 	bic.w	r0, r0, #2147483648	@ 0x80000000
 8003f3a:	6610      	str	r0, [r2, #96]	@ 0x60
            == __LL_ADC_CHANNEL_TO_DECIMAL_NB(pConfig->Channel))
 8003f3c:	f8d1 c000 	ldr.w	ip, [r1]
  return (uint32_t) READ_BIT(*preg, ADC_OFR1_OFFSET1_CH);
 8003f40:	6e50      	ldr	r0, [r2, #100]	@ 0x64
 8003f42:	6e55      	ldr	r5, [r2, #100]	@ 0x64
 8003f44:	f3cc 0612 	ubfx	r6, ip, #0, #19
        if (__LL_ADC_CHANNEL_TO_DECIMAL_NB(LL_ADC_GetOffsetChannel(hadc->Instance, LL_ADC_OFFSET_2))
 8003f48:	f3c5 6584 	ubfx	r5, r5, #26, #5
            == __LL_ADC_CHANNEL_TO_DECIMAL_NB(pConfig->Channel))
 8003f4c:	4660      	mov	r0, ip
 8003f4e:	2e00      	cmp	r6, #0
 8003f50:	d1ca      	bne.n	8003ee8 <HAL_ADC_ConfigChannel+0x400>
 8003f52:	f3cc 6084 	ubfx	r0, ip, #26, #5
 8003f56:	e75a      	b.n	8003e0e <HAL_ADC_ConfigChannel+0x326>
 8003f58:	f104 0e08 	add.w	lr, r4, #8
  MODIFY_REG(*preg,
 8003f5c:	6e50      	ldr	r0, [r2, #100]	@ 0x64
 8003f5e:	f020 4000 	bic.w	r0, r0, #2147483648	@ 0x80000000
 8003f62:	6650      	str	r0, [r2, #100]	@ 0x64
            == __LL_ADC_CHANNEL_TO_DECIMAL_NB(pConfig->Channel))
 8003f64:	f8d1 c000 	ldr.w	ip, [r1]
  return (uint32_t) READ_BIT(*preg, ADC_OFR1_OFFSET1_CH);
 8003f68:	68a0      	ldr	r0, [r4, #8]
 8003f6a:	68a5      	ldr	r5, [r4, #8]
 8003f6c:	f3cc 0612 	ubfx	r6, ip, #0, #19
  const __IO uint32_t *preg = __ADC_PTR_REG_OFFSET(ADCx->OFR1, Offsety);
 8003f70:	4677      	mov	r7, lr
        if (__LL_ADC_CHANNEL_TO_DECIMAL_NB(LL_ADC_GetOffsetChannel(hadc->Instance, LL_ADC_OFFSET_3))
 8003f72:	f3c5 6584 	ubfx	r5, r5, #26, #5
            == __LL_ADC_CHANNEL_TO_DECIMAL_NB(pConfig->Channel))
 8003f76:	4660      	mov	r0, ip
 8003f78:	2e00      	cmp	r6, #0
 8003f7a:	d1c3      	bne.n	8003f04 <HAL_ADC_ConfigChannel+0x41c>
 8003f7c:	f3cc 6084 	ubfx	r0, ip, #26, #5
 8003f80:	e74e      	b.n	8003e20 <HAL_ADC_ConfigChannel+0x338>
 8003f82:	f104 080c 	add.w	r8, r4, #12
  MODIFY_REG(*preg,
 8003f86:	6838      	ldr	r0, [r7, #0]
 8003f88:	f020 4000 	bic.w	r0, r0, #2147483648	@ 0x80000000
 8003f8c:	6038      	str	r0, [r7, #0]
            == __LL_ADC_CHANNEL_TO_DECIMAL_NB(pConfig->Channel))
 8003f8e:	f8d1 c000 	ldr.w	ip, [r1]
  return (uint32_t) READ_BIT(*preg, ADC_OFR1_OFFSET1_CH);
 8003f92:	68e0      	ldr	r0, [r4, #12]
 8003f94:	68e4      	ldr	r4, [r4, #12]
 8003f96:	f3cc 0512 	ubfx	r5, ip, #0, #19
  const __IO uint32_t *preg = __ADC_PTR_REG_OFFSET(ADCx->OFR1, Offsety);
 8003f9a:	4646      	mov	r6, r8
        if (__LL_ADC_CHANNEL_TO_DECIMAL_NB(LL_ADC_GetOffsetChannel(hadc->Instance, LL_ADC_OFFSET_4))
 8003f9c:	f3c4 6484 	ubfx	r4, r4, #26, #5
            == __LL_ADC_CHANNEL_TO_DECIMAL_NB(pConfig->Channel))
 8003fa0:	4660      	mov	r0, ip
 8003fa2:	2d00      	cmp	r5, #0
 8003fa4:	d1be      	bne.n	8003f24 <HAL_ADC_ConfigChannel+0x43c>
 8003fa6:	f3cc 6084 	ubfx	r0, ip, #26, #5
 8003faa:	e742      	b.n	8003e32 <HAL_ADC_ConfigChannel+0x34a>
  MODIFY_REG(*preg,
 8003fac:	6830      	ldr	r0, [r6, #0]
 8003fae:	f020 4000 	bic.w	r0, r0, #2147483648	@ 0x80000000
 8003fb2:	6030      	str	r0, [r6, #0]
      LL_ADC_SetChannelSingleDiff(hadc->Instance, pConfig->Channel, pConfig->SingleDiff);
 8003fb4:	6808      	ldr	r0, [r1, #0]
}
 8003fb6:	e5c8      	b.n	8003b4a <HAL_ADC_ConfigChannel+0x62>
          LL_ADC_SetCommonPathInternalCh(__LL_ADC_COMMON_INSTANCE(hadc->Instance),
 8003fb8:	4908      	ldr	r1, [pc, #32]	@ (8003fdc <HAL_ADC_ConfigChannel+0x4f4>)
 8003fba:	e6f9      	b.n	8003db0 <HAL_ADC_ConfigChannel+0x2c8>
 8003fbc:	2502      	movs	r5, #2
 8003fbe:	e779      	b.n	8003eb4 <HAL_ADC_ConfigChannel+0x3cc>
 8003fc0:	f04f 6480 	mov.w	r4, #67108864	@ 0x4000000
 8003fc4:	e769      	b.n	8003e9a <HAL_ADC_ConfigChannel+0x3b2>
 8003fc6:	f44f 1040 	mov.w	r0, #3145728	@ 0x300000
 8003fca:	e69f      	b.n	8003d0c <HAL_ADC_ConfigChannel+0x224>
 8003fcc:	f04f 6480 	mov.w	r4, #67108864	@ 0x4000000
 8003fd0:	e67c      	b.n	8003ccc <HAL_ADC_ConfigChannel+0x1e4>
 8003fd2:	4803      	ldr	r0, [pc, #12]	@ (8003fe0 <HAL_ADC_ConfigChannel+0x4f8>)
 8003fd4:	e69a      	b.n	8003d0c <HAL_ADC_ConfigChannel+0x224>
 8003fd6:	2502      	movs	r5, #2
 8003fd8:	e685      	b.n	8003ce6 <HAL_ADC_ConfigChannel+0x1fe>
 8003fda:	bf00      	nop
 8003fdc:	50000300 	.word	0x50000300
 8003fe0:	fe500000 	.word	0xfe500000

08003fe4 <ADC_Enable>:
{
 8003fe4:	b570      	push	{r4, r5, r6, lr}
 8003fe6:	b082      	sub	sp, #8
  __IO uint32_t wait_loop_index = 0UL;
 8003fe8:	2200      	movs	r2, #0
  if (LL_ADC_IsEnabled(hadc->Instance) == 0UL)
 8003fea:	6803      	ldr	r3, [r0, #0]
  __IO uint32_t wait_loop_index = 0UL;
 8003fec:	9201      	str	r2, [sp, #4]
  return ((READ_BIT(ADCx->CR, ADC_CR_ADEN) == (ADC_CR_ADEN)) ? 1UL : 0UL);
 8003fee:	689a      	ldr	r2, [r3, #8]
 8003ff0:	07d2      	lsls	r2, r2, #31
 8003ff2:	d434      	bmi.n	800405e <ADC_Enable+0x7a>
    if ((hadc->Instance->CR & (ADC_CR_ADCAL | ADC_CR_JADSTP | ADC_CR_ADSTP | ADC_CR_JADSTART | ADC_CR_ADSTART
 8003ff4:	6899      	ldr	r1, [r3, #8]
 8003ff6:	4a2d      	ldr	r2, [pc, #180]	@ (80040ac <ADC_Enable+0xc8>)
 8003ff8:	4211      	tst	r1, r2
 8003ffa:	4604      	mov	r4, r0
 8003ffc:	d132      	bne.n	8004064 <ADC_Enable+0x80>
  MODIFY_REG(ADCx->CR,
 8003ffe:	689a      	ldr	r2, [r3, #8]
 8004000:	f022 4200 	bic.w	r2, r2, #2147483648	@ 0x80000000
 8004004:	f022 023f 	bic.w	r2, r2, #63	@ 0x3f
 8004008:	f042 0201 	orr.w	r2, r2, #1
    if ((LL_ADC_GetCommonPathInternalCh(__LL_ADC_COMMON_INSTANCE(hadc->Instance))
 800400c:	f1b3 4fa0 	cmp.w	r3, #1342177280	@ 0x50000000
 8004010:	609a      	str	r2, [r3, #8]
 8004012:	d048      	beq.n	80040a6 <ADC_Enable+0xc2>
 8004014:	4826      	ldr	r0, [pc, #152]	@ (80040b0 <ADC_Enable+0xcc>)
 8004016:	4a27      	ldr	r2, [pc, #156]	@ (80040b4 <ADC_Enable+0xd0>)
 8004018:	4927      	ldr	r1, [pc, #156]	@ (80040b8 <ADC_Enable+0xd4>)
 800401a:	4283      	cmp	r3, r0
 800401c:	bf08      	it	eq
 800401e:	460a      	moveq	r2, r1
  return (uint32_t)(READ_BIT(ADCxy_COMMON->CCR, ADC_CCR_VREFEN | ADC_CCR_VSENSESEL | ADC_CCR_VBATSEL));
 8004020:	6893      	ldr	r3, [r2, #8]
 8004022:	021b      	lsls	r3, r3, #8
 8004024:	d429      	bmi.n	800407a <ADC_Enable+0x96>
    tickstart = HAL_GetTick();
 8004026:	f7ff fbdb 	bl	80037e0 <HAL_GetTick>
    while (__HAL_ADC_GET_FLAG(hadc, ADC_FLAG_RDY) == 0UL)
 800402a:	6823      	ldr	r3, [r4, #0]
 800402c:	681a      	ldr	r2, [r3, #0]
 800402e:	07d6      	lsls	r6, r2, #31
    tickstart = HAL_GetTick();
 8004030:	4605      	mov	r5, r0
    while (__HAL_ADC_GET_FLAG(hadc, ADC_FLAG_RDY) == 0UL)
 8004032:	d414      	bmi.n	800405e <ADC_Enable+0x7a>
  MODIFY_REG(ADCx->CR,
 8004034:	4e21      	ldr	r6, [pc, #132]	@ (80040bc <ADC_Enable+0xd8>)
  return ((READ_BIT(ADCx->CR, ADC_CR_ADEN) == (ADC_CR_ADEN)) ? 1UL : 0UL);
 8004036:	689a      	ldr	r2, [r3, #8]
 8004038:	07d0      	lsls	r0, r2, #31
 800403a:	d404      	bmi.n	8004046 <ADC_Enable+0x62>
  MODIFY_REG(ADCx->CR,
 800403c:	689a      	ldr	r2, [r3, #8]
 800403e:	4032      	ands	r2, r6
 8004040:	f042 0201 	orr.w	r2, r2, #1
 8004044:	609a      	str	r2, [r3, #8]
      if ((HAL_GetTick() - tickstart) > ADC_ENABLE_TIMEOUT)
 8004046:	f7ff fbcb 	bl	80037e0 <HAL_GetTick>
 800404a:	1b43      	subs	r3, r0, r5
 800404c:	2b02      	cmp	r3, #2
        if (__HAL_ADC_GET_FLAG(hadc, ADC_FLAG_RDY) == 0UL)
 800404e:	6823      	ldr	r3, [r4, #0]
      if ((HAL_GetTick() - tickstart) > ADC_ENABLE_TIMEOUT)
 8004050:	d902      	bls.n	8004058 <ADC_Enable+0x74>
        if (__HAL_ADC_GET_FLAG(hadc, ADC_FLAG_RDY) == 0UL)
 8004052:	681a      	ldr	r2, [r3, #0]
 8004054:	07d1      	lsls	r1, r2, #31
 8004056:	d505      	bpl.n	8004064 <ADC_Enable+0x80>
    while (__HAL_ADC_GET_FLAG(hadc, ADC_FLAG_RDY) == 0UL)
 8004058:	681a      	ldr	r2, [r3, #0]
 800405a:	07d2      	lsls	r2, r2, #31
 800405c:	d5eb      	bpl.n	8004036 <ADC_Enable+0x52>
  return HAL_OK;
 800405e:	2000      	movs	r0, #0
}
 8004060:	b002      	add	sp, #8
 8004062:	bd70      	pop	{r4, r5, r6, pc}
          SET_BIT(hadc->State, HAL_ADC_STATE_ERROR_INTERNAL);
 8004064:	6de3      	ldr	r3, [r4, #92]	@ 0x5c
 8004066:	f043 0310 	orr.w	r3, r3, #16
 800406a:	65e3      	str	r3, [r4, #92]	@ 0x5c
          SET_BIT(hadc->ErrorCode, HAL_ADC_ERROR_INTERNAL);
 800406c:	6e23      	ldr	r3, [r4, #96]	@ 0x60
      return HAL_ERROR;
 800406e:	2001      	movs	r0, #1
          SET_BIT(hadc->ErrorCode, HAL_ADC_ERROR_INTERNAL);
 8004070:	f043 0301 	orr.w	r3, r3, #1
 8004074:	6623      	str	r3, [r4, #96]	@ 0x60
}
 8004076:	b002      	add	sp, #8
 8004078:	bd70      	pop	{r4, r5, r6, pc}
      wait_loop_index = ((LL_ADC_DELAY_TEMPSENSOR_STAB_US / 10UL) * ((SystemCoreClock / (100000UL * 2UL)) + 1UL));
 800407a:	4b11      	ldr	r3, [pc, #68]	@ (80040c0 <ADC_Enable+0xdc>)
 800407c:	4a11      	ldr	r2, [pc, #68]	@ (80040c4 <ADC_Enable+0xe0>)
 800407e:	681b      	ldr	r3, [r3, #0]
 8004080:	099b      	lsrs	r3, r3, #6
 8004082:	fba2 2303 	umull	r2, r3, r2, r3
 8004086:	099b      	lsrs	r3, r3, #6
 8004088:	3301      	adds	r3, #1
 800408a:	eb03 0343 	add.w	r3, r3, r3, lsl #1
 800408e:	009b      	lsls	r3, r3, #2
 8004090:	9301      	str	r3, [sp, #4]
      while (wait_loop_index != 0UL)
 8004092:	9b01      	ldr	r3, [sp, #4]
 8004094:	2b00      	cmp	r3, #0
 8004096:	d0c6      	beq.n	8004026 <ADC_Enable+0x42>
        wait_loop_index--;
 8004098:	9b01      	ldr	r3, [sp, #4]
 800409a:	3b01      	subs	r3, #1
 800409c:	9301      	str	r3, [sp, #4]
      while (wait_loop_index != 0UL)
 800409e:	9b01      	ldr	r3, [sp, #4]
 80040a0:	2b00      	cmp	r3, #0
 80040a2:	d1f9      	bne.n	8004098 <ADC_Enable+0xb4>
 80040a4:	e7bf      	b.n	8004026 <ADC_Enable+0x42>
    if ((LL_ADC_GetCommonPathInternalCh(__LL_ADC_COMMON_INSTANCE(hadc->Instance))
 80040a6:	4a04      	ldr	r2, [pc, #16]	@ (80040b8 <ADC_Enable+0xd4>)
 80040a8:	e7ba      	b.n	8004020 <ADC_Enable+0x3c>
 80040aa:	bf00      	nop
 80040ac:	8000003f 	.word	0x8000003f
 80040b0:	50000100 	.word	0x50000100
 80040b4:	50000700 	.word	0x50000700
 80040b8:	50000300 	.word	0x50000300
 80040bc:	7fffffc0 	.word	0x7fffffc0
 80040c0:	20000028 	.word	0x20000028
 80040c4:	053e2d63 	.word	0x053e2d63

080040c8 <HAL_ADC_Start_DMA>:
{
 80040c8:	e92d 41f0 	stmdb	sp!, {r4, r5, r6, r7, r8, lr}
  uint32_t tmp_multimode_config = LL_ADC_GetMultimode(__LL_ADC_COMMON_INSTANCE(hadc->Instance));
 80040cc:	6805      	ldr	r5, [r0, #0]
 80040ce:	f1b5 4fa0 	cmp.w	r5, #1342177280	@ 0x50000000
{
 80040d2:	4604      	mov	r4, r0
 80040d4:	460e      	mov	r6, r1
 80040d6:	4617      	mov	r7, r2
  uint32_t tmp_multimode_config = LL_ADC_GetMultimode(__LL_ADC_COMMON_INSTANCE(hadc->Instance));
 80040d8:	d022      	beq.n	8004120 <HAL_ADC_Start_DMA+0x58>
 80040da:	4a39      	ldr	r2, [pc, #228]	@ (80041c0 <HAL_ADC_Start_DMA+0xf8>)
 80040dc:	4839      	ldr	r0, [pc, #228]	@ (80041c4 <HAL_ADC_Start_DMA+0xfc>)
 80040de:	4b3a      	ldr	r3, [pc, #232]	@ (80041c8 <HAL_ADC_Start_DMA+0x100>)
 80040e0:	4295      	cmp	r5, r2
 80040e2:	bf08      	it	eq
 80040e4:	4618      	moveq	r0, r3
  return (uint32_t)(READ_BIT(ADCxy_COMMON->CCR, ADC_CCR_DUAL));
 80040e6:	6882      	ldr	r2, [r0, #8]
  return ((READ_BIT(ADCx->CR, ADC_CR_ADSTART) == (ADC_CR_ADSTART)) ? 1UL : 0UL);
 80040e8:	68ab      	ldr	r3, [r5, #8]
 80040ea:	075b      	lsls	r3, r3, #29
 80040ec:	d415      	bmi.n	800411a <HAL_ADC_Start_DMA+0x52>
    __HAL_LOCK(hadc);
 80040ee:	f894 3058 	ldrb.w	r3, [r4, #88]	@ 0x58
 80040f2:	2b01      	cmp	r3, #1
 80040f4:	d011      	beq.n	800411a <HAL_ADC_Start_DMA+0x52>
    if ((ADC_IS_INDEPENDENT(hadc) != RESET)
 80040f6:	4b35      	ldr	r3, [pc, #212]	@ (80041cc <HAL_ADC_Start_DMA+0x104>)
    __HAL_LOCK(hadc);
 80040f8:	2001      	movs	r0, #1
    if ((ADC_IS_INDEPENDENT(hadc) != RESET)
 80040fa:	429d      	cmp	r5, r3
  return (uint32_t)(READ_BIT(ADCxy_COMMON->CCR, ADC_CCR_DUAL));
 80040fc:	f002 081f 	and.w	r8, r2, #31
    __HAL_LOCK(hadc);
 8004100:	f884 0058 	strb.w	r0, [r4, #88]	@ 0x58
    if ((ADC_IS_INDEPENDENT(hadc) != RESET)
 8004104:	d00e      	beq.n	8004124 <HAL_ADC_Start_DMA+0x5c>
 8004106:	f240 2321 	movw	r3, #545	@ 0x221
 800410a:	fa23 f308 	lsr.w	r3, r3, r8
 800410e:	4003      	ands	r3, r0
 8004110:	d108      	bne.n	8004124 <HAL_ADC_Start_DMA+0x5c>
      __HAL_UNLOCK(hadc);
 8004112:	f884 3058 	strb.w	r3, [r4, #88]	@ 0x58
}
 8004116:	e8bd 81f0 	ldmia.w	sp!, {r4, r5, r6, r7, r8, pc}
    __HAL_LOCK(hadc);
 800411a:	2002      	movs	r0, #2
}
 800411c:	e8bd 81f0 	ldmia.w	sp!, {r4, r5, r6, r7, r8, pc}
  uint32_t tmp_multimode_config = LL_ADC_GetMultimode(__LL_ADC_COMMON_INSTANCE(hadc->Instance));
 8004120:	4829      	ldr	r0, [pc, #164]	@ (80041c8 <HAL_ADC_Start_DMA+0x100>)
 8004122:	e7e0      	b.n	80040e6 <HAL_ADC_Start_DMA+0x1e>
      tmp_hal_status = ADC_Enable(hadc);
 8004124:	4620      	mov	r0, r4
 8004126:	f7ff ff5d 	bl	8003fe4 <ADC_Enable>
      if (tmp_hal_status == HAL_OK)
 800412a:	2800      	cmp	r0, #0
 800412c:	d13f      	bne.n	80041ae <HAL_ADC_Start_DMA+0xe6>
        ADC_STATE_CLR_SET(hadc->State,
 800412e:	6de3      	ldr	r3, [r4, #92]	@ 0x5c
        if ((__LL_ADC_MULTI_INSTANCE_MASTER(hadc->Instance) == hadc->Instance)
 8004130:	6821      	ldr	r1, [r4, #0]
        ADC_STATE_CLR_SET(hadc->State,
 8004132:	f423 6370 	bic.w	r3, r3, #3840	@ 0xf00
 8004136:	f023 0301 	bic.w	r3, r3, #1
 800413a:	f443 7380 	orr.w	r3, r3, #256	@ 0x100
 800413e:	65e3      	str	r3, [r4, #92]	@ 0x5c
        if ((__LL_ADC_MULTI_INSTANCE_MASTER(hadc->Instance) == hadc->Instance)
 8004140:	4b1f      	ldr	r3, [pc, #124]	@ (80041c0 <HAL_ADC_Start_DMA+0xf8>)
 8004142:	4299      	cmp	r1, r3
 8004144:	d038      	beq.n	80041b8 <HAL_ADC_Start_DMA+0xf0>
 8004146:	f503 6380 	add.w	r3, r3, #1024	@ 0x400
 800414a:	4299      	cmp	r1, r3
 800414c:	d034      	beq.n	80041b8 <HAL_ADC_Start_DMA+0xf0>
          CLEAR_BIT(hadc->State, HAL_ADC_STATE_MULTIMODE_SLAVE);
 800414e:	6de3      	ldr	r3, [r4, #92]	@ 0x5c
 8004150:	f423 1380 	bic.w	r3, r3, #1048576	@ 0x100000
 8004154:	65e3      	str	r3, [r4, #92]	@ 0x5c
        if ((hadc->State & HAL_ADC_STATE_INJ_BUSY) != 0UL)
 8004156:	6de3      	ldr	r3, [r4, #92]	@ 0x5c
        hadc->DMA_Handle->XferCpltCallback = ADC_DMAConvCplt;
 8004158:	6d60      	ldr	r0, [r4, #84]	@ 0x54
 800415a:	4d1d      	ldr	r5, [pc, #116]	@ (80041d0 <HAL_ADC_Start_DMA+0x108>)
        if ((hadc->State & HAL_ADC_STATE_INJ_BUSY) != 0UL)
 800415c:	f413 5380 	ands.w	r3, r3, #4096	@ 0x1000
          CLEAR_BIT(hadc->ErrorCode, (HAL_ADC_ERROR_OVR | HAL_ADC_ERROR_DMA));
 8004160:	bf1c      	itt	ne
 8004162:	6e23      	ldrne	r3, [r4, #96]	@ 0x60
 8004164:	f023 0306 	bicne.w	r3, r3, #6
          ADC_CLEAR_ERRORCODE(hadc);
 8004168:	6623      	str	r3, [r4, #96]	@ 0x60
        hadc->DMA_Handle->XferCpltCallback = ADC_DMAConvCplt;
 800416a:	62c5      	str	r5, [r0, #44]	@ 0x2c
        hadc->DMA_Handle->XferHalfCpltCallback = ADC_DMAHalfConvCplt;
 800416c:	4d19      	ldr	r5, [pc, #100]	@ (80041d4 <HAL_ADC_Start_DMA+0x10c>)
 800416e:	6305      	str	r5, [r0, #48]	@ 0x30
        hadc->DMA_Handle->XferErrorCallback = ADC_DMAError;
 8004170:	4d19      	ldr	r5, [pc, #100]	@ (80041d8 <HAL_ADC_Start_DMA+0x110>)
 8004172:	6345      	str	r5, [r0, #52]	@ 0x34
        __HAL_ADC_CLEAR_FLAG(hadc, (ADC_FLAG_EOC | ADC_FLAG_EOS | ADC_FLAG_OVR));
 8004174:	251c      	movs	r5, #28
 8004176:	600d      	str	r5, [r1, #0]
        __HAL_UNLOCK(hadc);
 8004178:	2500      	movs	r5, #0
 800417a:	f884 5058 	strb.w	r5, [r4, #88]	@ 0x58
        __HAL_ADC_ENABLE_IT(hadc, ADC_IT_OVR);
 800417e:	684d      	ldr	r5, [r1, #4]
 8004180:	f045 0510 	orr.w	r5, r5, #16
 8004184:	604d      	str	r5, [r1, #4]
        SET_BIT(hadc->Instance->CFGR, ADC_CFGR_DMAEN);
 8004186:	68cd      	ldr	r5, [r1, #12]
 8004188:	f045 0501 	orr.w	r5, r5, #1
        tmp_hal_status = HAL_DMA_Start_IT(hadc->DMA_Handle, (uint32_t)&hadc->Instance->DR, (uint32_t)pData, Length);
 800418c:	463b      	mov	r3, r7
 800418e:	4632      	mov	r2, r6
        SET_BIT(hadc->Instance->CFGR, ADC_CFGR_DMAEN);
 8004190:	60cd      	str	r5, [r1, #12]
        tmp_hal_status = HAL_DMA_Start_IT(hadc->DMA_Handle, (uint32_t)&hadc->Instance->DR, (uint32_t)pData, Length);
 8004192:	3140      	adds	r1, #64	@ 0x40
 8004194:	f000 f9b2 	bl	80044fc <HAL_DMA_Start_IT>
        LL_ADC_REG_StartConversion(hadc->Instance);
 8004198:	6822      	ldr	r2, [r4, #0]
  MODIFY_REG(ADCx->CR,
 800419a:	6893      	ldr	r3, [r2, #8]
 800419c:	f023 4300 	bic.w	r3, r3, #2147483648	@ 0x80000000
 80041a0:	f023 033f 	bic.w	r3, r3, #63	@ 0x3f
 80041a4:	f043 0304 	orr.w	r3, r3, #4
 80041a8:	6093      	str	r3, [r2, #8]
}
 80041aa:	e8bd 81f0 	ldmia.w	sp!, {r4, r5, r6, r7, r8, pc}
        __HAL_UNLOCK(hadc);
 80041ae:	2300      	movs	r3, #0
 80041b0:	f884 3058 	strb.w	r3, [r4, #88]	@ 0x58
}
 80041b4:	e8bd 81f0 	ldmia.w	sp!, {r4, r5, r6, r7, r8, pc}
            || (tmp_multimode_config == LL_ADC_MULTI_INDEPENDENT)
 80041b8:	f1b8 0f00 	cmp.w	r8, #0
 80041bc:	d1cb      	bne.n	8004156 <HAL_ADC_Start_DMA+0x8e>
 80041be:	e7c6      	b.n	800414e <HAL_ADC_Start_DMA+0x86>
 80041c0:	50000100 	.word	0x50000100
 80041c4:	50000700 	.word	0x50000700
 80041c8:	50000300 	.word	0x50000300
 80041cc:	50000600 	.word	0x50000600
 80041d0:	08003a61 	.word	0x08003a61
 80041d4:	08003a51 	.word	0x08003a51
 80041d8:	08003acd 	.word	0x08003acd

080041dc <ADC_Disable>:
{
 80041dc:	b538      	push	{r3, r4, r5, lr}
  const uint32_t tmp_adc_is_disable_on_going = LL_ADC_IsDisableOngoing(hadc->Instance);
 80041de:	6803      	ldr	r3, [r0, #0]
  return ((READ_BIT(ADCx->CR, ADC_CR_ADDIS) == (ADC_CR_ADDIS)) ? 1UL : 0UL);
 80041e0:	689a      	ldr	r2, [r3, #8]
 80041e2:	0795      	lsls	r5, r2, #30
 80041e4:	d502      	bpl.n	80041ec <ADC_Disable+0x10>
  return ((READ_BIT(ADCx->CR, ADC_CR_ADEN) == (ADC_CR_ADEN)) ? 1UL : 0UL);
 80041e6:	689b      	ldr	r3, [r3, #8]
  return HAL_OK;
 80041e8:	2000      	movs	r0, #0
}
 80041ea:	bd38      	pop	{r3, r4, r5, pc}
 80041ec:	689a      	ldr	r2, [r3, #8]
 80041ee:	07d4      	lsls	r4, r2, #31
 80041f0:	d5fa      	bpl.n	80041e8 <ADC_Disable+0xc>
    if ((hadc->Instance->CR & (ADC_CR_JADSTART | ADC_CR_ADSTART | ADC_CR_ADEN)) == ADC_CR_ADEN)
 80041f2:	689a      	ldr	r2, [r3, #8]
 80041f4:	f002 020d 	and.w	r2, r2, #13
 80041f8:	2a01      	cmp	r2, #1
 80041fa:	4604      	mov	r4, r0
 80041fc:	d009      	beq.n	8004212 <ADC_Disable+0x36>
          SET_BIT(hadc->State, HAL_ADC_STATE_ERROR_INTERNAL);
 80041fe:	6de3      	ldr	r3, [r4, #92]	@ 0x5c
 8004200:	f043 0310 	orr.w	r3, r3, #16
 8004204:	65e3      	str	r3, [r4, #92]	@ 0x5c
          SET_BIT(hadc->ErrorCode, HAL_ADC_ERROR_INTERNAL);
 8004206:	6e23      	ldr	r3, [r4, #96]	@ 0x60
 8004208:	f043 0301 	orr.w	r3, r3, #1
 800420c:	6623      	str	r3, [r4, #96]	@ 0x60
      return HAL_ERROR;
 800420e:	2001      	movs	r0, #1
}
 8004210:	bd38      	pop	{r3, r4, r5, pc}
  MODIFY_REG(ADCx->CR,
 8004212:	689a      	ldr	r2, [r3, #8]
 8004214:	f022 4200 	bic.w	r2, r2, #2147483648	@ 0x80000000
 8004218:	f022 023f 	bic.w	r2, r2, #63	@ 0x3f
      __HAL_ADC_CLEAR_FLAG(hadc, (ADC_FLAG_EOSMP | ADC_FLAG_RDY));
 800421c:	2103      	movs	r1, #3
 800421e:	f042 0202 	orr.w	r2, r2, #2
 8004222:	609a      	str	r2, [r3, #8]
 8004224:	6019      	str	r1, [r3, #0]
    tickstart = HAL_GetTick();
 8004226:	f7ff fadb 	bl	80037e0 <HAL_GetTick>
    while ((hadc->Instance->CR & ADC_CR_ADEN) != 0UL)
 800422a:	6823      	ldr	r3, [r4, #0]
 800422c:	689b      	ldr	r3, [r3, #8]
 800422e:	07d9      	lsls	r1, r3, #31
    tickstart = HAL_GetTick();
 8004230:	4605      	mov	r5, r0
    while ((hadc->Instance->CR & ADC_CR_ADEN) != 0UL)
 8004232:	d403      	bmi.n	800423c <ADC_Disable+0x60>
 8004234:	e7d8      	b.n	80041e8 <ADC_Disable+0xc>
 8004236:	689b      	ldr	r3, [r3, #8]
 8004238:	07db      	lsls	r3, r3, #31
 800423a:	d5d5      	bpl.n	80041e8 <ADC_Disable+0xc>
      if ((HAL_GetTick() - tickstart) > ADC_DISABLE_TIMEOUT)
 800423c:	f7ff fad0 	bl	80037e0 <HAL_GetTick>
 8004240:	1b40      	subs	r0, r0, r5
 8004242:	2802      	cmp	r0, #2
        if ((hadc->Instance->CR & ADC_CR_ADEN) != 0UL)
 8004244:	6823      	ldr	r3, [r4, #0]
      if ((HAL_GetTick() - tickstart) > ADC_DISABLE_TIMEOUT)
 8004246:	d9f6      	bls.n	8004236 <ADC_Disable+0x5a>
        if ((hadc->Instance->CR & ADC_CR_ADEN) != 0UL)
 8004248:	689a      	ldr	r2, [r3, #8]
 800424a:	07d2      	lsls	r2, r2, #31
 800424c:	d5f3      	bpl.n	8004236 <ADC_Disable+0x5a>
 800424e:	e7d6      	b.n	80041fe <ADC_Disable+0x22>

08004250 <HAL_ADCEx_Calibration_Start>:
  *           @arg @ref ADC_SINGLE_ENDED       Channel in mode input single ended
  *           @arg @ref ADC_DIFFERENTIAL_ENDED Channel in mode input differential ended
  * @retval HAL status
  */
HAL_StatusTypeDef HAL_ADCEx_Calibration_Start(ADC_HandleTypeDef *hadc, uint32_t SingleDiff)
{
 8004250:	b530      	push	{r4, r5, lr}
  /* Check the parameters */
  assert_param(IS_ADC_ALL_INSTANCE(hadc->Instance));
  assert_param(IS_ADC_SINGLE_DIFFERENTIAL(SingleDiff));

  /* Process locked */
  __HAL_LOCK(hadc);
 8004252:	f890 3058 	ldrb.w	r3, [r0, #88]	@ 0x58
{
 8004256:	b083      	sub	sp, #12
  __IO uint32_t wait_loop_index = 0UL;
 8004258:	2200      	movs	r2, #0
  __HAL_LOCK(hadc);
 800425a:	2b01      	cmp	r3, #1
  __IO uint32_t wait_loop_index = 0UL;
 800425c:	9201      	str	r2, [sp, #4]
  __HAL_LOCK(hadc);
 800425e:	d03f      	beq.n	80042e0 <HAL_ADCEx_Calibration_Start+0x90>
 8004260:	2301      	movs	r3, #1
 8004262:	f880 3058 	strb.w	r3, [r0, #88]	@ 0x58

  /* Calibration prerequisite: ADC must be disabled. */

  /* Disable the ADC (if not already disabled) */
  tmp_hal_status = ADC_Disable(hadc);
 8004266:	4604      	mov	r4, r0
 8004268:	460d      	mov	r5, r1
 800426a:	f7ff ffb7 	bl	80041dc <ADC_Disable>

  /* Check if ADC is effectively disabled */
  if (tmp_hal_status == HAL_OK)
  {
    /* Set ADC state */
    ADC_STATE_CLR_SET(hadc->State,
 800426e:	6de3      	ldr	r3, [r4, #92]	@ 0x5c
  if (tmp_hal_status == HAL_OK)
 8004270:	b9e8      	cbnz	r0, 80042ae <HAL_ADCEx_Calibration_Start+0x5e>
    ADC_STATE_CLR_SET(hadc->State,
 8004272:	f423 5388 	bic.w	r3, r3, #4352	@ 0x1100
 8004276:	f023 0302 	bic.w	r3, r3, #2
                      HAL_ADC_STATE_REG_BUSY | HAL_ADC_STATE_INJ_BUSY,
                      HAL_ADC_STATE_BUSY_INTERNAL);

    /* Start ADC calibration in mode single-ended or differential */
    LL_ADC_StartCalibration(hadc->Instance, SingleDiff);
 800427a:	6822      	ldr	r2, [r4, #0]
    ADC_STATE_CLR_SET(hadc->State,
 800427c:	f043 0302 	orr.w	r3, r3, #2
 8004280:	65e3      	str	r3, [r4, #92]	@ 0x5c
  MODIFY_REG(ADCx->CR,
 8004282:	6893      	ldr	r3, [r2, #8]
 8004284:	f023 4340 	bic.w	r3, r3, #3221225472	@ 0xc0000000
 8004288:	f005 4180 	and.w	r1, r5, #1073741824	@ 0x40000000
 800428c:	f023 033f 	bic.w	r3, r3, #63	@ 0x3f
 8004290:	430b      	orrs	r3, r1
 8004292:	f043 4300 	orr.w	r3, r3, #2147483648	@ 0x80000000
 8004296:	6093      	str	r3, [r2, #8]
  return ((READ_BIT(ADCx->CR, ADC_CR_ADCAL) == (ADC_CR_ADCAL)) ? 1UL : 0UL);
 8004298:	6893      	ldr	r3, [r2, #8]

    /* Wait for calibration completion */
    while (LL_ADC_IsCalibrationOnGoing(hadc->Instance) != 0UL)
    {
      wait_loop_index++;
      if (wait_loop_index >= ADC_CALIBRATION_TIMEOUT)
 800429a:	4913      	ldr	r1, [pc, #76]	@ (80042e8 <HAL_ADCEx_Calibration_Start+0x98>)
 800429c:	2b00      	cmp	r3, #0
 800429e:	db0e      	blt.n	80042be <HAL_ADCEx_Calibration_Start+0x6e>
        return HAL_ERROR;
      }
    }

    /* Set ADC state */
    ADC_STATE_CLR_SET(hadc->State,
 80042a0:	6de3      	ldr	r3, [r4, #92]	@ 0x5c
 80042a2:	f023 0303 	bic.w	r3, r3, #3
 80042a6:	f043 0301 	orr.w	r3, r3, #1
 80042aa:	65e3      	str	r3, [r4, #92]	@ 0x5c
 80042ac:	e002      	b.n	80042b4 <HAL_ADCEx_Calibration_Start+0x64>
                      HAL_ADC_STATE_BUSY_INTERNAL,
                      HAL_ADC_STATE_READY);
  }
  else
  {
    SET_BIT(hadc->State, HAL_ADC_STATE_ERROR_INTERNAL);
 80042ae:	f043 0310 	orr.w	r3, r3, #16
 80042b2:	65e3      	str	r3, [r4, #92]	@ 0x5c
    /* Note: No need to update variable "tmp_hal_status" here: already set    */
    /*       to state "HAL_ERROR" by function disabling the ADC.              */
  }

  /* Process unlocked */
  __HAL_UNLOCK(hadc);
 80042b4:	2300      	movs	r3, #0
 80042b6:	f884 3058 	strb.w	r3, [r4, #88]	@ 0x58

  /* Return function status */
  return tmp_hal_status;
}
 80042ba:	b003      	add	sp, #12
 80042bc:	bd30      	pop	{r4, r5, pc}
      wait_loop_index++;
 80042be:	9b01      	ldr	r3, [sp, #4]
 80042c0:	3301      	adds	r3, #1
 80042c2:	9301      	str	r3, [sp, #4]
      if (wait_loop_index >= ADC_CALIBRATION_TIMEOUT)
 80042c4:	9b01      	ldr	r3, [sp, #4]
 80042c6:	428b      	cmp	r3, r1
 80042c8:	d9e6      	bls.n	8004298 <HAL_ADCEx_Calibration_Start+0x48>
        ADC_STATE_CLR_SET(hadc->State,
 80042ca:	6de3      	ldr	r3, [r4, #92]	@ 0x5c
 80042cc:	f023 0312 	bic.w	r3, r3, #18
        __HAL_UNLOCK(hadc);
 80042d0:	2200      	movs	r2, #0
        ADC_STATE_CLR_SET(hadc->State,
 80042d2:	f043 0310 	orr.w	r3, r3, #16
 80042d6:	65e3      	str	r3, [r4, #92]	@ 0x5c
        __HAL_UNLOCK(hadc);
 80042d8:	f884 2058 	strb.w	r2, [r4, #88]	@ 0x58
        return HAL_ERROR;
 80042dc:	2001      	movs	r0, #1
 80042de:	e7ec      	b.n	80042ba <HAL_ADCEx_Calibration_Start+0x6a>
  __HAL_LOCK(hadc);
 80042e0:	2002      	movs	r0, #2
}
 80042e2:	b003      	add	sp, #12
 80042e4:	bd30      	pop	{r4, r5, pc}
 80042e6:	bf00      	nop
 80042e8:	0004de01 	.word	0x0004de01

080042ec <HAL_NVIC_SetPriorityGrouping>:
  reg_value  =  SCB->AIRCR;                                                   /* read old register configuration    */
 80042ec:	4907      	ldr	r1, [pc, #28]	@ (800430c <HAL_NVIC_SetPriorityGrouping+0x20>)
 80042ee:	68ca      	ldr	r2, [r1, #12]
                (PriorityGroupTmp << SCB_AIRCR_PRIGROUP_Pos)  );              /* Insert write key and priority group */
 80042f0:	0203      	lsls	r3, r0, #8
  reg_value &= ~((uint32_t)(SCB_AIRCR_VECTKEY_Msk | SCB_AIRCR_PRIGROUP_Msk)); /* clear bits to change               */
 80042f2:	f64f 00ff 	movw	r0, #63743	@ 0xf8ff
                (PriorityGroupTmp << SCB_AIRCR_PRIGROUP_Pos)  );              /* Insert write key and priority group */
 80042f6:	f403 63e0 	and.w	r3, r3, #1792	@ 0x700
  reg_value &= ~((uint32_t)(SCB_AIRCR_VECTKEY_Msk | SCB_AIRCR_PRIGROUP_Msk)); /* clear bits to change               */
 80042fa:	4002      	ands	r2, r0
                ((uint32_t)0x5FAUL << SCB_AIRCR_VECTKEY_Pos) |
 80042fc:	4313      	orrs	r3, r2
  reg_value  =  (reg_value                                   |
 80042fe:	f043 63bf 	orr.w	r3, r3, #100139008	@ 0x5f80000
 8004302:	f443 3300 	orr.w	r3, r3, #131072	@ 0x20000
  SCB->AIRCR =  reg_value;
 8004306:	60cb      	str	r3, [r1, #12]
  /* Check the parameters */
  assert_param(IS_NVIC_PRIORITY_GROUP(PriorityGroup));

  /* Set the PRIGROUP[10:8] bits according to the PriorityGroup parameter value */
  NVIC_SetPriorityGrouping(PriorityGroup);
}
 8004308:	4770      	bx	lr
 800430a:	bf00      	nop
 800430c:	e000ed00 	.word	0xe000ed00

08004310 <HAL_NVIC_SetPriority>:
  return ((uint32_t)((SCB->AIRCR & SCB_AIRCR_PRIGROUP_Msk) >> SCB_AIRCR_PRIGROUP_Pos));
 8004310:	4b1b      	ldr	r3, [pc, #108]	@ (8004380 <HAL_NVIC_SetPriority+0x70>)
 8004312:	68db      	ldr	r3, [r3, #12]
 8004314:	f3c3 2302 	ubfx	r3, r3, #8, #3
  *         This parameter can be a value between 0 and 15
  *         A lower priority value indicates a higher priority.
  * @retval None
  */
void HAL_NVIC_SetPriority(IRQn_Type IRQn, uint32_t PreemptPriority, uint32_t SubPriority)
{
 8004318:	b500      	push	{lr}
  PreemptPriorityBits = ((7UL - PriorityGroupTmp) > (uint32_t)(__NVIC_PRIO_BITS)) ? (uint32_t)(__NVIC_PRIO_BITS) : (uint32_t)(7UL - PriorityGroupTmp);
 800431a:	f1c3 0e07 	rsb	lr, r3, #7
 800431e:	f1be 0f04 	cmp.w	lr, #4
  SubPriorityBits     = ((PriorityGroupTmp + (uint32_t)(__NVIC_PRIO_BITS)) < (uint32_t)7UL) ? (uint32_t)0UL : (uint32_t)((PriorityGroupTmp - 7UL) + (uint32_t)(__NVIC_PRIO_BITS));
 8004322:	f103 0c04 	add.w	ip, r3, #4
  PreemptPriorityBits = ((7UL - PriorityGroupTmp) > (uint32_t)(__NVIC_PRIO_BITS)) ? (uint32_t)(__NVIC_PRIO_BITS) : (uint32_t)(7UL - PriorityGroupTmp);
 8004326:	bf28      	it	cs
 8004328:	f04f 0e04 	movcs.w	lr, #4
  SubPriorityBits     = ((PriorityGroupTmp + (uint32_t)(__NVIC_PRIO_BITS)) < (uint32_t)7UL) ? (uint32_t)0UL : (uint32_t)((PriorityGroupTmp - 7UL) + (uint32_t)(__NVIC_PRIO_BITS));
 800432c:	f1bc 0f06 	cmp.w	ip, #6
 8004330:	d91c      	bls.n	800436c <HAL_NVIC_SetPriority+0x5c>
 8004332:	f1a3 0c03 	sub.w	ip, r3, #3
           ((SubPriority     & (uint32_t)((1UL << (SubPriorityBits    )) - 1UL)))
 8004336:	f04f 33ff 	mov.w	r3, #4294967295
 800433a:	fa03 f30c 	lsl.w	r3, r3, ip
 800433e:	ea22 0203 	bic.w	r2, r2, r3
           ((PreemptPriority & (uint32_t)((1UL << (PreemptPriorityBits)) - 1UL)) << SubPriorityBits) |
 8004342:	f04f 33ff 	mov.w	r3, #4294967295
 8004346:	fa03 f30e 	lsl.w	r3, r3, lr
 800434a:	ea21 0303 	bic.w	r3, r1, r3
 800434e:	fa03 f30c 	lsl.w	r3, r3, ip
 8004352:	4313      	orrs	r3, r2
    NVIC->IP[((uint32_t)IRQn)]               = (uint8_t)((priority << (8U - __NVIC_PRIO_BITS)) & (uint32_t)0xFFUL);
 8004354:	011b      	lsls	r3, r3, #4
  if ((int32_t)(IRQn) >= 0)
 8004356:	2800      	cmp	r0, #0
    NVIC->IP[((uint32_t)IRQn)]               = (uint8_t)((priority << (8U - __NVIC_PRIO_BITS)) & (uint32_t)0xFFUL);
 8004358:	b2db      	uxtb	r3, r3
  if ((int32_t)(IRQn) >= 0)
 800435a:	db0a      	blt.n	8004372 <HAL_NVIC_SetPriority+0x62>
    NVIC->IP[((uint32_t)IRQn)]               = (uint8_t)((priority << (8U - __NVIC_PRIO_BITS)) & (uint32_t)0xFFUL);
 800435c:	f100 4060 	add.w	r0, r0, #3758096384	@ 0xe0000000
 8004360:	f500 4061 	add.w	r0, r0, #57600	@ 0xe100
 8004364:	f880 3300 	strb.w	r3, [r0, #768]	@ 0x300
  assert_param(IS_NVIC_PREEMPTION_PRIORITY(PreemptPriority));

  prioritygroup = NVIC_GetPriorityGrouping();

  NVIC_SetPriority(IRQn, NVIC_EncodePriority(prioritygroup, PreemptPriority, SubPriority));
}
 8004368:	f85d fb04 	ldr.w	pc, [sp], #4
 800436c:	2200      	movs	r2, #0
  SubPriorityBits     = ((PriorityGroupTmp + (uint32_t)(__NVIC_PRIO_BITS)) < (uint32_t)7UL) ? (uint32_t)0UL : (uint32_t)((PriorityGroupTmp - 7UL) + (uint32_t)(__NVIC_PRIO_BITS));
 800436e:	4694      	mov	ip, r2
 8004370:	e7e7      	b.n	8004342 <HAL_NVIC_SetPriority+0x32>
    SCB->SHP[(((uint32_t)IRQn) & 0xFUL)-4UL] = (uint8_t)((priority << (8U - __NVIC_PRIO_BITS)) & (uint32_t)0xFFUL);
 8004372:	4a04      	ldr	r2, [pc, #16]	@ (8004384 <HAL_NVIC_SetPriority+0x74>)
 8004374:	f000 000f 	and.w	r0, r0, #15
 8004378:	4402      	add	r2, r0
 800437a:	7613      	strb	r3, [r2, #24]
 800437c:	f85d fb04 	ldr.w	pc, [sp], #4
 8004380:	e000ed00 	.word	0xe000ed00
 8004384:	e000ecfc 	.word	0xe000ecfc

08004388 <HAL_NVIC_EnableIRQ>:
  if ((int32_t)(IRQn) >= 0)
 8004388:	2800      	cmp	r0, #0
 800438a:	db07      	blt.n	800439c <HAL_NVIC_EnableIRQ+0x14>
    NVIC->ISER[(((uint32_t)IRQn) >> 5UL)] = (uint32_t)(1UL << (((uint32_t)IRQn) & 0x1FUL));
 800438c:	4a04      	ldr	r2, [pc, #16]	@ (80043a0 <HAL_NVIC_EnableIRQ+0x18>)
 800438e:	0941      	lsrs	r1, r0, #5
 8004390:	2301      	movs	r3, #1
 8004392:	f000 001f 	and.w	r0, r0, #31
 8004396:	4083      	lsls	r3, r0
 8004398:	f842 3021 	str.w	r3, [r2, r1, lsl #2]
  /* Check the parameters */
  assert_param(IS_NVIC_DEVICE_IRQ(IRQn));
  
  /* Enable interrupt */
  NVIC_EnableIRQ(IRQn);
}
 800439c:	4770      	bx	lr
 800439e:	bf00      	nop
 80043a0:	e000e100 	.word	0xe000e100

080043a4 <HAL_SYSTICK_Config>:
           function <b>SysTick_Config</b> is not included. In this case, the file <b><i>device</i>.h</b>
           must contain a vendor-specific implementation of this function.
 */
__STATIC_INLINE uint32_t SysTick_Config(uint32_t ticks)
{
  if ((ticks - 1UL) > SysTick_LOAD_RELOAD_Msk)
 80043a4:	3801      	subs	r0, #1
 80043a6:	f1b0 7f80 	cmp.w	r0, #16777216	@ 0x1000000
 80043aa:	d301      	bcc.n	80043b0 <HAL_SYSTICK_Config+0xc>
  {
    return (1UL);                                                   /* Reload value impossible */
 80043ac:	2001      	movs	r0, #1
  *                  - 1  Function failed.
  */
uint32_t HAL_SYSTICK_Config(uint32_t TicksNumb)
{
   return SysTick_Config(TicksNumb);
}
 80043ae:	4770      	bx	lr
{
 80043b0:	b410      	push	{r4}
  }

  SysTick->LOAD  = (uint32_t)(ticks - 1UL);                         /* set reload register */
 80043b2:	f04f 23e0 	mov.w	r3, #3758153728	@ 0xe000e000
    SCB->SHP[(((uint32_t)IRQn) & 0xFUL)-4UL] = (uint8_t)((priority << (8U - __NVIC_PRIO_BITS)) & (uint32_t)0xFFUL);
 80043b6:	4c07      	ldr	r4, [pc, #28]	@ (80043d4 <HAL_SYSTICK_Config+0x30>)
  SysTick->LOAD  = (uint32_t)(ticks - 1UL);                         /* set reload register */
 80043b8:	6158      	str	r0, [r3, #20]
    SCB->SHP[(((uint32_t)IRQn) & 0xFUL)-4UL] = (uint8_t)((priority << (8U - __NVIC_PRIO_BITS)) & (uint32_t)0xFFUL);
 80043ba:	f04f 0cf0 	mov.w	ip, #240	@ 0xf0
 80043be:	f884 c023 	strb.w	ip, [r4, #35]	@ 0x23
  NVIC_SetPriority (SysTick_IRQn, (1UL << __NVIC_PRIO_BITS) - 1UL); /* set Priority for Systick Interrupt */
  SysTick->VAL   = 0UL;                                             /* Load the SysTick Counter Value */
 80043c2:	2200      	movs	r2, #0
  SysTick->CTRL  = SysTick_CTRL_CLKSOURCE_Msk |
 80043c4:	2107      	movs	r1, #7
                   SysTick_CTRL_TICKINT_Msk   |
                   SysTick_CTRL_ENABLE_Msk;                         /* Enable SysTick IRQ and SysTick Timer */
  return (0UL);                                                     /* Function successful */
 80043c6:	4610      	mov	r0, r2
  SysTick->VAL   = 0UL;                                             /* Load the SysTick Counter Value */
 80043c8:	619a      	str	r2, [r3, #24]
}
 80043ca:	f85d 4b04 	ldr.w	r4, [sp], #4
  SysTick->CTRL  = SysTick_CTRL_CLKSOURCE_Msk |
 80043ce:	6119      	str	r1, [r3, #16]
 80043d0:	4770      	bx	lr
 80043d2:	bf00      	nop
 80043d4:	e000ed00 	.word	0xe000ed00

080043d8 <HAL_DMA_Init>:
HAL_StatusTypeDef HAL_DMA_Init(DMA_HandleTypeDef *hdma)
{
  uint32_t tmp;

  /* Check the DMA handle allocation */
  if (hdma == NULL)
 80043d8:	2800      	cmp	r0, #0
 80043da:	d076      	beq.n	80044ca <HAL_DMA_Init+0xf2>
{
 80043dc:	b4f0      	push	{r4, r5, r6, r7}
  assert_param(IS_DMA_PRIORITY(hdma->Init.Priority));

  assert_param(IS_DMA_ALL_REQUEST(hdma->Init.Request));

  /* Compute the channel index */
  if ((uint32_t)(hdma->Instance) < (uint32_t)(DMA2_Channel1))
 80043de:	4a3c      	ldr	r2, [pc, #240]	@ (80044d0 <HAL_DMA_Init+0xf8>)
 80043e0:	6804      	ldr	r4, [r0, #0]
 80043e2:	4294      	cmp	r4, r2
 80043e4:	4603      	mov	r3, r0
 80043e6:	d95c      	bls.n	80044a2 <HAL_DMA_Init+0xca>
    hdma->DmaBaseAddress = DMA1;
  }
  else
  {
    /* DMA2 */
    hdma->ChannelIndex = (((uint32_t)hdma->Instance - (uint32_t)DMA2_Channel1) / ((uint32_t)DMA2_Channel2 - (uint32_t)DMA2_Channel1)) << 2;
 80043e8:	493a      	ldr	r1, [pc, #232]	@ (80044d4 <HAL_DMA_Init+0xfc>)
 80043ea:	4a3b      	ldr	r2, [pc, #236]	@ (80044d8 <HAL_DMA_Init+0x100>)
    hdma->DmaBaseAddress = DMA2;
 80043ec:	483b      	ldr	r0, [pc, #236]	@ (80044dc <HAL_DMA_Init+0x104>)
    hdma->ChannelIndex = (((uint32_t)hdma->Instance - (uint32_t)DMA2_Channel1) / ((uint32_t)DMA2_Channel2 - (uint32_t)DMA2_Channel1)) << 2;
 80043ee:	4421      	add	r1, r4
 80043f0:	fba2 2101 	umull	r2, r1, r2, r1
 80043f4:	0909      	lsrs	r1, r1, #4
 80043f6:	0089      	lsls	r1, r1, #2
  }

  /* Change DMA peripheral state */
  hdma->State = HAL_DMA_STATE_BUSY;
 80043f8:	2202      	movs	r2, #2
  tmp &= ((uint32_t)~(DMA_CCR_PL    | DMA_CCR_MSIZE  | DMA_CCR_PSIZE  |
                      DMA_CCR_MINC  | DMA_CCR_PINC   | DMA_CCR_CIRC   |
                      DMA_CCR_DIR   | DMA_CCR_MEM2MEM));

  /* Prepare the DMA Channel configuration */
  tmp |=  hdma->Init.Direction        |
 80043fa:	689d      	ldr	r5, [r3, #8]
  hdma->State = HAL_DMA_STATE_BUSY;
 80043fc:	f883 2025 	strb.w	r2, [r3, #37]	@ 0x25
  tmp |=  hdma->Init.Direction        |
 8004400:	68da      	ldr	r2, [r3, #12]
#else
    DMAMUX1_ChannelBase = DMAMUX1_Channel7;
#endif /* STM32G4x1xx) */
  }
  dmamux_base_addr = (uint32_t)DMAMUX1_ChannelBase;
  channel_number = (((uint32_t)hdma->Instance & 0xFFU) - 8U) / 20U;
 8004402:	4e35      	ldr	r6, [pc, #212]	@ (80044d8 <HAL_DMA_Init+0x100>)
  if ((uint32_t)hdma->Instance < (uint32_t)DMA2_Channel1)
 8004404:	4f36      	ldr	r7, [pc, #216]	@ (80044e0 <HAL_DMA_Init+0x108>)
 8004406:	e9c3 0110 	strd	r0, r1, [r3, #64]	@ 0x40
          hdma->Init.PeriphInc           | hdma->Init.MemInc           |
 800440a:	6918      	ldr	r0, [r3, #16]
  tmp |=  hdma->Init.Direction        |
 800440c:	432a      	orrs	r2, r5
          hdma->Init.PeriphInc           | hdma->Init.MemInc           |
 800440e:	4302      	orrs	r2, r0
 8004410:	6958      	ldr	r0, [r3, #20]
 8004412:	4302      	orrs	r2, r0
          hdma->Init.PeriphDataAlignment | hdma->Init.MemDataAlignment |
 8004414:	6998      	ldr	r0, [r3, #24]
 8004416:	4302      	orrs	r2, r0
  tmp = hdma->Instance->CCR;
 8004418:	6820      	ldr	r0, [r4, #0]
  tmp &= ((uint32_t)~(DMA_CCR_PL    | DMA_CCR_MSIZE  | DMA_CCR_PSIZE  |
 800441a:	f420 4cff 	bic.w	ip, r0, #32640	@ 0x7f80
          hdma->Init.PeriphDataAlignment | hdma->Init.MemDataAlignment |
 800441e:	69d8      	ldr	r0, [r3, #28]
 8004420:	4302      	orrs	r2, r0
  channel_number = (((uint32_t)hdma->Instance & 0xFFU) - 8U) / 20U;
 8004422:	b2e0      	uxtb	r0, r4
 8004424:	3808      	subs	r0, #8
 8004426:	fba6 6000 	umull	r6, r0, r6, r0
          hdma->Init.Mode                | hdma->Init.Priority;
 800442a:	6a1e      	ldr	r6, [r3, #32]
  tmp &= ((uint32_t)~(DMA_CCR_PL    | DMA_CCR_MSIZE  | DMA_CCR_PSIZE  |
 800442c:	f02c 0c70 	bic.w	ip, ip, #112	@ 0x70
          hdma->Init.Mode                | hdma->Init.Priority;
 8004430:	4332      	orrs	r2, r6
  tmp |=  hdma->Init.Direction        |
 8004432:	ea42 020c 	orr.w	r2, r2, ip
  hdma->Instance->CCR = tmp;
 8004436:	6022      	str	r2, [r4, #0]
  if ((uint32_t)hdma->Instance < (uint32_t)DMA2_Channel1)
 8004438:	4e25      	ldr	r6, [pc, #148]	@ (80044d0 <HAL_DMA_Init+0xf8>)
 800443a:	4a2a      	ldr	r2, [pc, #168]	@ (80044e4 <HAL_DMA_Init+0x10c>)
  hdma->DMAmuxChannel = (DMAMUX_Channel_TypeDef *)(uint32_t)(dmamux_base_addr + ((hdma->ChannelIndex >> 2U) * ((uint32_t)DMAMUX1_Channel1 - (uint32_t)DMAMUX1_Channel0)));
  hdma->DMAmuxChannelStatus = DMAMUX1_ChannelStatus;
  hdma->DMAmuxChannelStatusMask = 1UL << (channel_number & 0x1FU);
 800443c:	f3c0 1004 	ubfx	r0, r0, #4, #5
  if ((uint32_t)hdma->Instance < (uint32_t)DMA2_Channel1)
 8004440:	42b4      	cmp	r4, r6
 8004442:	bf98      	it	ls
 8004444:	463a      	movls	r2, r7
  hdma->DMAmuxChannelStatus = DMAMUX1_ChannelStatus;
 8004446:	f206 4679 	addw	r6, r6, #1145	@ 0x479
  hdma->DMAmuxChannelStatusMask = 1UL << (channel_number & 0x1FU);
 800444a:	2401      	movs	r4, #1
 800444c:	fa04 f000 	lsl.w	r0, r4, r0
  hdma->DMAmuxChannelStatus = DMAMUX1_ChannelStatus;
 8004450:	64de      	str	r6, [r3, #76]	@ 0x4c
  if (hdma->Init.Direction == DMA_MEMORY_TO_MEMORY)
 8004452:	f5b5 4f80 	cmp.w	r5, #16384	@ 0x4000
  hdma->DMAmuxChannel = (DMAMUX_Channel_TypeDef *)(uint32_t)(dmamux_base_addr + ((hdma->ChannelIndex >> 2U) * ((uint32_t)DMAMUX1_Channel1 - (uint32_t)DMAMUX1_Channel0)));
 8004456:	eb01 0602 	add.w	r6, r1, r2
  hdma->DMAmuxChannelStatusMask = 1UL << (channel_number & 0x1FU);
 800445a:	6518      	str	r0, [r3, #80]	@ 0x50
  hdma->DMAmuxChannel = (DMAMUX_Channel_TypeDef *)(uint32_t)(dmamux_base_addr + ((hdma->ChannelIndex >> 2U) * ((uint32_t)DMAMUX1_Channel1 - (uint32_t)DMAMUX1_Channel0)));
 800445c:	649e      	str	r6, [r3, #72]	@ 0x48
 800445e:	ea4f 0191 	mov.w	r1, r1, lsr #2
  if (hdma->Init.Direction == DMA_MEMORY_TO_MEMORY)
 8004462:	d027      	beq.n	80044b4 <HAL_DMA_Init+0xdc>
  hdma->DMAmuxChannel->CCR = (hdma->Init.Request & DMAMUX_CxCR_DMAREQ_ID);
 8004464:	685e      	ldr	r6, [r3, #4]
 8004466:	b2f5      	uxtb	r5, r6
  if (((hdma->Init.Request >  0U) && (hdma->Init.Request <= DMA_REQUEST_GENERATOR3)))
 8004468:	3e01      	subs	r6, #1
 800446a:	2e03      	cmp	r6, #3
  hdma->DMAmuxChannel->CCR = (hdma->Init.Request & DMAMUX_CxCR_DMAREQ_ID);
 800446c:	f842 5021 	str.w	r5, [r2, r1, lsl #2]
  hdma->DMAmuxChannelStatus->CFR = hdma->DMAmuxChannelStatusMask;
 8004470:	f8c7 0084 	str.w	r0, [r7, #132]	@ 0x84
  if (((hdma->Init.Request >  0U) && (hdma->Init.Request <= DMA_REQUEST_GENERATOR3)))
 8004474:	d824      	bhi.n	80044c0 <HAL_DMA_Init+0xe8>
static void DMA_CalcDMAMUXRequestGenBaseAndMask(DMA_HandleTypeDef *hdma)
{
  uint32_t request =  hdma->Init.Request & DMAMUX_CxCR_DMAREQ_ID;

  /* DMA Channels are connected to DMAMUX1 request generator blocks*/
  hdma->DMAmuxRequestGen = (DMAMUX_RequestGen_TypeDef *)((uint32_t)(((uint32_t)DMAMUX1_RequestGenerator0) + ((request - 1U) * 4U)));
 8004476:	4a1c      	ldr	r2, [pc, #112]	@ (80044e8 <HAL_DMA_Init+0x110>)

  hdma->DMAmuxRequestGenStatus = DMAMUX1_RequestGenStatus;
 8004478:	481c      	ldr	r0, [pc, #112]	@ (80044ec <HAL_DMA_Init+0x114>)
  hdma->DMAmuxRequestGen = (DMAMUX_RequestGen_TypeDef *)((uint32_t)(((uint32_t)DMAMUX1_RequestGenerator0) + ((request - 1U) * 4U)));
 800447a:	442a      	add	r2, r5
 800447c:	0092      	lsls	r2, r2, #2

  hdma->DMAmuxRequestGenStatusMask = 1UL << ((request - 1U) & 0x1FU);
 800447e:	3d01      	subs	r5, #1
 8004480:	40ac      	lsls	r4, r5
    hdma->DMAmuxRequestGen->RGCR = 0U;
 8004482:	2100      	movs	r1, #0
  hdma->DMAmuxRequestGenStatus = DMAMUX1_RequestGenStatus;
 8004484:	e9c3 2015 	strd	r2, r0, [r3, #84]	@ 0x54
  hdma->DMAmuxRequestGenStatusMask = 1UL << ((request - 1U) & 0x1FU);
 8004488:	65dc      	str	r4, [r3, #92]	@ 0x5c
    hdma->DMAmuxRequestGen->RGCR = 0U;
 800448a:	6011      	str	r1, [r2, #0]
    hdma->DMAmuxRequestGenStatus->RGCFR = hdma->DMAmuxRequestGenStatusMask;
 800448c:	4a18      	ldr	r2, [pc, #96]	@ (80044f0 <HAL_DMA_Init+0x118>)
 800448e:	6454      	str	r4, [r2, #68]	@ 0x44
  hdma->ErrorCode = HAL_DMA_ERROR_NONE;
 8004490:	2000      	movs	r0, #0
  hdma->State  = HAL_DMA_STATE_READY;
 8004492:	2201      	movs	r2, #1
  hdma->ErrorCode = HAL_DMA_ERROR_NONE;
 8004494:	63d8      	str	r0, [r3, #60]	@ 0x3c
  hdma->Lock = HAL_UNLOCKED;
 8004496:	f883 0024 	strb.w	r0, [r3, #36]	@ 0x24
  hdma->State  = HAL_DMA_STATE_READY;
 800449a:	f883 2025 	strb.w	r2, [r3, #37]	@ 0x25
}
 800449e:	bcf0      	pop	{r4, r5, r6, r7}
 80044a0:	4770      	bx	lr
    hdma->ChannelIndex = (((uint32_t)hdma->Instance - (uint32_t)DMA1_Channel1) / ((uint32_t)DMA1_Channel2 - (uint32_t)DMA1_Channel1)) << 2;
 80044a2:	4914      	ldr	r1, [pc, #80]	@ (80044f4 <HAL_DMA_Init+0x11c>)
 80044a4:	4a0c      	ldr	r2, [pc, #48]	@ (80044d8 <HAL_DMA_Init+0x100>)
    hdma->DmaBaseAddress = DMA1;
 80044a6:	4814      	ldr	r0, [pc, #80]	@ (80044f8 <HAL_DMA_Init+0x120>)
    hdma->ChannelIndex = (((uint32_t)hdma->Instance - (uint32_t)DMA1_Channel1) / ((uint32_t)DMA1_Channel2 - (uint32_t)DMA1_Channel1)) << 2;
 80044a8:	4421      	add	r1, r4
 80044aa:	fba2 2101 	umull	r2, r1, r2, r1
 80044ae:	0909      	lsrs	r1, r1, #4
 80044b0:	0089      	lsls	r1, r1, #2
    hdma->DmaBaseAddress = DMA1;
 80044b2:	e7a1      	b.n	80043f8 <HAL_DMA_Init+0x20>
    hdma->Init.Request = DMA_REQUEST_MEM2MEM;
 80044b4:	2400      	movs	r4, #0
 80044b6:	605c      	str	r4, [r3, #4]
  hdma->DMAmuxChannel->CCR = (hdma->Init.Request & DMAMUX_CxCR_DMAREQ_ID);
 80044b8:	f842 4021 	str.w	r4, [r2, r1, lsl #2]
  hdma->DMAmuxChannelStatus->CFR = hdma->DMAmuxChannelStatusMask;
 80044bc:	f8c7 0084 	str.w	r0, [r7, #132]	@ 0x84
    hdma->DMAmuxRequestGen = 0U;
 80044c0:	2200      	movs	r2, #0
 80044c2:	e9c3 2215 	strd	r2, r2, [r3, #84]	@ 0x54
    hdma->DMAmuxRequestGenStatusMask = 0U;
 80044c6:	65da      	str	r2, [r3, #92]	@ 0x5c
 80044c8:	e7e2      	b.n	8004490 <HAL_DMA_Init+0xb8>
    return HAL_ERROR;
 80044ca:	2001      	movs	r0, #1
}
 80044cc:	4770      	bx	lr
 80044ce:	bf00      	nop
 80044d0:	40020407 	.word	0x40020407
 80044d4:	bffdfbf8 	.word	0xbffdfbf8
 80044d8:	cccccccd 	.word	0xcccccccd
 80044dc:	40020400 	.word	0x40020400
 80044e0:	40020800 	.word	0x40020800
 80044e4:	40020820 	.word	0x40020820
 80044e8:	1000823f 	.word	0x1000823f
 80044ec:	40020940 	.word	0x40020940
 80044f0:	40020900 	.word	0x40020900
 80044f4:	bffdfff8 	.word	0xbffdfff8
 80044f8:	40020000 	.word	0x40020000

080044fc <HAL_DMA_Start_IT>:
{
 80044fc:	b4f0      	push	{r4, r5, r6, r7}
  __HAL_LOCK(hdma);
 80044fe:	f890 4024 	ldrb.w	r4, [r0, #36]	@ 0x24
 8004502:	2c01      	cmp	r4, #1
 8004504:	d009      	beq.n	800451a <HAL_DMA_Start_IT+0x1e>
 8004506:	2401      	movs	r4, #1
 8004508:	f880 4024 	strb.w	r4, [r0, #36]	@ 0x24
  if (HAL_DMA_STATE_READY == hdma->State)
 800450c:	f890 4025 	ldrb.w	r4, [r0, #37]	@ 0x25
 8004510:	2c01      	cmp	r4, #1
 8004512:	d005      	beq.n	8004520 <HAL_DMA_Start_IT+0x24>
    __HAL_UNLOCK(hdma);
 8004514:	2300      	movs	r3, #0
 8004516:	f880 3024 	strb.w	r3, [r0, #36]	@ 0x24
  __HAL_LOCK(hdma);
 800451a:	2002      	movs	r0, #2
}
 800451c:	bcf0      	pop	{r4, r5, r6, r7}
 800451e:	4770      	bx	lr
    hdma->State = HAL_DMA_STATE_BUSY;
 8004520:	2402      	movs	r4, #2
 8004522:	f880 4025 	strb.w	r4, [r0, #37]	@ 0x25
    hdma->ErrorCode = HAL_DMA_ERROR_NONE;
 8004526:	2400      	movs	r4, #0
 8004528:	63c4      	str	r4, [r0, #60]	@ 0x3c
    __HAL_DMA_DISABLE(hdma);
 800452a:	6804      	ldr	r4, [r0, #0]
  hdma->DMAmuxChannelStatus->CFR = hdma->DMAmuxChannelStatusMask;
 800452c:	6cc6      	ldr	r6, [r0, #76]	@ 0x4c
    __HAL_DMA_DISABLE(hdma);
 800452e:	6825      	ldr	r5, [r4, #0]
 8004530:	f025 0501 	bic.w	r5, r5, #1
 8004534:	6025      	str	r5, [r4, #0]
  hdma->DMAmuxChannelStatus->CFR = hdma->DMAmuxChannelStatusMask;
 8004536:	e9d0 7514 	ldrd	r7, r5, [r0, #80]	@ 0x50
 800453a:	6077      	str	r7, [r6, #4]
  if (hdma->DMAmuxRequestGen != 0U)
 800453c:	b115      	cbz	r5, 8004544 <HAL_DMA_Start_IT+0x48>
    hdma->DMAmuxRequestGenStatus->RGCFR = hdma->DMAmuxRequestGenStatusMask;
 800453e:	e9d0 6716 	ldrd	r6, r7, [r0, #88]	@ 0x58
 8004542:	6077      	str	r7, [r6, #4]
  hdma->DmaBaseAddress->IFCR = (DMA_ISR_GIF1 << (hdma->ChannelIndex & 0x1FU));
 8004544:	6c46      	ldr	r6, [r0, #68]	@ 0x44
 8004546:	6c07      	ldr	r7, [r0, #64]	@ 0x40
 8004548:	f006 0c1f 	and.w	ip, r6, #31
 800454c:	2601      	movs	r6, #1
 800454e:	fa06 f60c 	lsl.w	r6, r6, ip
 8004552:	607e      	str	r6, [r7, #4]
  hdma->Instance->CNDTR = DataLength;
 8004554:	6063      	str	r3, [r4, #4]
  if ((hdma->Init.Direction) == DMA_MEMORY_TO_PERIPH)
 8004556:	6883      	ldr	r3, [r0, #8]
 8004558:	2b10      	cmp	r3, #16
    if (NULL != hdma->XferHalfCpltCallback)
 800455a:	6b03      	ldr	r3, [r0, #48]	@ 0x30
    hdma->Instance->CPAR = DstAddress;
 800455c:	bf0b      	itete	eq
 800455e:	60a2      	streq	r2, [r4, #8]
    hdma->Instance->CPAR = SrcAddress;
 8004560:	60a1      	strne	r1, [r4, #8]
    hdma->Instance->CMAR = SrcAddress;
 8004562:	60e1      	streq	r1, [r4, #12]
    hdma->Instance->CMAR = DstAddress;
 8004564:	60e2      	strne	r2, [r4, #12]
    if (NULL != hdma->XferHalfCpltCallback)
 8004566:	b1bb      	cbz	r3, 8004598 <HAL_DMA_Start_IT+0x9c>
      __HAL_DMA_ENABLE_IT(hdma, (DMA_IT_TC | DMA_IT_HT | DMA_IT_TE));
 8004568:	6823      	ldr	r3, [r4, #0]
 800456a:	f043 030e 	orr.w	r3, r3, #14
 800456e:	6023      	str	r3, [r4, #0]
    if ((hdma->DMAmuxChannel->CCR & DMAMUX_CxCR_SE) != 0U)
 8004570:	6c83      	ldr	r3, [r0, #72]	@ 0x48
 8004572:	681a      	ldr	r2, [r3, #0]
 8004574:	03d2      	lsls	r2, r2, #15
 8004576:	d503      	bpl.n	8004580 <HAL_DMA_Start_IT+0x84>
      hdma->DMAmuxChannel->CCR |= DMAMUX_CxCR_SOIE;
 8004578:	681a      	ldr	r2, [r3, #0]
 800457a:	f442 7280 	orr.w	r2, r2, #256	@ 0x100
 800457e:	601a      	str	r2, [r3, #0]
    if (hdma->DMAmuxRequestGen != 0U)
 8004580:	b11d      	cbz	r5, 800458a <HAL_DMA_Start_IT+0x8e>
      hdma->DMAmuxRequestGen->RGCR |= DMAMUX_RGxCR_OIE;
 8004582:	682b      	ldr	r3, [r5, #0]
 8004584:	f443 7380 	orr.w	r3, r3, #256	@ 0x100
 8004588:	602b      	str	r3, [r5, #0]
    __HAL_DMA_ENABLE(hdma);
 800458a:	6823      	ldr	r3, [r4, #0]
 800458c:	f043 0301 	orr.w	r3, r3, #1
  HAL_StatusTypeDef status = HAL_OK;
 8004590:	2000      	movs	r0, #0
    __HAL_DMA_ENABLE(hdma);
 8004592:	6023      	str	r3, [r4, #0]
}
 8004594:	bcf0      	pop	{r4, r5, r6, r7}
 8004596:	4770      	bx	lr
      __HAL_DMA_DISABLE_IT(hdma, DMA_IT_HT);
 8004598:	6823      	ldr	r3, [r4, #0]
 800459a:	f023 0304 	bic.w	r3, r3, #4
 800459e:	6023      	str	r3, [r4, #0]
      __HAL_DMA_ENABLE_IT(hdma, (DMA_IT_TC | DMA_IT_TE));
 80045a0:	6823      	ldr	r3, [r4, #0]
 80045a2:	f043 030a 	orr.w	r3, r3, #10
 80045a6:	6023      	str	r3, [r4, #0]
 80045a8:	e7e2      	b.n	8004570 <HAL_DMA_Start_IT+0x74>
 80045aa:	bf00      	nop

080045ac <HAL_DMA_IRQHandler>:
{
 80045ac:	b470      	push	{r4, r5, r6}
  if ((0U != (flag_it & ((uint32_t)DMA_FLAG_HT1 << (hdma->ChannelIndex & 0x1FU)))) && (0U != (source_it & DMA_IT_HT)))
 80045ae:	6c43      	ldr	r3, [r0, #68]	@ 0x44
  uint32_t flag_it = hdma->DmaBaseAddress->ISR;
 80045b0:	6c06      	ldr	r6, [r0, #64]	@ 0x40
  uint32_t source_it = hdma->Instance->CCR;
 80045b2:	6805      	ldr	r5, [r0, #0]
  uint32_t flag_it = hdma->DmaBaseAddress->ISR;
 80045b4:	6831      	ldr	r1, [r6, #0]
  uint32_t source_it = hdma->Instance->CCR;
 80045b6:	682c      	ldr	r4, [r5, #0]
  if ((0U != (flag_it & ((uint32_t)DMA_FLAG_HT1 << (hdma->ChannelIndex & 0x1FU)))) && (0U != (source_it & DMA_IT_HT)))
 80045b8:	f003 031f 	and.w	r3, r3, #31
 80045bc:	2204      	movs	r2, #4
 80045be:	409a      	lsls	r2, r3
 80045c0:	420a      	tst	r2, r1
 80045c2:	d00e      	beq.n	80045e2 <HAL_DMA_IRQHandler+0x36>
 80045c4:	f014 0f04 	tst.w	r4, #4
 80045c8:	d00b      	beq.n	80045e2 <HAL_DMA_IRQHandler+0x36>
    if ((hdma->Instance->CCR & DMA_CCR_CIRC) == 0U)
 80045ca:	682b      	ldr	r3, [r5, #0]
 80045cc:	069b      	lsls	r3, r3, #26
 80045ce:	d403      	bmi.n	80045d8 <HAL_DMA_IRQHandler+0x2c>
      __HAL_DMA_DISABLE_IT(hdma, DMA_IT_HT);
 80045d0:	682b      	ldr	r3, [r5, #0]
 80045d2:	f023 0304 	bic.w	r3, r3, #4
 80045d6:	602b      	str	r3, [r5, #0]
    if (hdma->XferHalfCpltCallback != NULL)
 80045d8:	6b03      	ldr	r3, [r0, #48]	@ 0x30
    hdma->DmaBaseAddress->IFCR = ((uint32_t)DMA_ISR_HTIF1 << (hdma->ChannelIndex & 0x1FU));
 80045da:	6072      	str	r2, [r6, #4]
    if (hdma->XferHalfCpltCallback != NULL)
 80045dc:	b1cb      	cbz	r3, 8004612 <HAL_DMA_IRQHandler+0x66>
}
 80045de:	bc70      	pop	{r4, r5, r6}
      hdma->XferCpltCallback(hdma);
 80045e0:	4718      	bx	r3
  else if ((0U != (flag_it & ((uint32_t)DMA_FLAG_TC1 << (hdma->ChannelIndex & 0x1FU))))
 80045e2:	2202      	movs	r2, #2
 80045e4:	409a      	lsls	r2, r3
 80045e6:	420a      	tst	r2, r1
 80045e8:	d015      	beq.n	8004616 <HAL_DMA_IRQHandler+0x6a>
           && (0U != (source_it & DMA_IT_TC)))
 80045ea:	f014 0f02 	tst.w	r4, #2
 80045ee:	d012      	beq.n	8004616 <HAL_DMA_IRQHandler+0x6a>
    if ((hdma->Instance->CCR & DMA_CCR_CIRC) == 0U)
 80045f0:	682b      	ldr	r3, [r5, #0]
 80045f2:	0699      	lsls	r1, r3, #26
 80045f4:	d406      	bmi.n	8004604 <HAL_DMA_IRQHandler+0x58>
      __HAL_DMA_DISABLE_IT(hdma, DMA_IT_TE | DMA_IT_TC);
 80045f6:	682b      	ldr	r3, [r5, #0]
 80045f8:	f023 030a 	bic.w	r3, r3, #10
 80045fc:	602b      	str	r3, [r5, #0]
      hdma->State = HAL_DMA_STATE_READY;
 80045fe:	2301      	movs	r3, #1
 8004600:	f880 3025 	strb.w	r3, [r0, #37]	@ 0x25
    if (hdma->XferCpltCallback != NULL)
 8004604:	6ac3      	ldr	r3, [r0, #44]	@ 0x2c
    hdma->DmaBaseAddress->IFCR = ((uint32_t)DMA_ISR_TCIF1 << (hdma->ChannelIndex & 0x1FU));
 8004606:	6072      	str	r2, [r6, #4]
    __HAL_UNLOCK(hdma);
 8004608:	2100      	movs	r1, #0
 800460a:	f880 1024 	strb.w	r1, [r0, #36]	@ 0x24
    if (hdma->XferCpltCallback != NULL)
 800460e:	2b00      	cmp	r3, #0
 8004610:	d1e5      	bne.n	80045de <HAL_DMA_IRQHandler+0x32>
}
 8004612:	bc70      	pop	{r4, r5, r6}
 8004614:	4770      	bx	lr
  else if ((0U != (flag_it & ((uint32_t)DMA_FLAG_TE1 << (hdma->ChannelIndex & 0x1FU))))
 8004616:	2208      	movs	r2, #8
 8004618:	409a      	lsls	r2, r3
 800461a:	420a      	tst	r2, r1
 800461c:	d0f9      	beq.n	8004612 <HAL_DMA_IRQHandler+0x66>
           && (0U != (source_it & DMA_IT_TE)))
 800461e:	0722      	lsls	r2, r4, #28
 8004620:	d5f7      	bpl.n	8004612 <HAL_DMA_IRQHandler+0x66>
    __HAL_DMA_DISABLE_IT(hdma, (DMA_IT_TC | DMA_IT_HT | DMA_IT_TE));
 8004622:	682a      	ldr	r2, [r5, #0]
    if (hdma->XferErrorCallback != NULL)
 8004624:	6b41      	ldr	r1, [r0, #52]	@ 0x34
    __HAL_DMA_DISABLE_IT(hdma, (DMA_IT_TC | DMA_IT_HT | DMA_IT_TE));
 8004626:	f022 020e 	bic.w	r2, r2, #14
 800462a:	602a      	str	r2, [r5, #0]
    hdma->DmaBaseAddress->IFCR = ((uint32_t)DMA_ISR_GIF1 << (hdma->ChannelIndex & 0x1FU));
 800462c:	2201      	movs	r2, #1
 800462e:	fa02 f303 	lsl.w	r3, r2, r3
    __HAL_UNLOCK(hdma);
 8004632:	2400      	movs	r4, #0
    hdma->DmaBaseAddress->IFCR = ((uint32_t)DMA_ISR_GIF1 << (hdma->ChannelIndex & 0x1FU));
 8004634:	6073      	str	r3, [r6, #4]
    hdma->ErrorCode = HAL_DMA_ERROR_TE;
 8004636:	63c2      	str	r2, [r0, #60]	@ 0x3c
    __HAL_UNLOCK(hdma);
 8004638:	f880 4024 	strb.w	r4, [r0, #36]	@ 0x24
    hdma->State = HAL_DMA_STATE_READY;
 800463c:	f880 2025 	strb.w	r2, [r0, #37]	@ 0x25
    if (hdma->XferErrorCallback != NULL)
 8004640:	2900      	cmp	r1, #0
 8004642:	d0e6      	beq.n	8004612 <HAL_DMA_IRQHandler+0x66>
}
 8004644:	bc70      	pop	{r4, r5, r6}
      hdma->XferErrorCallback(hdma);
 8004646:	4708      	bx	r1

08004648 <HAL_FLASH_Program>:
  *         are stored the data for the row fast program.
  *
  * @retval HAL_Status
  */
HAL_StatusTypeDef HAL_FLASH_Program(uint32_t TypeProgram, uint32_t Address, uint64_t Data)
{
 8004648:	e92d 47f0 	stmdb	sp!, {r4, r5, r6, r7, r8, r9, sl, lr}

  /* Check the parameters */
  assert_param(IS_FLASH_TYPEPROGRAM(TypeProgram));

  /* Process Locked */
  __HAL_LOCK(&pFlash);
 800464c:	f8df 8164 	ldr.w	r8, [pc, #356]	@ 80047b4 <HAL_FLASH_Program+0x16c>
{
 8004650:	469a      	mov	sl, r3
  __HAL_LOCK(&pFlash);
 8004652:	f898 3000 	ldrb.w	r3, [r8]
 8004656:	2b01      	cmp	r3, #1
 8004658:	d05d      	beq.n	8004716 <HAL_FLASH_Program+0xce>
 800465a:	2301      	movs	r3, #1
 800465c:	4681      	mov	r9, r0
 800465e:	460f      	mov	r7, r1
 8004660:	4614      	mov	r4, r2
 8004662:	f888 3000 	strb.w	r3, [r8]
{
  /* Wait for the FLASH operation to complete by polling on BUSY flag to be reset.
     Even if the FLASH operation fails, the BUSY flag will be reset and an error
     flag will be set */

  uint32_t tickstart = HAL_GetTick();
 8004666:	f7ff f8bb 	bl	80037e0 <HAL_GetTick>
  uint32_t error;

  while (__HAL_FLASH_GET_FLAG(FLASH_FLAG_BSY))
 800466a:	4e51      	ldr	r6, [pc, #324]	@ (80047b0 <HAL_FLASH_Program+0x168>)
  uint32_t tickstart = HAL_GetTick();
 800466c:	4605      	mov	r5, r0
  while (__HAL_FLASH_GET_FLAG(FLASH_FLAG_BSY))
 800466e:	e006      	b.n	800467e <HAL_FLASH_Program+0x36>
  {
    if ((HAL_GetTick() - tickstart) > Timeout)
 8004670:	f7ff f8b6 	bl	80037e0 <HAL_GetTick>
 8004674:	eba0 0c05 	sub.w	ip, r0, r5
 8004678:	f5bc 7f7a 	cmp.w	ip, #1000	@ 0x3e8
 800467c:	d844      	bhi.n	8004708 <HAL_FLASH_Program+0xc0>
  while (__HAL_FLASH_GET_FLAG(FLASH_FLAG_BSY))
 800467e:	6933      	ldr	r3, [r6, #16]
 8004680:	03d8      	lsls	r0, r3, #15
 8004682:	d4f5      	bmi.n	8004670 <HAL_FLASH_Program+0x28>
      return HAL_TIMEOUT;
    }
  }

  /* Check FLASH operation error flags */
  error = (FLASH->SR & FLASH_FLAG_SR_ERRORS);
 8004684:	6935      	ldr	r5, [r6, #16]
 8004686:	f24c 33fa 	movw	r3, #50170	@ 0xc3fa
  if (error != 0u)
 800468a:	401d      	ands	r5, r3
 800468c:	d155      	bne.n	800473a <HAL_FLASH_Program+0xf2>

    return HAL_ERROR;
  }

  /* Check FLASH End of Operation flag  */
  if (__HAL_FLASH_GET_FLAG(FLASH_FLAG_EOP))
 800468e:	6933      	ldr	r3, [r6, #16]
    if(READ_BIT(FLASH->ACR, FLASH_ACR_DCEN) != 0U)
 8004690:	4a47      	ldr	r2, [pc, #284]	@ (80047b0 <HAL_FLASH_Program+0x168>)
  if (__HAL_FLASH_GET_FLAG(FLASH_FLAG_EOP))
 8004692:	07d9      	lsls	r1, r3, #31
  {
    /* Clear FLASH End of Operation pending bit */
    __HAL_FLASH_CLEAR_FLAG(FLASH_FLAG_EOP);
 8004694:	bf44      	itt	mi
 8004696:	2301      	movmi	r3, #1
 8004698:	6133      	strmi	r3, [r6, #16]
    pFlash.ErrorCode = HAL_FLASH_ERROR_NONE;
 800469a:	2300      	movs	r3, #0
 800469c:	f8c8 3004 	str.w	r3, [r8, #4]
    if(READ_BIT(FLASH->ACR, FLASH_ACR_DCEN) != 0U)
 80046a0:	6813      	ldr	r3, [r2, #0]
 80046a2:	f413 6380 	ands.w	r3, r3, #1024	@ 0x400
      __HAL_FLASH_DATA_CACHE_DISABLE();
 80046a6:	bf1f      	itttt	ne
 80046a8:	6813      	ldrne	r3, [r2, #0]
 80046aa:	f423 6380 	bicne.w	r3, r3, #1024	@ 0x400
 80046ae:	6013      	strne	r3, [r2, #0]
      pFlash.CacheToReactivate = FLASH_CACHE_DCACHE_ENABLED;
 80046b0:	2302      	movne	r3, #2
      pFlash.CacheToReactivate = FLASH_CACHE_DISABLED;
 80046b2:	f888 301c 	strb.w	r3, [r8, #28]
    if (TypeProgram == FLASH_TYPEPROGRAM_DOUBLEWORD)
 80046b6:	f1b9 0f00 	cmp.w	r9, #0
 80046ba:	d030      	beq.n	800471e <HAL_FLASH_Program+0xd6>
    else if ((TypeProgram == FLASH_TYPEPROGRAM_FAST) || (TypeProgram == FLASH_TYPEPROGRAM_FAST_AND_LAST))
 80046bc:	f109 33ff 	add.w	r3, r9, #4294967295
 80046c0:	2b01      	cmp	r3, #1
 80046c2:	d942      	bls.n	800474a <HAL_FLASH_Program+0x102>
  uint32_t tickstart = HAL_GetTick();
 80046c4:	f7ff f88c 	bl	80037e0 <HAL_GetTick>
  while (__HAL_FLASH_GET_FLAG(FLASH_FLAG_BSY))
 80046c8:	4e39      	ldr	r6, [pc, #228]	@ (80047b0 <HAL_FLASH_Program+0x168>)
  uint32_t tickstart = HAL_GetTick();
 80046ca:	4604      	mov	r4, r0
  while (__HAL_FLASH_GET_FLAG(FLASH_FLAG_BSY))
 80046cc:	e005      	b.n	80046da <HAL_FLASH_Program+0x92>
    if ((HAL_GetTick() - tickstart) > Timeout)
 80046ce:	f7ff f887 	bl	80037e0 <HAL_GetTick>
 80046d2:	1b00      	subs	r0, r0, r4
 80046d4:	f5b0 7f7a 	cmp.w	r0, #1000	@ 0x3e8
 80046d8:	d82d      	bhi.n	8004736 <HAL_FLASH_Program+0xee>
  while (__HAL_FLASH_GET_FLAG(FLASH_FLAG_BSY))
 80046da:	6933      	ldr	r3, [r6, #16]
 80046dc:	03da      	lsls	r2, r3, #15
 80046de:	d4f6      	bmi.n	80046ce <HAL_FLASH_Program+0x86>
  error = (FLASH->SR & FLASH_FLAG_SR_ERRORS);
 80046e0:	6933      	ldr	r3, [r6, #16]
 80046e2:	f24c 32fa 	movw	r2, #50170	@ 0xc3fa
  if (error != 0u)
 80046e6:	4013      	ands	r3, r2
 80046e8:	d151      	bne.n	800478e <HAL_FLASH_Program+0x146>
  if (__HAL_FLASH_GET_FLAG(FLASH_FLAG_EOP))
 80046ea:	6933      	ldr	r3, [r6, #16]
 80046ec:	07db      	lsls	r3, r3, #31
    __HAL_FLASH_CLEAR_FLAG(FLASH_FLAG_EOP);
 80046ee:	bf44      	itt	mi
 80046f0:	2301      	movmi	r3, #1
 80046f2:	6133      	strmi	r3, [r6, #16]
    return HAL_ERROR;
 80046f4:	2400      	movs	r4, #0
    if (prog_bit != 0U)
 80046f6:	b125      	cbz	r5, 8004702 <HAL_FLASH_Program+0xba>
      CLEAR_BIT(FLASH->CR, prog_bit);
 80046f8:	4a2d      	ldr	r2, [pc, #180]	@ (80047b0 <HAL_FLASH_Program+0x168>)
 80046fa:	6953      	ldr	r3, [r2, #20]
 80046fc:	ea23 0305 	bic.w	r3, r3, r5
 8004700:	6153      	str	r3, [r2, #20]
    FLASH_FlushCaches();
 8004702:	f000 f975 	bl	80049f0 <FLASH_FlushCaches>
 8004706:	e000      	b.n	800470a <HAL_FLASH_Program+0xc2>
 8004708:	2403      	movs	r4, #3
  __HAL_UNLOCK(&pFlash);
 800470a:	2300      	movs	r3, #0
 800470c:	f888 3000 	strb.w	r3, [r8]
}
 8004710:	4620      	mov	r0, r4
 8004712:	e8bd 87f0 	ldmia.w	sp!, {r4, r5, r6, r7, r8, r9, sl, pc}
  __HAL_LOCK(&pFlash);
 8004716:	2402      	movs	r4, #2
}
 8004718:	4620      	mov	r0, r4
 800471a:	e8bd 87f0 	ldmia.w	sp!, {r4, r5, r6, r7, r8, r9, sl, pc}
{
  /* Check the parameters */
  assert_param(IS_FLASH_PROGRAM_ADDRESS(Address));

  /* Set PG bit */
  SET_BIT(FLASH->CR, FLASH_CR_PG);
 800471e:	4a24      	ldr	r2, [pc, #144]	@ (80047b0 <HAL_FLASH_Program+0x168>)
 8004720:	6953      	ldr	r3, [r2, #20]
 8004722:	f043 0301 	orr.w	r3, r3, #1
 8004726:	6153      	str	r3, [r2, #20]

  /* Program first word */
  *(uint32_t *)Address = (uint32_t)Data;
 8004728:	603c      	str	r4, [r7, #0]
  __ASM volatile ("isb 0xF":::"memory");
 800472a:	f3bf 8f6f 	isb	sy
      prog_bit = FLASH_CR_PG;
 800472e:	2501      	movs	r5, #1
  /* Barrier to ensure programming is performed in 2 steps, in right order
    (independently of compiler optimization behavior) */
  __ISB();

  /* Program second word */
  *(uint32_t *)(Address + 4U) = (uint32_t)(Data >> 32U);
 8004730:	f8c7 a004 	str.w	sl, [r7, #4]
      prog_bit = FLASH_CR_PG;
 8004734:	e7c6      	b.n	80046c4 <HAL_FLASH_Program+0x7c>
      return HAL_TIMEOUT;
 8004736:	2403      	movs	r4, #3
 8004738:	e7dd      	b.n	80046f6 <HAL_FLASH_Program+0xae>
    pFlash.ErrorCode |= error;
 800473a:	f8d8 3004 	ldr.w	r3, [r8, #4]
 800473e:	432b      	orrs	r3, r5
 8004740:	f8c8 3004 	str.w	r3, [r8, #4]
    return HAL_ERROR;
 8004744:	2401      	movs	r4, #1
    __HAL_FLASH_CLEAR_FLAG(error);
 8004746:	6135      	str	r5, [r6, #16]
  if (status == HAL_OK)
 8004748:	e7df      	b.n	800470a <HAL_FLASH_Program+0xc2>

  /* Check the parameters */
  assert_param(IS_FLASH_MAIN_MEM_ADDRESS(Address));

  /* Set FSTPG bit */
  SET_BIT(FLASH->CR, FLASH_CR_FSTPG);
 800474a:	4a19      	ldr	r2, [pc, #100]	@ (80047b0 <HAL_FLASH_Program+0x168>)
 800474c:	6953      	ldr	r3, [r2, #20]
 800474e:	f443 2380 	orr.w	r3, r3, #262144	@ 0x40000
 8004752:	6153      	str	r3, [r2, #20]
  __ASM volatile ("MRS %0, primask" : "=r" (result) :: "memory");
 8004754:	f3ef 8510 	mrs	r5, PRIMASK
  __ASM volatile ("cpsid i" : : : "memory");
 8004758:	b672      	cpsid	i
 800475a:	1d23      	adds	r3, r4, #4
 800475c:	42bb      	cmp	r3, r7
 800475e:	d01e      	beq.n	800479e <HAL_FLASH_Program+0x156>
 8004760:	4623      	mov	r3, r4
 8004762:	1aff      	subs	r7, r7, r3
 8004764:	f504 7480 	add.w	r4, r4, #256	@ 0x100
  __disable_irq();

  /* Program the double words of the row */
  do
  {
    *dest_addr = *src_addr;
 8004768:	6818      	ldr	r0, [r3, #0]
 800476a:	6859      	ldr	r1, [r3, #4]
 800476c:	50f8      	str	r0, [r7, r3]
 800476e:	18fa      	adds	r2, r7, r3
 8004770:	3308      	adds	r3, #8
 8004772:	42a3      	cmp	r3, r4
 8004774:	6051      	str	r1, [r2, #4]
    dest_addr++;
    src_addr++;
    row_index--;
  }
  while (row_index != 0U);
 8004776:	d1f7      	bne.n	8004768 <HAL_FLASH_Program+0x120>
  __ASM volatile ("MSR primask, %0" : : "r" (priMask) : "memory");
 8004778:	f385 8810 	msr	PRIMASK, r5
      if (TypeProgram == FLASH_TYPEPROGRAM_FAST_AND_LAST)
 800477c:	f1a9 0902 	sub.w	r9, r9, #2
 8004780:	fab9 f989 	clz	r9, r9
 8004784:	ea4f 1959 	mov.w	r9, r9, lsr #5
 8004788:	ea4f 4589 	mov.w	r5, r9, lsl #18
 800478c:	e79a      	b.n	80046c4 <HAL_FLASH_Program+0x7c>
    pFlash.ErrorCode |= error;
 800478e:	f8d8 2004 	ldr.w	r2, [r8, #4]
 8004792:	431a      	orrs	r2, r3
 8004794:	f8c8 2004 	str.w	r2, [r8, #4]
    return HAL_ERROR;
 8004798:	2401      	movs	r4, #1
    __HAL_FLASH_CLEAR_FLAG(error);
 800479a:	6133      	str	r3, [r6, #16]
    return HAL_ERROR;
 800479c:	e7ab      	b.n	80046f6 <HAL_FLASH_Program+0xae>
 800479e:	1b3f      	subs	r7, r7, r4
 80047a0:	f504 7280 	add.w	r2, r4, #256	@ 0x100
    *dest_addr = *src_addr;
 80047a4:	6823      	ldr	r3, [r4, #0]
 80047a6:	51e3      	str	r3, [r4, r7]
    src_addr++;
 80047a8:	3404      	adds	r4, #4
  while (row_index != 0U);
 80047aa:	42a2      	cmp	r2, r4
 80047ac:	d1fa      	bne.n	80047a4 <HAL_FLASH_Program+0x15c>
 80047ae:	e7e3      	b.n	8004778 <HAL_FLASH_Program+0x130>
 80047b0:	40022000 	.word	0x40022000
 80047b4:	20000034 	.word	0x20000034

080047b8 <HAL_FLASH_Unlock>:
  if (READ_BIT(FLASH->CR, FLASH_CR_LOCK) != 0U)
 80047b8:	4b06      	ldr	r3, [pc, #24]	@ (80047d4 <HAL_FLASH_Unlock+0x1c>)
 80047ba:	695a      	ldr	r2, [r3, #20]
 80047bc:	2a00      	cmp	r2, #0
 80047be:	db01      	blt.n	80047c4 <HAL_FLASH_Unlock+0xc>
  HAL_StatusTypeDef status = HAL_OK;
 80047c0:	2000      	movs	r0, #0
}
 80047c2:	4770      	bx	lr
    WRITE_REG(FLASH->KEYR, FLASH_KEY1);
 80047c4:	4904      	ldr	r1, [pc, #16]	@ (80047d8 <HAL_FLASH_Unlock+0x20>)
    WRITE_REG(FLASH->KEYR, FLASH_KEY2);
 80047c6:	4a05      	ldr	r2, [pc, #20]	@ (80047dc <HAL_FLASH_Unlock+0x24>)
    WRITE_REG(FLASH->KEYR, FLASH_KEY1);
 80047c8:	6099      	str	r1, [r3, #8]
    WRITE_REG(FLASH->KEYR, FLASH_KEY2);
 80047ca:	609a      	str	r2, [r3, #8]
    if (READ_BIT(FLASH->CR, FLASH_CR_LOCK) != 0U)
 80047cc:	6958      	ldr	r0, [r3, #20]
 80047ce:	0fc0      	lsrs	r0, r0, #31
 80047d0:	4770      	bx	lr
 80047d2:	bf00      	nop
 80047d4:	40022000 	.word	0x40022000
 80047d8:	45670123 	.word	0x45670123
 80047dc:	cdef89ab 	.word	0xcdef89ab

080047e0 <HAL_FLASH_Lock>:
  SET_BIT(FLASH->CR, FLASH_CR_LOCK);
 80047e0:	4b04      	ldr	r3, [pc, #16]	@ (80047f4 <HAL_FLASH_Lock+0x14>)
 80047e2:	695a      	ldr	r2, [r3, #20]
 80047e4:	f042 4200 	orr.w	r2, r2, #2147483648	@ 0x80000000
 80047e8:	615a      	str	r2, [r3, #20]
  if (READ_BIT(FLASH->CR, FLASH_CR_LOCK) != 0U)
 80047ea:	6958      	ldr	r0, [r3, #20]
}
 80047ec:	43c0      	mvns	r0, r0
 80047ee:	0fc0      	lsrs	r0, r0, #31
 80047f0:	4770      	bx	lr
 80047f2:	bf00      	nop
 80047f4:	40022000 	.word	0x40022000

080047f8 <FLASH_WaitForLastOperation>:
{
 80047f8:	b570      	push	{r4, r5, r6, lr}
 80047fa:	4605      	mov	r5, r0
  uint32_t tickstart = HAL_GetTick();
 80047fc:	f7fe fff0 	bl	80037e0 <HAL_GetTick>
  while (__HAL_FLASH_GET_FLAG(FLASH_FLAG_BSY))
 8004800:	4e0f      	ldr	r6, [pc, #60]	@ (8004840 <FLASH_WaitForLastOperation+0x48>)
  uint32_t tickstart = HAL_GetTick();
 8004802:	4604      	mov	r4, r0
  while (__HAL_FLASH_GET_FLAG(FLASH_FLAG_BSY))
 8004804:	e004      	b.n	8004810 <FLASH_WaitForLastOperation+0x18>
    if ((HAL_GetTick() - tickstart) > Timeout)
 8004806:	f7fe ffeb 	bl	80037e0 <HAL_GetTick>
 800480a:	1b00      	subs	r0, r0, r4
 800480c:	42a8      	cmp	r0, r5
 800480e:	d80e      	bhi.n	800482e <FLASH_WaitForLastOperation+0x36>
  while (__HAL_FLASH_GET_FLAG(FLASH_FLAG_BSY))
 8004810:	6933      	ldr	r3, [r6, #16]
 8004812:	03da      	lsls	r2, r3, #15
 8004814:	d4f7      	bmi.n	8004806 <FLASH_WaitForLastOperation+0xe>
  error = (FLASH->SR & FLASH_FLAG_SR_ERRORS);
 8004816:	6933      	ldr	r3, [r6, #16]
 8004818:	f24c 32fa 	movw	r2, #50170	@ 0xc3fa
  if (error != 0u)
 800481c:	4013      	ands	r3, r2
 800481e:	d108      	bne.n	8004832 <FLASH_WaitForLastOperation+0x3a>
  if (__HAL_FLASH_GET_FLAG(FLASH_FLAG_EOP))
 8004820:	6933      	ldr	r3, [r6, #16]
 8004822:	07db      	lsls	r3, r3, #31
    __HAL_FLASH_CLEAR_FLAG(FLASH_FLAG_EOP);
 8004824:	bf44      	itt	mi
 8004826:	2301      	movmi	r3, #1
 8004828:	6133      	strmi	r3, [r6, #16]
    return HAL_ERROR;
 800482a:	2000      	movs	r0, #0
}
 800482c:	bd70      	pop	{r4, r5, r6, pc}
      return HAL_TIMEOUT;
 800482e:	2003      	movs	r0, #3
}
 8004830:	bd70      	pop	{r4, r5, r6, pc}
    pFlash.ErrorCode |= error;
 8004832:	4904      	ldr	r1, [pc, #16]	@ (8004844 <FLASH_WaitForLastOperation+0x4c>)
 8004834:	684a      	ldr	r2, [r1, #4]
 8004836:	431a      	orrs	r2, r3
 8004838:	604a      	str	r2, [r1, #4]
    return HAL_ERROR;
 800483a:	2001      	movs	r0, #1
    __HAL_FLASH_CLEAR_FLAG(error);
 800483c:	6133      	str	r3, [r6, #16]
}
 800483e:	bd70      	pop	{r4, r5, r6, pc}
 8004840:	40022000 	.word	0x40022000
 8004844:	20000034 	.word	0x20000034

08004848 <HAL_FLASHEx_Erase>:
  *         information on faulty page in case of error (0xFFFFFFFF means that all
  *         the pages have been correctly erased).
  * @retval HAL_Status
  */
HAL_StatusTypeDef HAL_FLASHEx_Erase(FLASH_EraseInitTypeDef *pEraseInit, uint32_t *PageError)
{
 8004848:	e92d 47f0 	stmdb	sp!, {r4, r5, r6, r7, r8, r9, sl, lr}

  /* Check the parameters */
  assert_param(IS_FLASH_TYPEERASE(pEraseInit->TypeErase));

  /* Process Locked */
  __HAL_LOCK(&pFlash);
 800484c:	4f65      	ldr	r7, [pc, #404]	@ (80049e4 <HAL_FLASHEx_Erase+0x19c>)
 800484e:	783b      	ldrb	r3, [r7, #0]
 8004850:	2b01      	cmp	r3, #1
 8004852:	d05e      	beq.n	8004912 <HAL_FLASHEx_Erase+0xca>
 8004854:	4605      	mov	r5, r0
 8004856:	2401      	movs	r4, #1

  /* Wait for last operation to be completed */
  status = FLASH_WaitForLastOperation((uint32_t)FLASH_TIMEOUT_VALUE);
 8004858:	f44f 707a 	mov.w	r0, #1000	@ 0x3e8
 800485c:	4688      	mov	r8, r1
  __HAL_LOCK(&pFlash);
 800485e:	703c      	strb	r4, [r7, #0]
  status = FLASH_WaitForLastOperation((uint32_t)FLASH_TIMEOUT_VALUE);
 8004860:	f7ff ffca 	bl	80047f8 <FLASH_WaitForLastOperation>

  if (status == HAL_OK)
 8004864:	4606      	mov	r6, r0
 8004866:	b120      	cbz	r0, 8004872 <HAL_FLASHEx_Erase+0x2a>
    /* Flush the caches to be sure of the data consistency */
    FLASH_FlushCaches();
  }

  /* Process Unlocked */
  __HAL_UNLOCK(&pFlash);
 8004868:	2300      	movs	r3, #0
 800486a:	703b      	strb	r3, [r7, #0]

  return status;
}
 800486c:	4630      	mov	r0, r6
 800486e:	e8bd 87f0 	ldmia.w	sp!, {r4, r5, r6, r7, r8, r9, sl, pc}
    if (READ_BIT(FLASH->ACR, FLASH_ACR_ICEN) != 0U)
 8004872:	4b5d      	ldr	r3, [pc, #372]	@ (80049e8 <HAL_FLASHEx_Erase+0x1a0>)
    pFlash.ErrorCode = HAL_FLASH_ERROR_NONE;
 8004874:	6078      	str	r0, [r7, #4]
    if (READ_BIT(FLASH->ACR, FLASH_ACR_ICEN) != 0U)
 8004876:	681a      	ldr	r2, [r3, #0]
 8004878:	f412 7f00 	tst.w	r2, #512	@ 0x200
      if (READ_BIT(FLASH->ACR, FLASH_ACR_DCEN) != 0U)
 800487c:	681a      	ldr	r2, [r3, #0]
    if (READ_BIT(FLASH->ACR, FLASH_ACR_ICEN) != 0U)
 800487e:	d14c      	bne.n	800491a <HAL_FLASHEx_Erase+0xd2>
    else if (READ_BIT(FLASH->ACR, FLASH_ACR_DCEN) != 0U)
 8004880:	0552      	lsls	r2, r2, #21
 8004882:	f140 8082 	bpl.w	800498a <HAL_FLASHEx_Erase+0x142>
      __HAL_FLASH_DATA_CACHE_DISABLE();
 8004886:	681a      	ldr	r2, [r3, #0]
 8004888:	f422 6280 	bic.w	r2, r2, #1024	@ 0x400
 800488c:	601a      	str	r2, [r3, #0]
      pFlash.CacheToReactivate = FLASH_CACHE_DCACHE_ENABLED;
 800488e:	2302      	movs	r3, #2
 8004890:	773b      	strb	r3, [r7, #28]
    if (pEraseInit->TypeErase == FLASH_TYPEERASE_MASSERASE)
 8004892:	682b      	ldr	r3, [r5, #0]
 8004894:	2b01      	cmp	r3, #1
 8004896:	d07a      	beq.n	800498e <HAL_FLASHEx_Erase+0x146>
      *PageError = 0xFFFFFFFFU;
 8004898:	f04f 33ff 	mov.w	r3, #4294967295
 800489c:	f8c8 3000 	str.w	r3, [r8]
      for (page_index = pEraseInit->Page; page_index < (pEraseInit->Page + pEraseInit->NbPages); page_index++)
 80048a0:	e9d5 a302 	ldrd	sl, r3, [r5, #8]
 80048a4:	4453      	add	r3, sl
 80048a6:	459a      	cmp	sl, r3
 80048a8:	d243      	bcs.n	8004932 <HAL_FLASHEx_Erase+0xea>
{
  /* Check the parameters */
  assert_param(IS_FLASH_PAGE(Page));

#if defined (FLASH_OPTR_DBANK)
  if (READ_BIT(FLASH->OPTR, FLASH_OPTR_DBANK) == 0U)
 80048aa:	4c4f      	ldr	r4, [pc, #316]	@ (80049e8 <HAL_FLASHEx_Erase+0x1a0>)
        CLEAR_BIT(FLASH->CR, (FLASH_CR_PER | FLASH_CR_PNB));
 80048ac:	f8df 913c 	ldr.w	r9, [pc, #316]	@ 80049ec <HAL_FLASHEx_Erase+0x1a4>
 80048b0:	e025      	b.n	80048fe <HAL_FLASHEx_Erase+0xb6>
  }
  else
  {
    assert_param(IS_FLASH_BANK_EXCLUSIVE(Banks));

    if ((Banks & FLASH_BANK_1) != 0U)
 80048b2:	07d2      	lsls	r2, r2, #31
 80048b4:	d429      	bmi.n	800490a <HAL_FLASHEx_Erase+0xc2>
    {
      CLEAR_BIT(FLASH->CR, FLASH_CR_BKER);
    }
    else
    {
      SET_BIT(FLASH->CR, FLASH_CR_BKER);
 80048b6:	f443 6300 	orr.w	r3, r3, #2048	@ 0x800
 80048ba:	6163      	str	r3, [r4, #20]
  /* Prevent unused argument(s) compilation warning */
  UNUSED(Banks);
#endif /* FLASH_OPTR_DBANK */

  /* Proceed to erase the page */
  MODIFY_REG(FLASH->CR, FLASH_CR_PNB, ((Page & 0xFFU) << FLASH_CR_PNB_Pos));
 80048bc:	6962      	ldr	r2, [r4, #20]
 80048be:	ea4f 03ca 	mov.w	r3, sl, lsl #3
 80048c2:	f422 727e 	bic.w	r2, r2, #1016	@ 0x3f8
 80048c6:	f403 63ff 	and.w	r3, r3, #2040	@ 0x7f8
 80048ca:	4313      	orrs	r3, r2
 80048cc:	6163      	str	r3, [r4, #20]
  SET_BIT(FLASH->CR, FLASH_CR_PER);
 80048ce:	6963      	ldr	r3, [r4, #20]
 80048d0:	f043 0302 	orr.w	r3, r3, #2
 80048d4:	6163      	str	r3, [r4, #20]
  SET_BIT(FLASH->CR, FLASH_CR_STRT);
 80048d6:	6963      	ldr	r3, [r4, #20]
 80048d8:	f443 3380 	orr.w	r3, r3, #65536	@ 0x10000
 80048dc:	6163      	str	r3, [r4, #20]
        status = FLASH_WaitForLastOperation((uint32_t)FLASH_TIMEOUT_VALUE);
 80048de:	f44f 707a 	mov.w	r0, #1000	@ 0x3e8
 80048e2:	f7ff ff89 	bl	80047f8 <FLASH_WaitForLastOperation>
        CLEAR_BIT(FLASH->CR, (FLASH_CR_PER | FLASH_CR_PNB));
 80048e6:	6963      	ldr	r3, [r4, #20]
 80048e8:	ea03 0309 	and.w	r3, r3, r9
 80048ec:	6163      	str	r3, [r4, #20]
        if (status != HAL_OK)
 80048ee:	b9e8      	cbnz	r0, 800492c <HAL_FLASHEx_Erase+0xe4>
      for (page_index = pEraseInit->Page; page_index < (pEraseInit->Page + pEraseInit->NbPages); page_index++)
 80048f0:	e9d5 3202 	ldrd	r3, r2, [r5, #8]
 80048f4:	f10a 0a01 	add.w	sl, sl, #1
 80048f8:	4413      	add	r3, r2
 80048fa:	4553      	cmp	r3, sl
 80048fc:	d919      	bls.n	8004932 <HAL_FLASHEx_Erase+0xea>
  if (READ_BIT(FLASH->OPTR, FLASH_OPTR_DBANK) == 0U)
 80048fe:	6a23      	ldr	r3, [r4, #32]
        FLASH_PageErase(page_index, pEraseInit->Banks);
 8004900:	686a      	ldr	r2, [r5, #4]
  if (READ_BIT(FLASH->OPTR, FLASH_OPTR_DBANK) == 0U)
 8004902:	f413 0f80 	tst.w	r3, #4194304	@ 0x400000
    CLEAR_BIT(FLASH->CR, FLASH_CR_BKER);
 8004906:	6963      	ldr	r3, [r4, #20]
  if (READ_BIT(FLASH->OPTR, FLASH_OPTR_DBANK) == 0U)
 8004908:	d1d3      	bne.n	80048b2 <HAL_FLASHEx_Erase+0x6a>
      CLEAR_BIT(FLASH->CR, FLASH_CR_BKER);
 800490a:	f423 6300 	bic.w	r3, r3, #2048	@ 0x800
 800490e:	6163      	str	r3, [r4, #20]
 8004910:	e7d4      	b.n	80048bc <HAL_FLASHEx_Erase+0x74>
  __HAL_LOCK(&pFlash);
 8004912:	2602      	movs	r6, #2
}
 8004914:	4630      	mov	r0, r6
 8004916:	e8bd 87f0 	ldmia.w	sp!, {r4, r5, r6, r7, r8, r9, sl, pc}
      if (READ_BIT(FLASH->ACR, FLASH_ACR_DCEN) != 0U)
 800491a:	0551      	lsls	r1, r2, #21
 800491c:	d533      	bpl.n	8004986 <HAL_FLASHEx_Erase+0x13e>
        __HAL_FLASH_DATA_CACHE_DISABLE();
 800491e:	681a      	ldr	r2, [r3, #0]
 8004920:	f422 6280 	bic.w	r2, r2, #1024	@ 0x400
 8004924:	601a      	str	r2, [r3, #0]
        pFlash.CacheToReactivate = FLASH_CACHE_ICACHE_DCACHE_ENABLED;
 8004926:	2303      	movs	r3, #3
 8004928:	773b      	strb	r3, [r7, #28]
 800492a:	e7b2      	b.n	8004892 <HAL_FLASHEx_Erase+0x4a>
          *PageError = page_index;
 800492c:	f8c8 a000 	str.w	sl, [r8]
        status = FLASH_WaitForLastOperation((uint32_t)FLASH_TIMEOUT_VALUE);
 8004930:	4606      	mov	r6, r0
  * @brief  Flush the instruction and data caches.
  * @retval None
  */
void FLASH_FlushCaches(void)
{
  FLASH_CacheTypeDef cache = pFlash.CacheToReactivate;
 8004932:	7f3b      	ldrb	r3, [r7, #28]

  /* Flush instruction cache  */
  if ((cache == FLASH_CACHE_ICACHE_ENABLED) ||
 8004934:	f003 02fd 	and.w	r2, r3, #253	@ 0xfd
 8004938:	2a01      	cmp	r2, #1
  FLASH_CacheTypeDef cache = pFlash.CacheToReactivate;
 800493a:	b2db      	uxtb	r3, r3
  if ((cache == FLASH_CACHE_ICACHE_ENABLED) ||
 800493c:	d110      	bne.n	8004960 <HAL_FLASHEx_Erase+0x118>
      (cache == FLASH_CACHE_ICACHE_DCACHE_ENABLED))
  {
    /* Disable instruction cache */
    __HAL_FLASH_INSTRUCTION_CACHE_DISABLE();
 800493e:	4a2a      	ldr	r2, [pc, #168]	@ (80049e8 <HAL_FLASHEx_Erase+0x1a0>)
 8004940:	6811      	ldr	r1, [r2, #0]
 8004942:	f421 7100 	bic.w	r1, r1, #512	@ 0x200
 8004946:	6011      	str	r1, [r2, #0]
    /* Reset instruction cache */
    __HAL_FLASH_INSTRUCTION_CACHE_RESET();
 8004948:	6811      	ldr	r1, [r2, #0]
 800494a:	f441 6100 	orr.w	r1, r1, #2048	@ 0x800
 800494e:	6011      	str	r1, [r2, #0]
 8004950:	6811      	ldr	r1, [r2, #0]
 8004952:	f421 6100 	bic.w	r1, r1, #2048	@ 0x800
 8004956:	6011      	str	r1, [r2, #0]
    /* Enable instruction cache */
    __HAL_FLASH_INSTRUCTION_CACHE_ENABLE();
 8004958:	6811      	ldr	r1, [r2, #0]
 800495a:	f441 7100 	orr.w	r1, r1, #512	@ 0x200
 800495e:	6011      	str	r1, [r2, #0]
  }

  /* Flush data cache */
  if ((cache == FLASH_CACHE_DCACHE_ENABLED) ||
 8004960:	3b02      	subs	r3, #2
 8004962:	2b01      	cmp	r3, #1
 8004964:	d80c      	bhi.n	8004980 <HAL_FLASHEx_Erase+0x138>
      (cache == FLASH_CACHE_ICACHE_DCACHE_ENABLED))
  {
    /* Reset data cache */
    __HAL_FLASH_DATA_CACHE_RESET();
 8004966:	4b20      	ldr	r3, [pc, #128]	@ (80049e8 <HAL_FLASHEx_Erase+0x1a0>)
 8004968:	681a      	ldr	r2, [r3, #0]
 800496a:	f442 5280 	orr.w	r2, r2, #4096	@ 0x1000
 800496e:	601a      	str	r2, [r3, #0]
 8004970:	681a      	ldr	r2, [r3, #0]
 8004972:	f422 5280 	bic.w	r2, r2, #4096	@ 0x1000
 8004976:	601a      	str	r2, [r3, #0]
    /* Enable data cache */
    __HAL_FLASH_DATA_CACHE_ENABLE();
 8004978:	681a      	ldr	r2, [r3, #0]
 800497a:	f442 6280 	orr.w	r2, r2, #1024	@ 0x400
 800497e:	601a      	str	r2, [r3, #0]
  }

  /* Reset internal variable */
  pFlash.CacheToReactivate = FLASH_CACHE_DISABLED;
 8004980:	2300      	movs	r3, #0
 8004982:	773b      	strb	r3, [r7, #28]
}
 8004984:	e770      	b.n	8004868 <HAL_FLASHEx_Erase+0x20>
        pFlash.CacheToReactivate = FLASH_CACHE_ICACHE_ENABLED;
 8004986:	773c      	strb	r4, [r7, #28]
 8004988:	e783      	b.n	8004892 <HAL_FLASHEx_Erase+0x4a>
      pFlash.CacheToReactivate = FLASH_CACHE_DISABLED;
 800498a:	7738      	strb	r0, [r7, #28]
 800498c:	e781      	b.n	8004892 <HAL_FLASHEx_Erase+0x4a>
  if (READ_BIT(FLASH->OPTR, FLASH_OPTR_DBANK) != 0U)
 800498e:	4b16      	ldr	r3, [pc, #88]	@ (80049e8 <HAL_FLASHEx_Erase+0x1a0>)
      FLASH_MassErase(pEraseInit->Banks);
 8004990:	6869      	ldr	r1, [r5, #4]
  if (READ_BIT(FLASH->OPTR, FLASH_OPTR_DBANK) != 0U)
 8004992:	6a1a      	ldr	r2, [r3, #32]
 8004994:	0254      	lsls	r4, r2, #9
 8004996:	d50d      	bpl.n	80049b4 <HAL_FLASHEx_Erase+0x16c>
    if ((Banks & FLASH_BANK_1) != 0U)
 8004998:	07c8      	lsls	r0, r1, #31
 800499a:	d503      	bpl.n	80049a4 <HAL_FLASHEx_Erase+0x15c>
      SET_BIT(FLASH->CR, FLASH_CR_MER1);
 800499c:	695a      	ldr	r2, [r3, #20]
 800499e:	f042 0204 	orr.w	r2, r2, #4
 80049a2:	615a      	str	r2, [r3, #20]
    if ((Banks & FLASH_BANK_2) != 0U)
 80049a4:	0789      	lsls	r1, r1, #30
 80049a6:	d50b      	bpl.n	80049c0 <HAL_FLASHEx_Erase+0x178>
      SET_BIT(FLASH->CR, FLASH_CR_MER2);
 80049a8:	4a0f      	ldr	r2, [pc, #60]	@ (80049e8 <HAL_FLASHEx_Erase+0x1a0>)
 80049aa:	6953      	ldr	r3, [r2, #20]
 80049ac:	f443 4300 	orr.w	r3, r3, #32768	@ 0x8000
 80049b0:	6153      	str	r3, [r2, #20]
 80049b2:	e005      	b.n	80049c0 <HAL_FLASHEx_Erase+0x178>
    SET_BIT(FLASH->CR, (FLASH_CR_MER1 | FLASH_CR_MER2));
 80049b4:	695a      	ldr	r2, [r3, #20]
 80049b6:	f442 4200 	orr.w	r2, r2, #32768	@ 0x8000
 80049ba:	f042 0204 	orr.w	r2, r2, #4
 80049be:	615a      	str	r2, [r3, #20]
  SET_BIT(FLASH->CR, FLASH_CR_STRT);
 80049c0:	4c09      	ldr	r4, [pc, #36]	@ (80049e8 <HAL_FLASHEx_Erase+0x1a0>)
 80049c2:	6963      	ldr	r3, [r4, #20]
 80049c4:	f443 3380 	orr.w	r3, r3, #65536	@ 0x10000
 80049c8:	6163      	str	r3, [r4, #20]
      status = FLASH_WaitForLastOperation((uint32_t)FLASH_TIMEOUT_VALUE);
 80049ca:	f44f 707a 	mov.w	r0, #1000	@ 0x3e8
 80049ce:	f7ff ff13 	bl	80047f8 <FLASH_WaitForLastOperation>
      CLEAR_BIT(FLASH->CR, (FLASH_CR_MER1 | FLASH_CR_MER2));
 80049d2:	6963      	ldr	r3, [r4, #20]
 80049d4:	f423 4300 	bic.w	r3, r3, #32768	@ 0x8000
 80049d8:	f023 0304 	bic.w	r3, r3, #4
      status = FLASH_WaitForLastOperation((uint32_t)FLASH_TIMEOUT_VALUE);
 80049dc:	4606      	mov	r6, r0
      CLEAR_BIT(FLASH->CR, (FLASH_CR_MER1 | FLASH_CR_MER2));
 80049de:	6163      	str	r3, [r4, #20]
 80049e0:	e7a7      	b.n	8004932 <HAL_FLASHEx_Erase+0xea>
 80049e2:	bf00      	nop
 80049e4:	20000034 	.word	0x20000034
 80049e8:	40022000 	.word	0x40022000
 80049ec:	fffffc05 	.word	0xfffffc05

080049f0 <FLASH_FlushCaches>:
  FLASH_CacheTypeDef cache = pFlash.CacheToReactivate;
 80049f0:	4915      	ldr	r1, [pc, #84]	@ (8004a48 <FLASH_FlushCaches+0x58>)
 80049f2:	7f0b      	ldrb	r3, [r1, #28]
  if ((cache == FLASH_CACHE_ICACHE_ENABLED) ||
 80049f4:	f003 02fd 	and.w	r2, r3, #253	@ 0xfd
 80049f8:	2a01      	cmp	r2, #1
  FLASH_CacheTypeDef cache = pFlash.CacheToReactivate;
 80049fa:	b2db      	uxtb	r3, r3
  if ((cache == FLASH_CACHE_ICACHE_ENABLED) ||
 80049fc:	d110      	bne.n	8004a20 <FLASH_FlushCaches+0x30>
    __HAL_FLASH_INSTRUCTION_CACHE_DISABLE();
 80049fe:	4a13      	ldr	r2, [pc, #76]	@ (8004a4c <FLASH_FlushCaches+0x5c>)
 8004a00:	6810      	ldr	r0, [r2, #0]
 8004a02:	f420 7000 	bic.w	r0, r0, #512	@ 0x200
 8004a06:	6010      	str	r0, [r2, #0]
    __HAL_FLASH_INSTRUCTION_CACHE_RESET();
 8004a08:	6810      	ldr	r0, [r2, #0]
 8004a0a:	f440 6000 	orr.w	r0, r0, #2048	@ 0x800
 8004a0e:	6010      	str	r0, [r2, #0]
 8004a10:	6810      	ldr	r0, [r2, #0]
 8004a12:	f420 6000 	bic.w	r0, r0, #2048	@ 0x800
 8004a16:	6010      	str	r0, [r2, #0]
    __HAL_FLASH_INSTRUCTION_CACHE_ENABLE();
 8004a18:	6810      	ldr	r0, [r2, #0]
 8004a1a:	f440 7000 	orr.w	r0, r0, #512	@ 0x200
 8004a1e:	6010      	str	r0, [r2, #0]
  if ((cache == FLASH_CACHE_DCACHE_ENABLED) ||
 8004a20:	3b02      	subs	r3, #2
 8004a22:	2b01      	cmp	r3, #1
 8004a24:	d80c      	bhi.n	8004a40 <FLASH_FlushCaches+0x50>
    __HAL_FLASH_DATA_CACHE_RESET();
 8004a26:	4b09      	ldr	r3, [pc, #36]	@ (8004a4c <FLASH_FlushCaches+0x5c>)
 8004a28:	681a      	ldr	r2, [r3, #0]
 8004a2a:	f442 5280 	orr.w	r2, r2, #4096	@ 0x1000
 8004a2e:	601a      	str	r2, [r3, #0]
 8004a30:	681a      	ldr	r2, [r3, #0]
 8004a32:	f422 5280 	bic.w	r2, r2, #4096	@ 0x1000
 8004a36:	601a      	str	r2, [r3, #0]
    __HAL_FLASH_DATA_CACHE_ENABLE();
 8004a38:	681a      	ldr	r2, [r3, #0]
 8004a3a:	f442 6280 	orr.w	r2, r2, #1024	@ 0x400
 8004a3e:	601a      	str	r2, [r3, #0]
  pFlash.CacheToReactivate = FLASH_CACHE_DISABLED;
 8004a40:	2300      	movs	r3, #0
 8004a42:	770b      	strb	r3, [r1, #28]
}
 8004a44:	4770      	bx	lr
 8004a46:	bf00      	nop
 8004a48:	20000034 	.word	0x20000034
 8004a4c:	40022000 	.word	0x40022000

08004a50 <HAL_GPIO_Init>:
  * @param  GPIO_Init pointer to a GPIO_InitTypeDef structure that contains
  *         the configuration information for the specified GPIO peripheral.
  * @retval None
  */
void HAL_GPIO_Init(GPIO_TypeDef  *GPIOx, GPIO_InitTypeDef *GPIO_Init)
{
 8004a50:	e92d 4ff0 	stmdb	sp!, {r4, r5, r6, r7, r8, r9, sl, fp, lr}
  assert_param(IS_GPIO_ALL_INSTANCE(GPIOx));
  assert_param(IS_GPIO_PIN(GPIO_Init->Pin));
  assert_param(IS_GPIO_MODE(GPIO_Init->Mode));

  /* Configure the port pins */
  while (((GPIO_Init->Pin) >> position) != 0U)
 8004a54:	680c      	ldr	r4, [r1, #0]
{
 8004a56:	b085      	sub	sp, #20
  while (((GPIO_Init->Pin) >> position) != 0U)
 8004a58:	2c00      	cmp	r4, #0
 8004a5a:	f000 8089 	beq.w	8004b70 <HAL_GPIO_Init+0x120>
  uint32_t position = 0x00U;
 8004a5e:	2300      	movs	r3, #0
  {
    /* Get current io position */
    iocurrent = (GPIO_Init->Pin) & (1UL << position);
 8004a60:	f04f 0b01 	mov.w	fp, #1
 8004a64:	fa0b fe03 	lsl.w	lr, fp, r3

    if (iocurrent != 0x00u)
 8004a68:	ea1e 0a04 	ands.w	sl, lr, r4
 8004a6c:	d07b      	beq.n	8004b66 <HAL_GPIO_Init+0x116>
    {
      /*--------------------- GPIO Mode Configuration ------------------------*/
      /* In case of Output or Alternate function mode selection */
      if(((GPIO_Init->Mode & GPIO_MODE) == MODE_OUTPUT) ||
 8004a6e:	684d      	ldr	r5, [r1, #4]
 8004a70:	f005 0203 	and.w	r2, r5, #3
 8004a74:	ea4f 0c43 	mov.w	ip, r3, lsl #1
      {
        /* Check the Speed parameter */
        assert_param(IS_GPIO_SPEED(GPIO_Init->Speed));
        /* Configure the IO Speed */
        temp = GPIOx->OSPEEDR;
        temp &= ~(GPIO_OSPEEDR_OSPEED0 << (position * 2U));
 8004a78:	2603      	movs	r6, #3
      if(((GPIO_Init->Mode & GPIO_MODE) == MODE_OUTPUT) ||
 8004a7a:	f102 38ff 	add.w	r8, r2, #4294967295
        temp &= ~(GPIO_OSPEEDR_OSPEED0 << (position * 2U));
 8004a7e:	fa06 f70c 	lsl.w	r7, r6, ip
      if(((GPIO_Init->Mode & GPIO_MODE) == MODE_OUTPUT) ||
 8004a82:	f1b8 0f01 	cmp.w	r8, #1
        temp &= ~(GPIO_OSPEEDR_OSPEED0 << (position * 2U));
 8004a86:	ea6f 0707 	mvn.w	r7, r7
      if(((GPIO_Init->Mode & GPIO_MODE) == MODE_OUTPUT) ||
 8004a8a:	d974      	bls.n	8004b76 <HAL_GPIO_Init+0x126>
        temp &= ~(GPIO_OTYPER_OT0 << position) ;
        temp |= (((GPIO_Init->Mode & OUTPUT_TYPE) >> OUTPUT_TYPE_Pos) << position);
        GPIOx->OTYPER = temp;
      }

      if ((GPIO_Init->Mode & GPIO_MODE) != MODE_ANALOG)
 8004a8c:	2a03      	cmp	r2, #3
 8004a8e:	f040 80b0 	bne.w	8004bf2 <HAL_GPIO_Init+0x1a2>
      }

      /* Configure IO Direction mode (Input, Output, Alternate or Analog) */
      temp = GPIOx->MODER;
      temp &= ~(GPIO_MODER_MODE0 << (position * 2U));
      temp |= ((GPIO_Init->Mode & GPIO_MODE) << (position * 2U));
 8004a92:	fa02 f20c 	lsl.w	r2, r2, ip
      temp = GPIOx->MODER;
 8004a96:	f8d0 c000 	ldr.w	ip, [r0]
      temp &= ~(GPIO_MODER_MODE0 << (position * 2U));
 8004a9a:	ea0c 0707 	and.w	r7, ip, r7
      temp |= ((GPIO_Init->Mode & GPIO_MODE) << (position * 2U));
 8004a9e:	433a      	orrs	r2, r7
      GPIOx->MODER = temp;

      /*--------------------- EXTI Mode Configuration ------------------------*/
      /* Configure the External Interrupt or event for the current IO */
      if ((GPIO_Init->Mode & EXTI_MODE) != 0x00u)
 8004aa0:	f415 3f40 	tst.w	r5, #196608	@ 0x30000
      GPIOx->MODER = temp;
 8004aa4:	6002      	str	r2, [r0, #0]
      if ((GPIO_Init->Mode & EXTI_MODE) != 0x00u)
 8004aa6:	d05e      	beq.n	8004b66 <HAL_GPIO_Init+0x116>
      {
        /* Enable SYSCFG Clock */
        __HAL_RCC_SYSCFG_CLK_ENABLE();
 8004aa8:	4f66      	ldr	r7, [pc, #408]	@ (8004c44 <HAL_GPIO_Init+0x1f4>)
 8004aaa:	6e3a      	ldr	r2, [r7, #96]	@ 0x60
 8004aac:	f042 0201 	orr.w	r2, r2, #1
 8004ab0:	663a      	str	r2, [r7, #96]	@ 0x60
 8004ab2:	6e3a      	ldr	r2, [r7, #96]	@ 0x60
 8004ab4:	f002 0201 	and.w	r2, r2, #1
 8004ab8:	9203      	str	r2, [sp, #12]
 8004aba:	9a03      	ldr	r2, [sp, #12]

        temp = SYSCFG->EXTICR[position >> 2U];
 8004abc:	f023 0203 	bic.w	r2, r3, #3
 8004ac0:	f102 4280 	add.w	r2, r2, #1073741824	@ 0x40000000
 8004ac4:	f502 3280 	add.w	r2, r2, #65536	@ 0x10000
        temp &= ~(0x0FUL << (4U * (position & 0x03U)));
 8004ac8:	f003 0c03 	and.w	ip, r3, #3
        temp = SYSCFG->EXTICR[position >> 2U];
 8004acc:	6897      	ldr	r7, [r2, #8]
        temp &= ~(0x0FUL << (4U * (position & 0x03U)));
 8004ace:	ea4f 0c8c 	mov.w	ip, ip, lsl #2
 8004ad2:	260f      	movs	r6, #15
 8004ad4:	fa06 fe0c 	lsl.w	lr, r6, ip
        temp |= (GPIO_GET_INDEX(GPIOx) << (4U * (position & 0x03U)));
 8004ad8:	f1b0 4f90 	cmp.w	r0, #1207959552	@ 0x48000000
        temp &= ~(0x0FUL << (4U * (position & 0x03U)));
 8004adc:	ea27 070e 	bic.w	r7, r7, lr
        temp |= (GPIO_GET_INDEX(GPIOx) << (4U * (position & 0x03U)));
 8004ae0:	d01d      	beq.n	8004b1e <HAL_GPIO_Init+0xce>
 8004ae2:	4e59      	ldr	r6, [pc, #356]	@ (8004c48 <HAL_GPIO_Init+0x1f8>)
 8004ae4:	42b0      	cmp	r0, r6
 8004ae6:	f000 8097 	beq.w	8004c18 <HAL_GPIO_Init+0x1c8>
 8004aea:	4e58      	ldr	r6, [pc, #352]	@ (8004c4c <HAL_GPIO_Init+0x1fc>)
 8004aec:	42b0      	cmp	r0, r6
 8004aee:	f000 809a 	beq.w	8004c26 <HAL_GPIO_Init+0x1d6>
 8004af2:	f8df e160 	ldr.w	lr, [pc, #352]	@ 8004c54 <HAL_GPIO_Init+0x204>
 8004af6:	4570      	cmp	r0, lr
 8004af8:	f000 8087 	beq.w	8004c0a <HAL_GPIO_Init+0x1ba>
 8004afc:	f8df e158 	ldr.w	lr, [pc, #344]	@ 8004c58 <HAL_GPIO_Init+0x208>
 8004b00:	4570      	cmp	r0, lr
 8004b02:	f000 8097 	beq.w	8004c34 <HAL_GPIO_Init+0x1e4>
 8004b06:	f8df e154 	ldr.w	lr, [pc, #340]	@ 8004c5c <HAL_GPIO_Init+0x20c>
 8004b0a:	4570      	cmp	r0, lr
 8004b0c:	bf0c      	ite	eq
 8004b0e:	f04f 0e05 	moveq.w	lr, #5
 8004b12:	f04f 0e06 	movne.w	lr, #6
 8004b16:	fa0e fc0c 	lsl.w	ip, lr, ip
 8004b1a:	ea47 070c 	orr.w	r7, r7, ip
        SYSCFG->EXTICR[position >> 2U] = temp;
 8004b1e:	6097      	str	r7, [r2, #8]

        /* Clear Rising Falling edge configuration */
        temp = EXTI->RTSR1;
 8004b20:	4a4b      	ldr	r2, [pc, #300]	@ (8004c50 <HAL_GPIO_Init+0x200>)
 8004b22:	6892      	ldr	r2, [r2, #8]
        temp &= ~(iocurrent);
        if ((GPIO_Init->Mode & TRIGGER_RISING) != 0x00U)
 8004b24:	02ee      	lsls	r6, r5, #11
        temp &= ~(iocurrent);
 8004b26:	ea6f 070a 	mvn.w	r7, sl
        {
          temp |= iocurrent;
        }
        EXTI->RTSR1 = temp;
 8004b2a:	4e49      	ldr	r6, [pc, #292]	@ (8004c50 <HAL_GPIO_Init+0x200>)
        temp &= ~(iocurrent);
 8004b2c:	bf54      	ite	pl
 8004b2e:	403a      	andpl	r2, r7
          temp |= iocurrent;
 8004b30:	ea4a 0202 	orrmi.w	r2, sl, r2
        EXTI->RTSR1 = temp;
 8004b34:	60b2      	str	r2, [r6, #8]

        temp = EXTI->FTSR1;
 8004b36:	68f2      	ldr	r2, [r6, #12]
        temp &= ~(iocurrent);
        if ((GPIO_Init->Mode & TRIGGER_FALLING) != 0x00U)
 8004b38:	02ae      	lsls	r6, r5, #10
        {
          temp |= iocurrent;
        }
        EXTI->FTSR1 = temp;
 8004b3a:	4e45      	ldr	r6, [pc, #276]	@ (8004c50 <HAL_GPIO_Init+0x200>)
        temp &= ~(iocurrent);
 8004b3c:	bf54      	ite	pl
 8004b3e:	403a      	andpl	r2, r7
          temp |= iocurrent;
 8004b40:	ea4a 0202 	orrmi.w	r2, sl, r2
        EXTI->FTSR1 = temp;
 8004b44:	60f2      	str	r2, [r6, #12]

        temp = EXTI->EMR1;
 8004b46:	6872      	ldr	r2, [r6, #4]
        temp &= ~(iocurrent);
        if ((GPIO_Init->Mode & EXTI_EVT) != 0x00U)
 8004b48:	03ae      	lsls	r6, r5, #14
        {
          temp |= iocurrent;
        }
        EXTI->EMR1 = temp;
 8004b4a:	4e41      	ldr	r6, [pc, #260]	@ (8004c50 <HAL_GPIO_Init+0x200>)
        temp &= ~(iocurrent);
 8004b4c:	bf54      	ite	pl
 8004b4e:	403a      	andpl	r2, r7
          temp |= iocurrent;
 8004b50:	ea4a 0202 	orrmi.w	r2, sl, r2
        EXTI->EMR1 = temp;
 8004b54:	6072      	str	r2, [r6, #4]

        /* Clear EXTI line configuration */
        temp = EXTI->IMR1;
 8004b56:	6832      	ldr	r2, [r6, #0]
        temp &= ~(iocurrent);
        if ((GPIO_Init->Mode & EXTI_IT) != 0x00U)
 8004b58:	03ed      	lsls	r5, r5, #15
        {
          temp |= iocurrent;
        }
        EXTI->IMR1 = temp;
 8004b5a:	4d3d      	ldr	r5, [pc, #244]	@ (8004c50 <HAL_GPIO_Init+0x200>)
        temp &= ~(iocurrent);
 8004b5c:	bf54      	ite	pl
 8004b5e:	403a      	andpl	r2, r7
          temp |= iocurrent;
 8004b60:	ea4a 0202 	orrmi.w	r2, sl, r2
        EXTI->IMR1 = temp;
 8004b64:	602a      	str	r2, [r5, #0]
      }
    }

    position++;
 8004b66:	3301      	adds	r3, #1
  while (((GPIO_Init->Pin) >> position) != 0U)
 8004b68:	fa34 f203 	lsrs.w	r2, r4, r3
 8004b6c:	f47f af7a 	bne.w	8004a64 <HAL_GPIO_Init+0x14>
  }
}
 8004b70:	b005      	add	sp, #20
 8004b72:	e8bd 8ff0 	ldmia.w	sp!, {r4, r5, r6, r7, r8, r9, sl, fp, pc}
        temp = GPIOx->OSPEEDR;
 8004b76:	f8d0 9008 	ldr.w	r9, [r0, #8]
        temp |= (GPIO_Init->Speed << (position * 2U));
 8004b7a:	68ce      	ldr	r6, [r1, #12]
        temp &= ~(GPIO_OSPEEDR_OSPEED0 << (position * 2U));
 8004b7c:	ea09 0907 	and.w	r9, r9, r7
        temp |= (GPIO_Init->Speed << (position * 2U));
 8004b80:	fa06 f80c 	lsl.w	r8, r6, ip
 8004b84:	ea48 0809 	orr.w	r8, r8, r9
        GPIOx->OSPEEDR = temp;
 8004b88:	f8c0 8008 	str.w	r8, [r0, #8]
        temp = GPIOx->OTYPER;
 8004b8c:	f8d0 8004 	ldr.w	r8, [r0, #4]
        temp |= ((GPIO_Init->Pull) << (position * 2U));
 8004b90:	688e      	ldr	r6, [r1, #8]
        temp &= ~(GPIO_OTYPER_OT0 << position) ;
 8004b92:	ea28 080e 	bic.w	r8, r8, lr
        temp |= (((GPIO_Init->Mode & OUTPUT_TYPE) >> OUTPUT_TYPE_Pos) << position);
 8004b96:	f3c5 1e00 	ubfx	lr, r5, #4, #1
 8004b9a:	fa0e fe03 	lsl.w	lr, lr, r3
 8004b9e:	ea4e 0e08 	orr.w	lr, lr, r8
        GPIOx->OTYPER = temp;
 8004ba2:	f8c0 e004 	str.w	lr, [r0, #4]
        temp = GPIOx->PUPDR;
 8004ba6:	f8d0 800c 	ldr.w	r8, [r0, #12]
        temp |= ((GPIO_Init->Pull) << (position * 2U));
 8004baa:	fa06 fe0c 	lsl.w	lr, r6, ip
        temp &= ~(GPIO_PUPDR_PUPD0 << (position * 2U));
 8004bae:	ea08 0807 	and.w	r8, r8, r7
        temp |= ((GPIO_Init->Pull) << (position * 2U));
 8004bb2:	ea4e 0e08 	orr.w	lr, lr, r8
      if ((GPIO_Init->Mode & GPIO_MODE) == MODE_AF)
 8004bb6:	2a02      	cmp	r2, #2
        GPIOx->PUPDR = temp;
 8004bb8:	f8c0 e00c 	str.w	lr, [r0, #12]
      if ((GPIO_Init->Mode & GPIO_MODE) == MODE_AF)
 8004bbc:	f47f af69 	bne.w	8004a92 <HAL_GPIO_Init+0x42>
        temp |= ((GPIO_Init->Alternate) << ((position & 0x07U) * 4U));
 8004bc0:	690e      	ldr	r6, [r1, #16]
        temp = GPIOx->AFR[position >> 3U];
 8004bc2:	ea4f 08d3 	mov.w	r8, r3, lsr #3
        temp &= ~(0xFU << ((position & 0x07U) * 4U));
 8004bc6:	f003 0e07 	and.w	lr, r3, #7
 8004bca:	eb00 0888 	add.w	r8, r0, r8, lsl #2
 8004bce:	ea4f 0e8e 	mov.w	lr, lr, lsl #2
        temp |= ((GPIO_Init->Alternate) << ((position & 0x07U) * 4U));
 8004bd2:	fa06 f60e 	lsl.w	r6, r6, lr
        temp = GPIOx->AFR[position >> 3U];
 8004bd6:	f8d8 9020 	ldr.w	r9, [r8, #32]
        temp |= ((GPIO_Init->Alternate) << ((position & 0x07U) * 4U));
 8004bda:	9601      	str	r6, [sp, #4]
        temp &= ~(0xFU << ((position & 0x07U) * 4U));
 8004bdc:	260f      	movs	r6, #15
 8004bde:	fa06 fe0e 	lsl.w	lr, r6, lr
        temp |= ((GPIO_Init->Alternate) << ((position & 0x07U) * 4U));
 8004be2:	9e01      	ldr	r6, [sp, #4]
        temp &= ~(0xFU << ((position & 0x07U) * 4U));
 8004be4:	ea29 090e 	bic.w	r9, r9, lr
        temp |= ((GPIO_Init->Alternate) << ((position & 0x07U) * 4U));
 8004be8:	ea46 0e09 	orr.w	lr, r6, r9
        GPIOx->AFR[position >> 3U] = temp;
 8004bec:	f8c8 e020 	str.w	lr, [r8, #32]
 8004bf0:	e74f      	b.n	8004a92 <HAL_GPIO_Init+0x42>
        temp = GPIOx->PUPDR;
 8004bf2:	f8d0 800c 	ldr.w	r8, [r0, #12]
        temp |= ((GPIO_Init->Pull) << (position * 2U));
 8004bf6:	688e      	ldr	r6, [r1, #8]
        temp &= ~(GPIO_PUPDR_PUPD0 << (position * 2U));
 8004bf8:	ea08 0807 	and.w	r8, r8, r7
        temp |= ((GPIO_Init->Pull) << (position * 2U));
 8004bfc:	fa06 fe0c 	lsl.w	lr, r6, ip
 8004c00:	ea4e 0e08 	orr.w	lr, lr, r8
        GPIOx->PUPDR = temp;
 8004c04:	f8c0 e00c 	str.w	lr, [r0, #12]
      if ((GPIO_Init->Mode & GPIO_MODE) == MODE_AF)
 8004c08:	e743      	b.n	8004a92 <HAL_GPIO_Init+0x42>
        temp |= (GPIO_GET_INDEX(GPIOx) << (4U * (position & 0x03U)));
 8004c0a:	f04f 0e03 	mov.w	lr, #3
 8004c0e:	fa0e fc0c 	lsl.w	ip, lr, ip
 8004c12:	ea47 070c 	orr.w	r7, r7, ip
 8004c16:	e782      	b.n	8004b1e <HAL_GPIO_Init+0xce>
 8004c18:	f04f 0e01 	mov.w	lr, #1
 8004c1c:	fa0e fc0c 	lsl.w	ip, lr, ip
 8004c20:	ea47 070c 	orr.w	r7, r7, ip
 8004c24:	e77b      	b.n	8004b1e <HAL_GPIO_Init+0xce>
 8004c26:	f04f 0e02 	mov.w	lr, #2
 8004c2a:	fa0e fc0c 	lsl.w	ip, lr, ip
 8004c2e:	ea47 070c 	orr.w	r7, r7, ip
 8004c32:	e774      	b.n	8004b1e <HAL_GPIO_Init+0xce>
 8004c34:	f04f 0e04 	mov.w	lr, #4
 8004c38:	fa0e fc0c 	lsl.w	ip, lr, ip
 8004c3c:	ea47 070c 	orr.w	r7, r7, ip
 8004c40:	e76d      	b.n	8004b1e <HAL_GPIO_Init+0xce>
 8004c42:	bf00      	nop
 8004c44:	40021000 	.word	0x40021000
 8004c48:	48000400 	.word	0x48000400
 8004c4c:	48000800 	.word	0x48000800
 8004c50:	40010400 	.word	0x40010400
 8004c54:	48000c00 	.word	0x48000c00
 8004c58:	48001000 	.word	0x48001000
 8004c5c:	48001400 	.word	0x48001400

08004c60 <HAL_PWREx_ControlVoltageScaling>:
  assert_param(IS_PWR_VOLTAGE_SCALING_RANGE(VoltageScaling));

  if (VoltageScaling == PWR_REGULATOR_VOLTAGE_SCALE1_BOOST)
  {
    /* If current range is range 2 */
    if (READ_BIT(PWR->CR1, PWR_CR1_VOS) == PWR_REGULATOR_VOLTAGE_SCALE2)
 8004c60:	4a35      	ldr	r2, [pc, #212]	@ (8004d38 <HAL_PWREx_ControlVoltageScaling+0xd8>)
 8004c62:	6813      	ldr	r3, [r2, #0]
  if (VoltageScaling == PWR_REGULATOR_VOLTAGE_SCALE1_BOOST)
 8004c64:	b960      	cbnz	r0, 8004c80 <HAL_PWREx_ControlVoltageScaling+0x20>
    if (READ_BIT(PWR->CR1, PWR_CR1_VOS) == PWR_REGULATOR_VOLTAGE_SCALE2)
 8004c66:	f403 63c0 	and.w	r3, r3, #1536	@ 0x600
 8004c6a:	f5b3 6f80 	cmp.w	r3, #1024	@ 0x400
    {
      /* Make sure Range 1 Boost is enabled */
      CLEAR_BIT(PWR->CR5, PWR_CR5_R1MODE);
 8004c6e:	f8d2 3080 	ldr.w	r3, [r2, #128]	@ 0x80
    if (READ_BIT(PWR->CR1, PWR_CR1_VOS) == PWR_REGULATOR_VOLTAGE_SCALE2)
 8004c72:	d01b      	beq.n	8004cac <HAL_PWREx_ControlVoltageScaling+0x4c>
    }
    /* If current range is range 1 normal or boost mode */
    else
    {
      /* Enable Range 1 Boost (no issue if bit already reset) */
      CLEAR_BIT(PWR->CR5, PWR_CR5_R1MODE);
 8004c74:	f423 7380 	bic.w	r3, r3, #256	@ 0x100
 8004c78:	f8c2 3080 	str.w	r3, [r2, #128]	@ 0x80
    MODIFY_REG(PWR->CR1, PWR_CR1_VOS, PWR_REGULATOR_VOLTAGE_SCALE2);
    /* No need to wait for VOSF to be cleared for this transition */
    /* PWR_CR5_R1MODE bit setting has no effect in Range 2        */
  }

  return HAL_OK;
 8004c7c:	2000      	movs	r0, #0
}
 8004c7e:	4770      	bx	lr
  else if (VoltageScaling == PWR_REGULATOR_VOLTAGE_SCALE1)
 8004c80:	f5b0 7f00 	cmp.w	r0, #512	@ 0x200
 8004c84:	d006      	beq.n	8004c94 <HAL_PWREx_ControlVoltageScaling+0x34>
    MODIFY_REG(PWR->CR1, PWR_CR1_VOS, PWR_REGULATOR_VOLTAGE_SCALE2);
 8004c86:	f423 63c0 	bic.w	r3, r3, #1536	@ 0x600
 8004c8a:	f443 6380 	orr.w	r3, r3, #1024	@ 0x400
 8004c8e:	6013      	str	r3, [r2, #0]
  return HAL_OK;
 8004c90:	2000      	movs	r0, #0
}
 8004c92:	4770      	bx	lr
    if (READ_BIT(PWR->CR1, PWR_CR1_VOS) == PWR_REGULATOR_VOLTAGE_SCALE2)
 8004c94:	f403 63c0 	and.w	r3, r3, #1536	@ 0x600
 8004c98:	f5b3 6f80 	cmp.w	r3, #1024	@ 0x400
      SET_BIT(PWR->CR5, PWR_CR5_R1MODE);
 8004c9c:	f8d2 3080 	ldr.w	r3, [r2, #128]	@ 0x80
    if (READ_BIT(PWR->CR1, PWR_CR1_VOS) == PWR_REGULATOR_VOLTAGE_SCALE2)
 8004ca0:	d029      	beq.n	8004cf6 <HAL_PWREx_ControlVoltageScaling+0x96>
      SET_BIT(PWR->CR5, PWR_CR5_R1MODE);
 8004ca2:	f443 7380 	orr.w	r3, r3, #256	@ 0x100
 8004ca6:	f8c2 3080 	str.w	r3, [r2, #128]	@ 0x80
 8004caa:	e7f1      	b.n	8004c90 <HAL_PWREx_ControlVoltageScaling+0x30>
      CLEAR_BIT(PWR->CR5, PWR_CR5_R1MODE);
 8004cac:	f423 7380 	bic.w	r3, r3, #256	@ 0x100
 8004cb0:	f8c2 3080 	str.w	r3, [r2, #128]	@ 0x80
      MODIFY_REG(PWR->CR1, PWR_CR1_VOS, PWR_REGULATOR_VOLTAGE_SCALE1);
 8004cb4:	6813      	ldr	r3, [r2, #0]
      wait_loop_index = ((PWR_FLAG_SETTING_DELAY_US * SystemCoreClock) / 1000000U) + 1U;
 8004cb6:	4821      	ldr	r0, [pc, #132]	@ (8004d3c <HAL_PWREx_ControlVoltageScaling+0xdc>)
 8004cb8:	4921      	ldr	r1, [pc, #132]	@ (8004d40 <HAL_PWREx_ControlVoltageScaling+0xe0>)
      MODIFY_REG(PWR->CR1, PWR_CR1_VOS, PWR_REGULATOR_VOLTAGE_SCALE1);
 8004cba:	f423 63c0 	bic.w	r3, r3, #1536	@ 0x600
 8004cbe:	f443 7300 	orr.w	r3, r3, #512	@ 0x200
 8004cc2:	6013      	str	r3, [r2, #0]
      wait_loop_index = ((PWR_FLAG_SETTING_DELAY_US * SystemCoreClock) / 1000000U) + 1U;
 8004cc4:	6803      	ldr	r3, [r0, #0]
 8004cc6:	2032      	movs	r0, #50	@ 0x32
 8004cc8:	fb00 f303 	mul.w	r3, r0, r3
      while ((HAL_IS_BIT_SET(PWR->SR2, PWR_SR2_VOSF)) && (wait_loop_index != 0U))
 8004ccc:	6950      	ldr	r0, [r2, #20]
      wait_loop_index = ((PWR_FLAG_SETTING_DELAY_US * SystemCoreClock) / 1000000U) + 1U;
 8004cce:	fba1 1303 	umull	r1, r3, r1, r3
 8004cd2:	0c9b      	lsrs	r3, r3, #18
      while ((HAL_IS_BIT_SET(PWR->SR2, PWR_SR2_VOSF)) && (wait_loop_index != 0U))
 8004cd4:	0540      	lsls	r0, r0, #21
      wait_loop_index = ((PWR_FLAG_SETTING_DELAY_US * SystemCoreClock) / 1000000U) + 1U;
 8004cd6:	f103 0301 	add.w	r3, r3, #1
      while ((HAL_IS_BIT_SET(PWR->SR2, PWR_SR2_VOSF)) && (wait_loop_index != 0U))
 8004cda:	d506      	bpl.n	8004cea <HAL_PWREx_ControlVoltageScaling+0x8a>
 8004cdc:	e000      	b.n	8004ce0 <HAL_PWREx_ControlVoltageScaling+0x80>
 8004cde:	b123      	cbz	r3, 8004cea <HAL_PWREx_ControlVoltageScaling+0x8a>
 8004ce0:	6951      	ldr	r1, [r2, #20]
 8004ce2:	0549      	lsls	r1, r1, #21
        wait_loop_index--;
 8004ce4:	f103 33ff 	add.w	r3, r3, #4294967295
      while ((HAL_IS_BIT_SET(PWR->SR2, PWR_SR2_VOSF)) && (wait_loop_index != 0U))
 8004ce8:	d4f9      	bmi.n	8004cde <HAL_PWREx_ControlVoltageScaling+0x7e>
      if (HAL_IS_BIT_SET(PWR->SR2, PWR_SR2_VOSF))
 8004cea:	4b13      	ldr	r3, [pc, #76]	@ (8004d38 <HAL_PWREx_ControlVoltageScaling+0xd8>)
 8004cec:	695b      	ldr	r3, [r3, #20]
 8004cee:	055b      	lsls	r3, r3, #21
 8004cf0:	d5ce      	bpl.n	8004c90 <HAL_PWREx_ControlVoltageScaling+0x30>
        return HAL_TIMEOUT;
 8004cf2:	2003      	movs	r0, #3
 8004cf4:	4770      	bx	lr
      SET_BIT(PWR->CR5, PWR_CR5_R1MODE);
 8004cf6:	f443 7380 	orr.w	r3, r3, #256	@ 0x100
 8004cfa:	f8c2 3080 	str.w	r3, [r2, #128]	@ 0x80
      MODIFY_REG(PWR->CR1, PWR_CR1_VOS, PWR_REGULATOR_VOLTAGE_SCALE1);
 8004cfe:	6813      	ldr	r3, [r2, #0]
      wait_loop_index = ((PWR_FLAG_SETTING_DELAY_US * SystemCoreClock) / 1000000U) + 1U;
 8004d00:	480e      	ldr	r0, [pc, #56]	@ (8004d3c <HAL_PWREx_ControlVoltageScaling+0xdc>)
 8004d02:	490f      	ldr	r1, [pc, #60]	@ (8004d40 <HAL_PWREx_ControlVoltageScaling+0xe0>)
      MODIFY_REG(PWR->CR1, PWR_CR1_VOS, PWR_REGULATOR_VOLTAGE_SCALE1);
 8004d04:	f423 63c0 	bic.w	r3, r3, #1536	@ 0x600
 8004d08:	f443 7300 	orr.w	r3, r3, #512	@ 0x200
 8004d0c:	6013      	str	r3, [r2, #0]
      wait_loop_index = ((PWR_FLAG_SETTING_DELAY_US * SystemCoreClock) / 1000000U) + 1U;
 8004d0e:	6803      	ldr	r3, [r0, #0]
 8004d10:	2032      	movs	r0, #50	@ 0x32
 8004d12:	fb00 f303 	mul.w	r3, r0, r3
      while ((HAL_IS_BIT_SET(PWR->SR2, PWR_SR2_VOSF)) && (wait_loop_index != 0U))
 8004d16:	6950      	ldr	r0, [r2, #20]
      wait_loop_index = ((PWR_FLAG_SETTING_DELAY_US * SystemCoreClock) / 1000000U) + 1U;
 8004d18:	fba1 1303 	umull	r1, r3, r1, r3
 8004d1c:	0c9b      	lsrs	r3, r3, #18
      while ((HAL_IS_BIT_SET(PWR->SR2, PWR_SR2_VOSF)) && (wait_loop_index != 0U))
 8004d1e:	0540      	lsls	r0, r0, #21
      wait_loop_index = ((PWR_FLAG_SETTING_DELAY_US * SystemCoreClock) / 1000000U) + 1U;
 8004d20:	f103 0301 	add.w	r3, r3, #1
      while ((HAL_IS_BIT_SET(PWR->SR2, PWR_SR2_VOSF)) && (wait_loop_index != 0U))
 8004d24:	d5e1      	bpl.n	8004cea <HAL_PWREx_ControlVoltageScaling+0x8a>
 8004d26:	e001      	b.n	8004d2c <HAL_PWREx_ControlVoltageScaling+0xcc>
 8004d28:	2b00      	cmp	r3, #0
 8004d2a:	d0de      	beq.n	8004cea <HAL_PWREx_ControlVoltageScaling+0x8a>
 8004d2c:	6951      	ldr	r1, [r2, #20]
 8004d2e:	0549      	lsls	r1, r1, #21
        wait_loop_index--;
 8004d30:	f103 33ff 	add.w	r3, r3, #4294967295
      while ((HAL_IS_BIT_SET(PWR->SR2, PWR_SR2_VOSF)) && (wait_loop_index != 0U))
 8004d34:	d5d9      	bpl.n	8004cea <HAL_PWREx_ControlVoltageScaling+0x8a>
 8004d36:	e7f7      	b.n	8004d28 <HAL_PWREx_ControlVoltageScaling+0xc8>
 8004d38:	40007000 	.word	0x40007000
 8004d3c:	20000028 	.word	0x20000028
 8004d40:	431bde83 	.word	0x431bde83

08004d44 <HAL_PWREx_DisableUCPDDeadBattery>:
  * @retval None
  */
void HAL_PWREx_DisableUCPDDeadBattery(void)
{
  /* Write 1 to disable the USB Type-C dead battery pull-down behavior */
  SET_BIT(PWR->CR3, PWR_CR3_UCPD_DBDIS);
 8004d44:	4a02      	ldr	r2, [pc, #8]	@ (8004d50 <HAL_PWREx_DisableUCPDDeadBattery+0xc>)
 8004d46:	6893      	ldr	r3, [r2, #8]
 8004d48:	f443 4380 	orr.w	r3, r3, #16384	@ 0x4000
 8004d4c:	6093      	str	r3, [r2, #8]
}
 8004d4e:	4770      	bx	lr
 8004d50:	40007000 	.word	0x40007000

08004d54 <HAL_RCC_OscConfig>:
  uint32_t tickstart;
  uint32_t temp_sysclksrc;
  uint32_t temp_pllckcfg;

  /* Check Null pointer */
  if (RCC_OscInitStruct == NULL)
 8004d54:	2800      	cmp	r0, #0
 8004d56:	f000 81bd 	beq.w	80050d4 <HAL_RCC_OscConfig+0x380>
{
 8004d5a:	e92d 41f0 	stmdb	sp!, {r4, r5, r6, r7, r8, lr}

  /* Check the parameters */
  assert_param(IS_RCC_OSCILLATORTYPE(RCC_OscInitStruct->OscillatorType));

  /*------------------------------- HSE Configuration ------------------------*/
  if (((RCC_OscInitStruct->OscillatorType) & RCC_OSCILLATORTYPE_HSE) == RCC_OSCILLATORTYPE_HSE)
 8004d5e:	6803      	ldr	r3, [r0, #0]
 8004d60:	07d9      	lsls	r1, r3, #31
{
 8004d62:	b082      	sub	sp, #8
 8004d64:	4604      	mov	r4, r0
  if (((RCC_OscInitStruct->OscillatorType) & RCC_OSCILLATORTYPE_HSE) == RCC_OSCILLATORTYPE_HSE)
 8004d66:	d512      	bpl.n	8004d8e <HAL_RCC_OscConfig+0x3a>
  {
    /* Check the parameters */
    assert_param(IS_RCC_HSE(RCC_OscInitStruct->HSEState));

    temp_sysclksrc = __HAL_RCC_GET_SYSCLK_SOURCE();
 8004d68:	49a6      	ldr	r1, [pc, #664]	@ (8005004 <HAL_RCC_OscConfig+0x2b0>)
 8004d6a:	688a      	ldr	r2, [r1, #8]
    temp_pllckcfg = __HAL_RCC_GET_PLL_OSCSOURCE();
 8004d6c:	68c9      	ldr	r1, [r1, #12]
    temp_sysclksrc = __HAL_RCC_GET_SYSCLK_SOURCE();
 8004d6e:	f002 020c 	and.w	r2, r2, #12

    /* When the HSE is used as system clock or clock source for PLL in these cases it is not allowed to be disabled */
    if (((temp_sysclksrc == RCC_CFGR_SWS_PLL) && (temp_pllckcfg == RCC_PLLSOURCE_HSE)) || (temp_sysclksrc == RCC_CFGR_SWS_HSE))
 8004d72:	2a0c      	cmp	r2, #12
 8004d74:	f000 80d0 	beq.w	8004f18 <HAL_RCC_OscConfig+0x1c4>
 8004d78:	2a08      	cmp	r2, #8
 8004d7a:	f040 80d2 	bne.w	8004f22 <HAL_RCC_OscConfig+0x1ce>
    {
      if ((READ_BIT(RCC->CR, RCC_CR_HSERDY) != 0U) && (RCC_OscInitStruct->HSEState == RCC_HSE_OFF))
 8004d7e:	4aa1      	ldr	r2, [pc, #644]	@ (8005004 <HAL_RCC_OscConfig+0x2b0>)
 8004d80:	6812      	ldr	r2, [r2, #0]
 8004d82:	0392      	lsls	r2, r2, #14
 8004d84:	d503      	bpl.n	8004d8e <HAL_RCC_OscConfig+0x3a>
 8004d86:	6862      	ldr	r2, [r4, #4]
 8004d88:	2a00      	cmp	r2, #0
 8004d8a:	f000 8137 	beq.w	8004ffc <HAL_RCC_OscConfig+0x2a8>
        }
      }
    }
  }
  /*----------------------------- HSI Configuration --------------------------*/
  if (((RCC_OscInitStruct->OscillatorType) & RCC_OSCILLATORTYPE_HSI) == RCC_OSCILLATORTYPE_HSI)
 8004d8e:	079a      	lsls	r2, r3, #30
 8004d90:	d522      	bpl.n	8004dd8 <HAL_RCC_OscConfig+0x84>
    /* Check the parameters */
    assert_param(IS_RCC_HSI(RCC_OscInitStruct->HSIState));
    assert_param(IS_RCC_HSI_CALIBRATION_VALUE(RCC_OscInitStruct->HSICalibrationValue));

    /* Check if HSI is used as system clock or as PLL source when PLL is selected as system clock */
    temp_sysclksrc = __HAL_RCC_GET_SYSCLK_SOURCE();
 8004d92:	4a9c      	ldr	r2, [pc, #624]	@ (8005004 <HAL_RCC_OscConfig+0x2b0>)
 8004d94:	6893      	ldr	r3, [r2, #8]
    temp_pllckcfg = __HAL_RCC_GET_PLL_OSCSOURCE();
 8004d96:	68d2      	ldr	r2, [r2, #12]
    temp_sysclksrc = __HAL_RCC_GET_SYSCLK_SOURCE();
 8004d98:	f003 030c 	and.w	r3, r3, #12
    if (((temp_sysclksrc == RCC_CFGR_SWS_PLL) && (temp_pllckcfg == RCC_PLLSOURCE_HSI)) || (temp_sysclksrc == RCC_CFGR_SWS_HSI))
 8004d9c:	2b0c      	cmp	r3, #12
 8004d9e:	f000 80f8 	beq.w	8004f92 <HAL_RCC_OscConfig+0x23e>
 8004da2:	2b04      	cmp	r3, #4
 8004da4:	f040 80fa 	bne.w	8004f9c <HAL_RCC_OscConfig+0x248>
    {
      /* When HSI is used as system clock it will not be disabled */
      if ((READ_BIT(RCC->CR, RCC_CR_HSIRDY) != 0U) && (RCC_OscInitStruct->HSIState == RCC_HSI_OFF))
 8004da8:	4b96      	ldr	r3, [pc, #600]	@ (8005004 <HAL_RCC_OscConfig+0x2b0>)
 8004daa:	681b      	ldr	r3, [r3, #0]
 8004dac:	055b      	lsls	r3, r3, #21
 8004dae:	d503      	bpl.n	8004db8 <HAL_RCC_OscConfig+0x64>
 8004db0:	68e3      	ldr	r3, [r4, #12]
 8004db2:	2b00      	cmp	r3, #0
 8004db4:	f000 8122 	beq.w	8004ffc <HAL_RCC_OscConfig+0x2a8>
      }
      /* Otherwise, just the calibration is allowed */
      else
      {
        /* Adjusts the Internal High Speed oscillator (HSI) calibration value.*/
        __HAL_RCC_HSI_CALIBRATIONVALUE_ADJUST(RCC_OscInitStruct->HSICalibrationValue);
 8004db8:	4a92      	ldr	r2, [pc, #584]	@ (8005004 <HAL_RCC_OscConfig+0x2b0>)
 8004dba:	6920      	ldr	r0, [r4, #16]
 8004dbc:	6853      	ldr	r3, [r2, #4]

        /* Adapt Systick interrupt period */
        if (HAL_InitTick(uwTickPrio) != HAL_OK)
 8004dbe:	4992      	ldr	r1, [pc, #584]	@ (8005008 <HAL_RCC_OscConfig+0x2b4>)
        __HAL_RCC_HSI_CALIBRATIONVALUE_ADJUST(RCC_OscInitStruct->HSICalibrationValue);
 8004dc0:	f023 43fe 	bic.w	r3, r3, #2130706432	@ 0x7f000000
 8004dc4:	ea43 6300 	orr.w	r3, r3, r0, lsl #24
 8004dc8:	6053      	str	r3, [r2, #4]
        if (HAL_InitTick(uwTickPrio) != HAL_OK)
 8004dca:	6808      	ldr	r0, [r1, #0]
 8004dcc:	f7fe fcc6 	bl	800375c <HAL_InitTick>
 8004dd0:	2800      	cmp	r0, #0
 8004dd2:	f040 8113 	bne.w	8004ffc <HAL_RCC_OscConfig+0x2a8>
        }
      }
    }
  }
  /*------------------------------ LSI Configuration -------------------------*/
  if (((RCC_OscInitStruct->OscillatorType) & RCC_OSCILLATORTYPE_LSI) == RCC_OSCILLATORTYPE_LSI)
 8004dd6:	6823      	ldr	r3, [r4, #0]
 8004dd8:	071a      	lsls	r2, r3, #28
 8004dda:	d519      	bpl.n	8004e10 <HAL_RCC_OscConfig+0xbc>
  {
    /* Check the parameters */
    assert_param(IS_RCC_LSI(RCC_OscInitStruct->LSIState));

    /* Check the LSI State */
    if(RCC_OscInitStruct->LSIState != RCC_LSI_OFF)
 8004ddc:	6963      	ldr	r3, [r4, #20]
    {
      /* Enable the Internal Low Speed oscillator (LSI). */
      __HAL_RCC_LSI_ENABLE();
 8004dde:	4d89      	ldr	r5, [pc, #548]	@ (8005004 <HAL_RCC_OscConfig+0x2b0>)
    if(RCC_OscInitStruct->LSIState != RCC_LSI_OFF)
 8004de0:	2b00      	cmp	r3, #0
 8004de2:	f000 80c2 	beq.w	8004f6a <HAL_RCC_OscConfig+0x216>
      __HAL_RCC_LSI_ENABLE();
 8004de6:	f8d5 3094 	ldr.w	r3, [r5, #148]	@ 0x94
 8004dea:	f043 0301 	orr.w	r3, r3, #1
 8004dee:	f8c5 3094 	str.w	r3, [r5, #148]	@ 0x94

      /* Get Start Tick*/
      tickstart = HAL_GetTick();
 8004df2:	f7fe fcf5 	bl	80037e0 <HAL_GetTick>
 8004df6:	4606      	mov	r6, r0

      /* Wait till LSI is ready */
      while (READ_BIT(RCC->CSR, RCC_CSR_LSIRDY) == 0U)
 8004df8:	e005      	b.n	8004e06 <HAL_RCC_OscConfig+0xb2>
      {
        if ((HAL_GetTick() - tickstart) > LSI_TIMEOUT_VALUE)
 8004dfa:	f7fe fcf1 	bl	80037e0 <HAL_GetTick>
 8004dfe:	1b80      	subs	r0, r0, r6
 8004e00:	2802      	cmp	r0, #2
 8004e02:	f200 8117 	bhi.w	8005034 <HAL_RCC_OscConfig+0x2e0>
      while (READ_BIT(RCC->CSR, RCC_CSR_LSIRDY) == 0U)
 8004e06:	f8d5 3094 	ldr.w	r3, [r5, #148]	@ 0x94
 8004e0a:	079b      	lsls	r3, r3, #30
 8004e0c:	d5f5      	bpl.n	8004dfa <HAL_RCC_OscConfig+0xa6>
        }
      }
    }
  }
  /*------------------------------ LSE Configuration -------------------------*/
  if (((RCC_OscInitStruct->OscillatorType) & RCC_OSCILLATORTYPE_LSE) == RCC_OSCILLATORTYPE_LSE)
 8004e0e:	6823      	ldr	r3, [r4, #0]
 8004e10:	075d      	lsls	r5, r3, #29
 8004e12:	d541      	bpl.n	8004e98 <HAL_RCC_OscConfig+0x144>
    /* Check the parameters */
    assert_param(IS_RCC_LSE(RCC_OscInitStruct->LSEState));

    /* Update LSE configuration in Backup Domain control register    */
    /* Requires to enable write access to Backup Domain if necessary */
    if (__HAL_RCC_PWR_IS_CLK_DISABLED() != 0U)
 8004e14:	4b7b      	ldr	r3, [pc, #492]	@ (8005004 <HAL_RCC_OscConfig+0x2b0>)
 8004e16:	6d9a      	ldr	r2, [r3, #88]	@ 0x58
 8004e18:	00d0      	lsls	r0, r2, #3
 8004e1a:	f100 810f 	bmi.w	800503c <HAL_RCC_OscConfig+0x2e8>
    {
      __HAL_RCC_PWR_CLK_ENABLE();
 8004e1e:	6d9a      	ldr	r2, [r3, #88]	@ 0x58
 8004e20:	f042 5280 	orr.w	r2, r2, #268435456	@ 0x10000000
 8004e24:	659a      	str	r2, [r3, #88]	@ 0x58
 8004e26:	6d9b      	ldr	r3, [r3, #88]	@ 0x58
 8004e28:	f003 5380 	and.w	r3, r3, #268435456	@ 0x10000000
 8004e2c:	9301      	str	r3, [sp, #4]
 8004e2e:	9b01      	ldr	r3, [sp, #4]
      pwrclkchanged = SET;
 8004e30:	2501      	movs	r5, #1
    }

    if (HAL_IS_BIT_CLR(PWR->CR1, PWR_CR1_DBP))
 8004e32:	4e76      	ldr	r6, [pc, #472]	@ (800500c <HAL_RCC_OscConfig+0x2b8>)
 8004e34:	6833      	ldr	r3, [r6, #0]
 8004e36:	05d9      	lsls	r1, r3, #23
 8004e38:	f140 812e 	bpl.w	8005098 <HAL_RCC_OscConfig+0x344>
        }
      }
    }

    /* Set the new LSE configuration -----------------------------------------*/
    __HAL_RCC_LSE_CONFIG(RCC_OscInitStruct->LSEState);
 8004e3c:	68a3      	ldr	r3, [r4, #8]
 8004e3e:	2b01      	cmp	r3, #1
 8004e40:	f000 80fe 	beq.w	8005040 <HAL_RCC_OscConfig+0x2ec>
 8004e44:	2b05      	cmp	r3, #5
 8004e46:	f000 8184 	beq.w	8005152 <HAL_RCC_OscConfig+0x3fe>
 8004e4a:	4e6e      	ldr	r6, [pc, #440]	@ (8005004 <HAL_RCC_OscConfig+0x2b0>)
 8004e4c:	f8d6 2090 	ldr.w	r2, [r6, #144]	@ 0x90
 8004e50:	f022 0201 	bic.w	r2, r2, #1
 8004e54:	f8c6 2090 	str.w	r2, [r6, #144]	@ 0x90
 8004e58:	f8d6 2090 	ldr.w	r2, [r6, #144]	@ 0x90
 8004e5c:	f022 0204 	bic.w	r2, r2, #4
 8004e60:	f8c6 2090 	str.w	r2, [r6, #144]	@ 0x90

    /* Check the LSE State */
    if (RCC_OscInitStruct->LSEState != RCC_LSE_OFF)
 8004e64:	2b00      	cmp	r3, #0
 8004e66:	f040 80f2 	bne.w	800504e <HAL_RCC_OscConfig+0x2fa>
      }
    }
    else
    {
      /* Get Start Tick*/
      tickstart = HAL_GetTick();
 8004e6a:	f7fe fcb9 	bl	80037e0 <HAL_GetTick>

      /* Wait till LSE is disabled */
      while (READ_BIT(RCC->BDCR, RCC_BDCR_LSERDY) != 0U)
      {
        if((HAL_GetTick() - tickstart) > RCC_LSE_TIMEOUT_VALUE)
 8004e6e:	f241 3888 	movw	r8, #5000	@ 0x1388
      tickstart = HAL_GetTick();
 8004e72:	4607      	mov	r7, r0
      while (READ_BIT(RCC->BDCR, RCC_BDCR_LSERDY) != 0U)
 8004e74:	e005      	b.n	8004e82 <HAL_RCC_OscConfig+0x12e>
        if((HAL_GetTick() - tickstart) > RCC_LSE_TIMEOUT_VALUE)
 8004e76:	f7fe fcb3 	bl	80037e0 <HAL_GetTick>
 8004e7a:	1bc0      	subs	r0, r0, r7
 8004e7c:	4540      	cmp	r0, r8
 8004e7e:	f200 80d9 	bhi.w	8005034 <HAL_RCC_OscConfig+0x2e0>
      while (READ_BIT(RCC->BDCR, RCC_BDCR_LSERDY) != 0U)
 8004e82:	f8d6 3090 	ldr.w	r3, [r6, #144]	@ 0x90
 8004e86:	0799      	lsls	r1, r3, #30
 8004e88:	d4f5      	bmi.n	8004e76 <HAL_RCC_OscConfig+0x122>
        }
      }
    }

    /* Restore clock configuration if changed */
    if (pwrclkchanged == SET)
 8004e8a:	b125      	cbz	r5, 8004e96 <HAL_RCC_OscConfig+0x142>
    {
      __HAL_RCC_PWR_CLK_DISABLE();
 8004e8c:	4a5d      	ldr	r2, [pc, #372]	@ (8005004 <HAL_RCC_OscConfig+0x2b0>)
 8004e8e:	6d93      	ldr	r3, [r2, #88]	@ 0x58
 8004e90:	f023 5380 	bic.w	r3, r3, #268435456	@ 0x10000000
 8004e94:	6593      	str	r3, [r2, #88]	@ 0x58
    }
  }

  /*------------------------------ HSI48 Configuration -----------------------*/
  if(((RCC_OscInitStruct->OscillatorType) & RCC_OSCILLATORTYPE_HSI48) == RCC_OSCILLATORTYPE_HSI48)
 8004e96:	6823      	ldr	r3, [r4, #0]
 8004e98:	069a      	lsls	r2, r3, #26
 8004e9a:	d518      	bpl.n	8004ece <HAL_RCC_OscConfig+0x17a>
  {
    /* Check the parameters */
    assert_param(IS_RCC_HSI48(RCC_OscInitStruct->HSI48State));

    /* Check the HSI48 State */
    if(RCC_OscInitStruct->HSI48State != RCC_HSI48_OFF)
 8004e9c:	69a3      	ldr	r3, [r4, #24]
    {
      /* Enable the Internal Low Speed oscillator (HSI48). */
      __HAL_RCC_HSI48_ENABLE();
 8004e9e:	4d59      	ldr	r5, [pc, #356]	@ (8005004 <HAL_RCC_OscConfig+0x2b0>)
    if(RCC_OscInitStruct->HSI48State != RCC_HSI48_OFF)
 8004ea0:	2b00      	cmp	r3, #0
 8004ea2:	f000 80e5 	beq.w	8005070 <HAL_RCC_OscConfig+0x31c>
      __HAL_RCC_HSI48_ENABLE();
 8004ea6:	f8d5 3098 	ldr.w	r3, [r5, #152]	@ 0x98
 8004eaa:	f043 0301 	orr.w	r3, r3, #1
 8004eae:	f8c5 3098 	str.w	r3, [r5, #152]	@ 0x98

      /* Get Start Tick*/
      tickstart = HAL_GetTick();
 8004eb2:	f7fe fc95 	bl	80037e0 <HAL_GetTick>
 8004eb6:	4606      	mov	r6, r0

      /* Wait till HSI48 is ready */
      while(READ_BIT(RCC->CRRCR, RCC_CRRCR_HSI48RDY) == 0U)
 8004eb8:	e005      	b.n	8004ec6 <HAL_RCC_OscConfig+0x172>
      {
        if((HAL_GetTick() - tickstart) > HSI48_TIMEOUT_VALUE)
 8004eba:	f7fe fc91 	bl	80037e0 <HAL_GetTick>
 8004ebe:	1b80      	subs	r0, r0, r6
 8004ec0:	2802      	cmp	r0, #2
 8004ec2:	f200 80b7 	bhi.w	8005034 <HAL_RCC_OscConfig+0x2e0>
      while(READ_BIT(RCC->CRRCR, RCC_CRRCR_HSI48RDY) == 0U)
 8004ec6:	f8d5 3098 	ldr.w	r3, [r5, #152]	@ 0x98
 8004eca:	079b      	lsls	r3, r3, #30
 8004ecc:	d5f5      	bpl.n	8004eba <HAL_RCC_OscConfig+0x166>

  /*-------------------------------- PLL Configuration -----------------------*/
  /* Check the parameters */
  assert_param(IS_RCC_PLL(RCC_OscInitStruct->PLL.PLLState));

  if (RCC_OscInitStruct->PLL.PLLState != RCC_PLL_NONE)
 8004ece:	69e3      	ldr	r3, [r4, #28]
 8004ed0:	b1f3      	cbz	r3, 8004f10 <HAL_RCC_OscConfig+0x1bc>
  {
    /* Check if the PLL is used as system clock or not */
    if (__HAL_RCC_GET_SYSCLK_SOURCE() != RCC_CFGR_SWS_PLL)
 8004ed2:	4d4c      	ldr	r5, [pc, #304]	@ (8005004 <HAL_RCC_OscConfig+0x2b0>)
 8004ed4:	68aa      	ldr	r2, [r5, #8]
 8004ed6:	f002 020c 	and.w	r2, r2, #12
 8004eda:	2a0c      	cmp	r2, #12
 8004edc:	f000 8147 	beq.w	800516e <HAL_RCC_OscConfig+0x41a>
    {
      if (RCC_OscInitStruct->PLL.PLLState == RCC_PLL_ON)
 8004ee0:	2b02      	cmp	r3, #2
        assert_param(IS_RCC_PLLP_VALUE(RCC_OscInitStruct->PLL.PLLP));
        assert_param(IS_RCC_PLLQ_VALUE(RCC_OscInitStruct->PLL.PLLQ));
        assert_param(IS_RCC_PLLR_VALUE(RCC_OscInitStruct->PLL.PLLR));

        /* Disable the main PLL. */
        __HAL_RCC_PLL_DISABLE();
 8004ee2:	682b      	ldr	r3, [r5, #0]
 8004ee4:	f023 7380 	bic.w	r3, r3, #16777216	@ 0x1000000
 8004ee8:	602b      	str	r3, [r5, #0]
      if (RCC_OscInitStruct->PLL.PLLState == RCC_PLL_ON)
 8004eea:	f000 80f5 	beq.w	80050d8 <HAL_RCC_OscConfig+0x384>
      {
        /* Disable the main PLL. */
        __HAL_RCC_PLL_DISABLE();

        /* Get Start Tick*/
        tickstart = HAL_GetTick();
 8004eee:	f7fe fc77 	bl	80037e0 <HAL_GetTick>
 8004ef2:	4604      	mov	r4, r0

        /* Wait till PLL is disabled */
        while (READ_BIT(RCC->CR, RCC_CR_PLLRDY) != 0U)
 8004ef4:	e005      	b.n	8004f02 <HAL_RCC_OscConfig+0x1ae>
        {
          if ((HAL_GetTick() - tickstart) > PLL_TIMEOUT_VALUE)
 8004ef6:	f7fe fc73 	bl	80037e0 <HAL_GetTick>
 8004efa:	1b00      	subs	r0, r0, r4
 8004efc:	2802      	cmp	r0, #2
 8004efe:	f200 8099 	bhi.w	8005034 <HAL_RCC_OscConfig+0x2e0>
        while (READ_BIT(RCC->CR, RCC_CR_PLLRDY) != 0U)
 8004f02:	682b      	ldr	r3, [r5, #0]
 8004f04:	019b      	lsls	r3, r3, #6
 8004f06:	d4f6      	bmi.n	8004ef6 <HAL_RCC_OscConfig+0x1a2>
            return HAL_TIMEOUT;
          }
        }

        /* Unselect PLL clock source and disable outputs to save power */
        RCC->PLLCFGR &= ~(RCC_PLLCFGR_PLLSRC | RCC_PLL_SYSCLK | RCC_PLL_48M1CLK | RCC_PLL_ADCCLK);
 8004f08:	68ea      	ldr	r2, [r5, #12]
 8004f0a:	4b41      	ldr	r3, [pc, #260]	@ (8005010 <HAL_RCC_OscConfig+0x2bc>)
 8004f0c:	4013      	ands	r3, r2
 8004f0e:	60eb      	str	r3, [r5, #12]
      }
    }
  }
  }

  return HAL_OK;
 8004f10:	2000      	movs	r0, #0
}
 8004f12:	b002      	add	sp, #8
 8004f14:	e8bd 81f0 	ldmia.w	sp!, {r4, r5, r6, r7, r8, pc}
    temp_pllckcfg = __HAL_RCC_GET_PLL_OSCSOURCE();
 8004f18:	f001 0103 	and.w	r1, r1, #3
    if (((temp_sysclksrc == RCC_CFGR_SWS_PLL) && (temp_pllckcfg == RCC_PLLSOURCE_HSE)) || (temp_sysclksrc == RCC_CFGR_SWS_HSE))
 8004f1c:	2903      	cmp	r1, #3
 8004f1e:	f43f af2e 	beq.w	8004d7e <HAL_RCC_OscConfig+0x2a>
      __HAL_RCC_HSE_CONFIG(RCC_OscInitStruct->HSEState);
 8004f22:	6863      	ldr	r3, [r4, #4]
 8004f24:	f5b3 3f80 	cmp.w	r3, #65536	@ 0x10000
 8004f28:	d055      	beq.n	8004fd6 <HAL_RCC_OscConfig+0x282>
 8004f2a:	f5b3 2fa0 	cmp.w	r3, #327680	@ 0x50000
 8004f2e:	f000 80c4 	beq.w	80050ba <HAL_RCC_OscConfig+0x366>
 8004f32:	4d34      	ldr	r5, [pc, #208]	@ (8005004 <HAL_RCC_OscConfig+0x2b0>)
 8004f34:	682a      	ldr	r2, [r5, #0]
 8004f36:	f422 3280 	bic.w	r2, r2, #65536	@ 0x10000
 8004f3a:	602a      	str	r2, [r5, #0]
 8004f3c:	682a      	ldr	r2, [r5, #0]
 8004f3e:	f422 2280 	bic.w	r2, r2, #262144	@ 0x40000
 8004f42:	602a      	str	r2, [r5, #0]
      if (RCC_OscInitStruct->HSEState != RCC_HSE_OFF)
 8004f44:	2b00      	cmp	r3, #0
 8004f46:	d14b      	bne.n	8004fe0 <HAL_RCC_OscConfig+0x28c>
        tickstart = HAL_GetTick();
 8004f48:	f7fe fc4a 	bl	80037e0 <HAL_GetTick>
 8004f4c:	4606      	mov	r6, r0
        while (READ_BIT(RCC->CR, RCC_CR_HSERDY) != 0U)
 8004f4e:	e004      	b.n	8004f5a <HAL_RCC_OscConfig+0x206>
          if ((HAL_GetTick() - tickstart) > HSE_TIMEOUT_VALUE)
 8004f50:	f7fe fc46 	bl	80037e0 <HAL_GetTick>
 8004f54:	1b80      	subs	r0, r0, r6
 8004f56:	2864      	cmp	r0, #100	@ 0x64
 8004f58:	d86c      	bhi.n	8005034 <HAL_RCC_OscConfig+0x2e0>
        while (READ_BIT(RCC->CR, RCC_CR_HSERDY) != 0U)
 8004f5a:	682b      	ldr	r3, [r5, #0]
 8004f5c:	0399      	lsls	r1, r3, #14
 8004f5e:	d4f7      	bmi.n	8004f50 <HAL_RCC_OscConfig+0x1fc>
  if (((RCC_OscInitStruct->OscillatorType) & RCC_OSCILLATORTYPE_HSI) == RCC_OSCILLATORTYPE_HSI)
 8004f60:	6823      	ldr	r3, [r4, #0]
 8004f62:	079a      	lsls	r2, r3, #30
 8004f64:	f57f af38 	bpl.w	8004dd8 <HAL_RCC_OscConfig+0x84>
 8004f68:	e713      	b.n	8004d92 <HAL_RCC_OscConfig+0x3e>
      __HAL_RCC_LSI_DISABLE();
 8004f6a:	f8d5 3094 	ldr.w	r3, [r5, #148]	@ 0x94
 8004f6e:	f023 0301 	bic.w	r3, r3, #1
 8004f72:	f8c5 3094 	str.w	r3, [r5, #148]	@ 0x94
      tickstart = HAL_GetTick();
 8004f76:	f7fe fc33 	bl	80037e0 <HAL_GetTick>
 8004f7a:	4606      	mov	r6, r0
      while(READ_BIT(RCC->CSR, RCC_CSR_LSIRDY) != 0U)
 8004f7c:	e004      	b.n	8004f88 <HAL_RCC_OscConfig+0x234>
        if((HAL_GetTick() - tickstart) > LSI_TIMEOUT_VALUE)
 8004f7e:	f7fe fc2f 	bl	80037e0 <HAL_GetTick>
 8004f82:	1b80      	subs	r0, r0, r6
 8004f84:	2802      	cmp	r0, #2
 8004f86:	d855      	bhi.n	8005034 <HAL_RCC_OscConfig+0x2e0>
      while(READ_BIT(RCC->CSR, RCC_CSR_LSIRDY) != 0U)
 8004f88:	f8d5 3094 	ldr.w	r3, [r5, #148]	@ 0x94
 8004f8c:	079f      	lsls	r7, r3, #30
 8004f8e:	d4f6      	bmi.n	8004f7e <HAL_RCC_OscConfig+0x22a>
 8004f90:	e73d      	b.n	8004e0e <HAL_RCC_OscConfig+0xba>
    temp_pllckcfg = __HAL_RCC_GET_PLL_OSCSOURCE();
 8004f92:	f002 0203 	and.w	r2, r2, #3
    if (((temp_sysclksrc == RCC_CFGR_SWS_PLL) && (temp_pllckcfg == RCC_PLLSOURCE_HSI)) || (temp_sysclksrc == RCC_CFGR_SWS_HSI))
 8004f96:	2a02      	cmp	r2, #2
 8004f98:	f43f af06 	beq.w	8004da8 <HAL_RCC_OscConfig+0x54>
      if (RCC_OscInitStruct->HSIState != RCC_HSI_OFF)
 8004f9c:	68e3      	ldr	r3, [r4, #12]
        __HAL_RCC_HSI_ENABLE();
 8004f9e:	4d19      	ldr	r5, [pc, #100]	@ (8005004 <HAL_RCC_OscConfig+0x2b0>)
      if (RCC_OscInitStruct->HSIState != RCC_HSI_OFF)
 8004fa0:	2b00      	cmp	r3, #0
 8004fa2:	d037      	beq.n	8005014 <HAL_RCC_OscConfig+0x2c0>
        __HAL_RCC_HSI_ENABLE();
 8004fa4:	682b      	ldr	r3, [r5, #0]
 8004fa6:	f443 7380 	orr.w	r3, r3, #256	@ 0x100
 8004faa:	602b      	str	r3, [r5, #0]
        tickstart = HAL_GetTick();
 8004fac:	f7fe fc18 	bl	80037e0 <HAL_GetTick>
 8004fb0:	4606      	mov	r6, r0
        while (READ_BIT(RCC->CR, RCC_CR_HSIRDY) == 0U)
 8004fb2:	e004      	b.n	8004fbe <HAL_RCC_OscConfig+0x26a>
          if ((HAL_GetTick() - tickstart) > HSI_TIMEOUT_VALUE)
 8004fb4:	f7fe fc14 	bl	80037e0 <HAL_GetTick>
 8004fb8:	1b80      	subs	r0, r0, r6
 8004fba:	2802      	cmp	r0, #2
 8004fbc:	d83a      	bhi.n	8005034 <HAL_RCC_OscConfig+0x2e0>
        while (READ_BIT(RCC->CR, RCC_CR_HSIRDY) == 0U)
 8004fbe:	682b      	ldr	r3, [r5, #0]
 8004fc0:	055f      	lsls	r7, r3, #21
 8004fc2:	d5f7      	bpl.n	8004fb4 <HAL_RCC_OscConfig+0x260>
        __HAL_RCC_HSI_CALIBRATIONVALUE_ADJUST(RCC_OscInitStruct->HSICalibrationValue);
 8004fc4:	686b      	ldr	r3, [r5, #4]
 8004fc6:	6922      	ldr	r2, [r4, #16]
 8004fc8:	f023 43fe 	bic.w	r3, r3, #2130706432	@ 0x7f000000
 8004fcc:	ea43 6302 	orr.w	r3, r3, r2, lsl #24
 8004fd0:	606b      	str	r3, [r5, #4]
  if (((RCC_OscInitStruct->OscillatorType) & RCC_OSCILLATORTYPE_LSI) == RCC_OSCILLATORTYPE_LSI)
 8004fd2:	6823      	ldr	r3, [r4, #0]
 8004fd4:	e700      	b.n	8004dd8 <HAL_RCC_OscConfig+0x84>
      __HAL_RCC_HSE_CONFIG(RCC_OscInitStruct->HSEState);
 8004fd6:	4a0b      	ldr	r2, [pc, #44]	@ (8005004 <HAL_RCC_OscConfig+0x2b0>)
 8004fd8:	6813      	ldr	r3, [r2, #0]
 8004fda:	f443 3380 	orr.w	r3, r3, #65536	@ 0x10000
 8004fde:	6013      	str	r3, [r2, #0]
        tickstart = HAL_GetTick();
 8004fe0:	f7fe fbfe 	bl	80037e0 <HAL_GetTick>
        while (READ_BIT(RCC->CR, RCC_CR_HSERDY) == 0U)
 8004fe4:	4e07      	ldr	r6, [pc, #28]	@ (8005004 <HAL_RCC_OscConfig+0x2b0>)
        tickstart = HAL_GetTick();
 8004fe6:	4605      	mov	r5, r0
        while (READ_BIT(RCC->CR, RCC_CR_HSERDY) == 0U)
 8004fe8:	e004      	b.n	8004ff4 <HAL_RCC_OscConfig+0x2a0>
          if ((HAL_GetTick() - tickstart) > HSE_TIMEOUT_VALUE)
 8004fea:	f7fe fbf9 	bl	80037e0 <HAL_GetTick>
 8004fee:	1b40      	subs	r0, r0, r5
 8004ff0:	2864      	cmp	r0, #100	@ 0x64
 8004ff2:	d81f      	bhi.n	8005034 <HAL_RCC_OscConfig+0x2e0>
        while (READ_BIT(RCC->CR, RCC_CR_HSERDY) == 0U)
 8004ff4:	6833      	ldr	r3, [r6, #0]
 8004ff6:	039f      	lsls	r7, r3, #14
 8004ff8:	d5f7      	bpl.n	8004fea <HAL_RCC_OscConfig+0x296>
 8004ffa:	e7b1      	b.n	8004f60 <HAL_RCC_OscConfig+0x20c>
    return HAL_ERROR;
 8004ffc:	2001      	movs	r0, #1
}
 8004ffe:	b002      	add	sp, #8
 8005000:	e8bd 81f0 	ldmia.w	sp!, {r4, r5, r6, r7, r8, pc}
 8005004:	40021000 	.word	0x40021000
 8005008:	20000030 	.word	0x20000030
 800500c:	40007000 	.word	0x40007000
 8005010:	feeefffc 	.word	0xfeeefffc
        __HAL_RCC_HSI_DISABLE();
 8005014:	682b      	ldr	r3, [r5, #0]
 8005016:	f423 7380 	bic.w	r3, r3, #256	@ 0x100
 800501a:	602b      	str	r3, [r5, #0]
        tickstart = HAL_GetTick();
 800501c:	f7fe fbe0 	bl	80037e0 <HAL_GetTick>
 8005020:	4606      	mov	r6, r0
        while (READ_BIT(RCC->CR, RCC_CR_HSIRDY) != 0U)
 8005022:	682b      	ldr	r3, [r5, #0]
 8005024:	0559      	lsls	r1, r3, #21
 8005026:	f57f aed6 	bpl.w	8004dd6 <HAL_RCC_OscConfig+0x82>
          if ((HAL_GetTick() - tickstart) > HSI_TIMEOUT_VALUE)
 800502a:	f7fe fbd9 	bl	80037e0 <HAL_GetTick>
 800502e:	1b80      	subs	r0, r0, r6
 8005030:	2802      	cmp	r0, #2
 8005032:	d9f6      	bls.n	8005022 <HAL_RCC_OscConfig+0x2ce>
            return HAL_TIMEOUT;
 8005034:	2003      	movs	r0, #3
}
 8005036:	b002      	add	sp, #8
 8005038:	e8bd 81f0 	ldmia.w	sp!, {r4, r5, r6, r7, r8, pc}
    FlagStatus       pwrclkchanged = RESET;
 800503c:	2500      	movs	r5, #0
 800503e:	e6f8      	b.n	8004e32 <HAL_RCC_OscConfig+0xde>
    __HAL_RCC_LSE_CONFIG(RCC_OscInitStruct->LSEState);
 8005040:	4a65      	ldr	r2, [pc, #404]	@ (80051d8 <HAL_RCC_OscConfig+0x484>)
 8005042:	f8d2 3090 	ldr.w	r3, [r2, #144]	@ 0x90
 8005046:	f043 0301 	orr.w	r3, r3, #1
 800504a:	f8c2 3090 	str.w	r3, [r2, #144]	@ 0x90
      tickstart = HAL_GetTick();
 800504e:	f7fe fbc7 	bl	80037e0 <HAL_GetTick>
      while (READ_BIT(RCC->BDCR, RCC_BDCR_LSERDY) == 0U)
 8005052:	4f61      	ldr	r7, [pc, #388]	@ (80051d8 <HAL_RCC_OscConfig+0x484>)
      tickstart = HAL_GetTick();
 8005054:	4606      	mov	r6, r0
        if((HAL_GetTick() - tickstart) > RCC_LSE_TIMEOUT_VALUE)
 8005056:	f241 3888 	movw	r8, #5000	@ 0x1388
      while (READ_BIT(RCC->BDCR, RCC_BDCR_LSERDY) == 0U)
 800505a:	e004      	b.n	8005066 <HAL_RCC_OscConfig+0x312>
        if((HAL_GetTick() - tickstart) > RCC_LSE_TIMEOUT_VALUE)
 800505c:	f7fe fbc0 	bl	80037e0 <HAL_GetTick>
 8005060:	1b80      	subs	r0, r0, r6
 8005062:	4540      	cmp	r0, r8
 8005064:	d8e6      	bhi.n	8005034 <HAL_RCC_OscConfig+0x2e0>
      while (READ_BIT(RCC->BDCR, RCC_BDCR_LSERDY) == 0U)
 8005066:	f8d7 3090 	ldr.w	r3, [r7, #144]	@ 0x90
 800506a:	079b      	lsls	r3, r3, #30
 800506c:	d5f6      	bpl.n	800505c <HAL_RCC_OscConfig+0x308>
 800506e:	e70c      	b.n	8004e8a <HAL_RCC_OscConfig+0x136>
      __HAL_RCC_HSI48_DISABLE();
 8005070:	f8d5 3098 	ldr.w	r3, [r5, #152]	@ 0x98
 8005074:	f023 0301 	bic.w	r3, r3, #1
 8005078:	f8c5 3098 	str.w	r3, [r5, #152]	@ 0x98
      tickstart = HAL_GetTick();
 800507c:	f7fe fbb0 	bl	80037e0 <HAL_GetTick>
 8005080:	4606      	mov	r6, r0
      while(READ_BIT(RCC->CRRCR, RCC_CRRCR_HSI48RDY) != 0U)
 8005082:	e004      	b.n	800508e <HAL_RCC_OscConfig+0x33a>
        if((HAL_GetTick() - tickstart) > HSI48_TIMEOUT_VALUE)
 8005084:	f7fe fbac 	bl	80037e0 <HAL_GetTick>
 8005088:	1b80      	subs	r0, r0, r6
 800508a:	2802      	cmp	r0, #2
 800508c:	d8d2      	bhi.n	8005034 <HAL_RCC_OscConfig+0x2e0>
      while(READ_BIT(RCC->CRRCR, RCC_CRRCR_HSI48RDY) != 0U)
 800508e:	f8d5 3098 	ldr.w	r3, [r5, #152]	@ 0x98
 8005092:	079f      	lsls	r7, r3, #30
 8005094:	d4f6      	bmi.n	8005084 <HAL_RCC_OscConfig+0x330>
 8005096:	e71a      	b.n	8004ece <HAL_RCC_OscConfig+0x17a>
      SET_BIT(PWR->CR1, PWR_CR1_DBP);
 8005098:	6833      	ldr	r3, [r6, #0]
 800509a:	f443 7380 	orr.w	r3, r3, #256	@ 0x100
 800509e:	6033      	str	r3, [r6, #0]
      tickstart = HAL_GetTick();
 80050a0:	f7fe fb9e 	bl	80037e0 <HAL_GetTick>
 80050a4:	4607      	mov	r7, r0
      while (HAL_IS_BIT_CLR(PWR->CR1, PWR_CR1_DBP))
 80050a6:	6833      	ldr	r3, [r6, #0]
 80050a8:	05da      	lsls	r2, r3, #23
 80050aa:	f53f aec7 	bmi.w	8004e3c <HAL_RCC_OscConfig+0xe8>
        if ((HAL_GetTick() - tickstart) > RCC_DBP_TIMEOUT_VALUE)
 80050ae:	f7fe fb97 	bl	80037e0 <HAL_GetTick>
 80050b2:	1bc0      	subs	r0, r0, r7
 80050b4:	2802      	cmp	r0, #2
 80050b6:	d9f6      	bls.n	80050a6 <HAL_RCC_OscConfig+0x352>
 80050b8:	e7bc      	b.n	8005034 <HAL_RCC_OscConfig+0x2e0>
      __HAL_RCC_HSE_CONFIG(RCC_OscInitStruct->HSEState);
 80050ba:	f103 4380 	add.w	r3, r3, #1073741824	@ 0x40000000
 80050be:	f5a3 333c 	sub.w	r3, r3, #192512	@ 0x2f000
 80050c2:	681a      	ldr	r2, [r3, #0]
 80050c4:	f442 2280 	orr.w	r2, r2, #262144	@ 0x40000
 80050c8:	601a      	str	r2, [r3, #0]
 80050ca:	681a      	ldr	r2, [r3, #0]
 80050cc:	f442 3280 	orr.w	r2, r2, #65536	@ 0x10000
 80050d0:	601a      	str	r2, [r3, #0]
      if (RCC_OscInitStruct->HSEState != RCC_HSE_OFF)
 80050d2:	e785      	b.n	8004fe0 <HAL_RCC_OscConfig+0x28c>
    return HAL_ERROR;
 80050d4:	2001      	movs	r0, #1
}
 80050d6:	4770      	bx	lr
        tickstart = HAL_GetTick();
 80050d8:	f7fe fb82 	bl	80037e0 <HAL_GetTick>
 80050dc:	4606      	mov	r6, r0
        while (READ_BIT(RCC->CR, RCC_CR_PLLRDY) != 0U)
 80050de:	e004      	b.n	80050ea <HAL_RCC_OscConfig+0x396>
          if ((HAL_GetTick() - tickstart) > PLL_TIMEOUT_VALUE)
 80050e0:	f7fe fb7e 	bl	80037e0 <HAL_GetTick>
 80050e4:	1b80      	subs	r0, r0, r6
 80050e6:	2802      	cmp	r0, #2
 80050e8:	d8a4      	bhi.n	8005034 <HAL_RCC_OscConfig+0x2e0>
        while (READ_BIT(RCC->CR, RCC_CR_PLLRDY) != 0U)
 80050ea:	682b      	ldr	r3, [r5, #0]
 80050ec:	0199      	lsls	r1, r3, #6
 80050ee:	d4f7      	bmi.n	80050e0 <HAL_RCC_OscConfig+0x38c>
        __HAL_RCC_PLL_CONFIG(RCC_OscInitStruct->PLL.PLLSource,
 80050f0:	68e9      	ldr	r1, [r5, #12]
 80050f2:	4b3a      	ldr	r3, [pc, #232]	@ (80051dc <HAL_RCC_OscConfig+0x488>)
 80050f4:	6a22      	ldr	r2, [r4, #32]
 80050f6:	6a60      	ldr	r0, [r4, #36]	@ 0x24
        while (READ_BIT(RCC->CR, RCC_CR_PLLRDY) == 0U)
 80050f8:	4e37      	ldr	r6, [pc, #220]	@ (80051d8 <HAL_RCC_OscConfig+0x484>)
        __HAL_RCC_PLL_CONFIG(RCC_OscInitStruct->PLL.PLLSource,
 80050fa:	400b      	ands	r3, r1
 80050fc:	4313      	orrs	r3, r2
 80050fe:	e9d4 120a 	ldrd	r1, r2, [r4, #40]	@ 0x28
 8005102:	ea43 2301 	orr.w	r3, r3, r1, lsl #8
 8005106:	ea43 63c2 	orr.w	r3, r3, r2, lsl #27
 800510a:	e9d4 120c 	ldrd	r1, r2, [r4, #48]	@ 0x30
 800510e:	3801      	subs	r0, #1
 8005110:	0849      	lsrs	r1, r1, #1
 8005112:	ea43 1300 	orr.w	r3, r3, r0, lsl #4
 8005116:	3901      	subs	r1, #1
 8005118:	0852      	lsrs	r2, r2, #1
 800511a:	ea43 5341 	orr.w	r3, r3, r1, lsl #21
 800511e:	3a01      	subs	r2, #1
 8005120:	ea43 6342 	orr.w	r3, r3, r2, lsl #25
 8005124:	60eb      	str	r3, [r5, #12]
        __HAL_RCC_PLL_ENABLE();
 8005126:	682b      	ldr	r3, [r5, #0]
 8005128:	f043 7380 	orr.w	r3, r3, #16777216	@ 0x1000000
 800512c:	602b      	str	r3, [r5, #0]
         __HAL_RCC_PLLCLKOUT_ENABLE(RCC_PLL_SYSCLK);
 800512e:	68eb      	ldr	r3, [r5, #12]
 8005130:	f043 7380 	orr.w	r3, r3, #16777216	@ 0x1000000
 8005134:	60eb      	str	r3, [r5, #12]
        tickstart = HAL_GetTick();
 8005136:	f7fe fb53 	bl	80037e0 <HAL_GetTick>
 800513a:	4604      	mov	r4, r0
        while (READ_BIT(RCC->CR, RCC_CR_PLLRDY) == 0U)
 800513c:	e005      	b.n	800514a <HAL_RCC_OscConfig+0x3f6>
          if ((HAL_GetTick() - tickstart) > PLL_TIMEOUT_VALUE)
 800513e:	f7fe fb4f 	bl	80037e0 <HAL_GetTick>
 8005142:	1b00      	subs	r0, r0, r4
 8005144:	2802      	cmp	r0, #2
 8005146:	f63f af75 	bhi.w	8005034 <HAL_RCC_OscConfig+0x2e0>
        while (READ_BIT(RCC->CR, RCC_CR_PLLRDY) == 0U)
 800514a:	6833      	ldr	r3, [r6, #0]
 800514c:	019a      	lsls	r2, r3, #6
 800514e:	d5f6      	bpl.n	800513e <HAL_RCC_OscConfig+0x3ea>
 8005150:	e6de      	b.n	8004f10 <HAL_RCC_OscConfig+0x1bc>
    __HAL_RCC_LSE_CONFIG(RCC_OscInitStruct->LSEState);
 8005152:	4b21      	ldr	r3, [pc, #132]	@ (80051d8 <HAL_RCC_OscConfig+0x484>)
 8005154:	f8d3 2090 	ldr.w	r2, [r3, #144]	@ 0x90
 8005158:	f042 0204 	orr.w	r2, r2, #4
 800515c:	f8c3 2090 	str.w	r2, [r3, #144]	@ 0x90
 8005160:	f8d3 2090 	ldr.w	r2, [r3, #144]	@ 0x90
 8005164:	f042 0201 	orr.w	r2, r2, #1
 8005168:	f8c3 2090 	str.w	r2, [r3, #144]	@ 0x90
    if (RCC_OscInitStruct->LSEState != RCC_LSE_OFF)
 800516c:	e76f      	b.n	800504e <HAL_RCC_OscConfig+0x2fa>
      if((RCC_OscInitStruct->PLL.PLLState) == RCC_PLL_OFF)
 800516e:	2b01      	cmp	r3, #1
 8005170:	f43f af44 	beq.w	8004ffc <HAL_RCC_OscConfig+0x2a8>
      temp_pllckcfg = RCC->PLLCFGR;
 8005174:	68eb      	ldr	r3, [r5, #12]
      if((READ_BIT(temp_pllckcfg, RCC_PLLCFGR_PLLSRC) != RCC_OscInitStruct->PLL.PLLSource) ||
 8005176:	6a22      	ldr	r2, [r4, #32]
 8005178:	f003 0103 	and.w	r1, r3, #3
 800517c:	4291      	cmp	r1, r2
 800517e:	f47f af3d 	bne.w	8004ffc <HAL_RCC_OscConfig+0x2a8>
         (READ_BIT(temp_pllckcfg, RCC_PLLCFGR_PLLM) != (((RCC_OscInitStruct->PLL.PLLM) - 1U) << RCC_PLLCFGR_PLLM_Pos)) ||
 8005182:	6a61      	ldr	r1, [r4, #36]	@ 0x24
 8005184:	f003 02f0 	and.w	r2, r3, #240	@ 0xf0
 8005188:	3901      	subs	r1, #1
      if((READ_BIT(temp_pllckcfg, RCC_PLLCFGR_PLLSRC) != RCC_OscInitStruct->PLL.PLLSource) ||
 800518a:	ebb2 1f01 	cmp.w	r2, r1, lsl #4
 800518e:	f47f af35 	bne.w	8004ffc <HAL_RCC_OscConfig+0x2a8>
         (READ_BIT(temp_pllckcfg, RCC_PLLCFGR_PLLN) != ((RCC_OscInitStruct->PLL.PLLN) << RCC_PLLCFGR_PLLN_Pos)) ||
 8005192:	6aa1      	ldr	r1, [r4, #40]	@ 0x28
 8005194:	f403 42fe 	and.w	r2, r3, #32512	@ 0x7f00
         (READ_BIT(temp_pllckcfg, RCC_PLLCFGR_PLLM) != (((RCC_OscInitStruct->PLL.PLLM) - 1U) << RCC_PLLCFGR_PLLM_Pos)) ||
 8005198:	ebb2 2f01 	cmp.w	r2, r1, lsl #8
 800519c:	f47f af2e 	bne.w	8004ffc <HAL_RCC_OscConfig+0x2a8>
         (READ_BIT(temp_pllckcfg, RCC_PLLCFGR_PLLPDIV) != ((RCC_OscInitStruct->PLL.PLLP) << RCC_PLLCFGR_PLLPDIV_Pos)) ||
 80051a0:	6ae1      	ldr	r1, [r4, #44]	@ 0x2c
 80051a2:	f003 4278 	and.w	r2, r3, #4160749568	@ 0xf8000000
         (READ_BIT(temp_pllckcfg, RCC_PLLCFGR_PLLN) != ((RCC_OscInitStruct->PLL.PLLN) << RCC_PLLCFGR_PLLN_Pos)) ||
 80051a6:	ebb2 6fc1 	cmp.w	r2, r1, lsl #27
 80051aa:	f47f af27 	bne.w	8004ffc <HAL_RCC_OscConfig+0x2a8>
         (READ_BIT(temp_pllckcfg, RCC_PLLCFGR_PLLQ) != ((((RCC_OscInitStruct->PLL.PLLQ) >> 1U) - 1U) << RCC_PLLCFGR_PLLQ_Pos)) ||
 80051ae:	6b22      	ldr	r2, [r4, #48]	@ 0x30
 80051b0:	0852      	lsrs	r2, r2, #1
 80051b2:	f403 01c0 	and.w	r1, r3, #6291456	@ 0x600000
 80051b6:	3a01      	subs	r2, #1
         (READ_BIT(temp_pllckcfg, RCC_PLLCFGR_PLLPDIV) != ((RCC_OscInitStruct->PLL.PLLP) << RCC_PLLCFGR_PLLPDIV_Pos)) ||
 80051b8:	ebb1 5f42 	cmp.w	r1, r2, lsl #21
 80051bc:	f47f af1e 	bne.w	8004ffc <HAL_RCC_OscConfig+0x2a8>
         (READ_BIT(temp_pllckcfg, RCC_PLLCFGR_PLLR) != ((((RCC_OscInitStruct->PLL.PLLR) >> 1U) - 1U) << RCC_PLLCFGR_PLLR_Pos)))
 80051c0:	6b62      	ldr	r2, [r4, #52]	@ 0x34
 80051c2:	0852      	lsrs	r2, r2, #1
 80051c4:	f003 63c0 	and.w	r3, r3, #100663296	@ 0x6000000
 80051c8:	3a01      	subs	r2, #1
         (READ_BIT(temp_pllckcfg, RCC_PLLCFGR_PLLQ) != ((((RCC_OscInitStruct->PLL.PLLQ) >> 1U) - 1U) << RCC_PLLCFGR_PLLQ_Pos)) ||
 80051ca:	ebb3 6f42 	cmp.w	r3, r2, lsl #25
 80051ce:	bf14      	ite	ne
 80051d0:	2001      	movne	r0, #1
 80051d2:	2000      	moveq	r0, #0
 80051d4:	e69d      	b.n	8004f12 <HAL_RCC_OscConfig+0x1be>
 80051d6:	bf00      	nop
 80051d8:	40021000 	.word	0x40021000
 80051dc:	019f800c 	.word	0x019f800c

080051e0 <HAL_RCC_GetSysClockFreq>:
uint32_t HAL_RCC_GetSysClockFreq(void)
{
  uint32_t pllvco, pllsource, pllr, pllm;
  uint32_t sysclockfreq;

  if (__HAL_RCC_GET_SYSCLK_SOURCE() == RCC_CFGR_SWS_HSI)
 80051e0:	4b18      	ldr	r3, [pc, #96]	@ (8005244 <HAL_RCC_GetSysClockFreq+0x64>)
 80051e2:	689a      	ldr	r2, [r3, #8]
 80051e4:	f002 020c 	and.w	r2, r2, #12
 80051e8:	2a04      	cmp	r2, #4
 80051ea:	d026      	beq.n	800523a <HAL_RCC_GetSysClockFreq+0x5a>
  {
    /* HSI used as system clock source */
    sysclockfreq = HSI_VALUE;
  }
  else if (__HAL_RCC_GET_SYSCLK_SOURCE() == RCC_CFGR_SWS_HSE)
 80051ec:	689a      	ldr	r2, [r3, #8]
 80051ee:	f002 020c 	and.w	r2, r2, #12
 80051f2:	2a08      	cmp	r2, #8
 80051f4:	d023      	beq.n	800523e <HAL_RCC_GetSysClockFreq+0x5e>
  {
    /* HSE used as system clock source */
    sysclockfreq = HSE_VALUE;
  }
  else if (__HAL_RCC_GET_SYSCLK_SOURCE() == RCC_CFGR_SWS_PLL)
 80051f6:	689a      	ldr	r2, [r3, #8]
 80051f8:	f002 020c 	and.w	r2, r2, #12
 80051fc:	2a0c      	cmp	r2, #12
 80051fe:	d001      	beq.n	8005204 <HAL_RCC_GetSysClockFreq+0x24>
    pllr = ((READ_BIT(RCC->PLLCFGR, RCC_PLLCFGR_PLLR) >> RCC_PLLCFGR_PLLR_Pos) + 1U ) * 2U;
    sysclockfreq = pllvco/pllr;
  }
  else
  {
    sysclockfreq = 0U;
 8005200:	2000      	movs	r0, #0
  }

  return sysclockfreq;
}
 8005202:	4770      	bx	lr
    pllsource = READ_BIT(RCC->PLLCFGR, RCC_PLLCFGR_PLLSRC);
 8005204:	68d9      	ldr	r1, [r3, #12]
    pllm = (READ_BIT(RCC->PLLCFGR, RCC_PLLCFGR_PLLM) >> RCC_PLLCFGR_PLLM_Pos) + 1U ;
 8005206:	68da      	ldr	r2, [r3, #12]
      pllvco = (HSI_VALUE / pllm) * (READ_BIT(RCC->PLLCFGR, RCC_PLLCFGR_PLLN) >> RCC_PLLCFGR_PLLN_Pos);
 8005208:	68d8      	ldr	r0, [r3, #12]
    pllsource = READ_BIT(RCC->PLLCFGR, RCC_PLLCFGR_PLLSRC);
 800520a:	f001 0103 	and.w	r1, r1, #3
    switch (pllsource)
 800520e:	2903      	cmp	r1, #3
    pllm = (READ_BIT(RCC->PLLCFGR, RCC_PLLCFGR_PLLM) >> RCC_PLLCFGR_PLLM_Pos) + 1U ;
 8005210:	f3c2 1203 	ubfx	r2, r2, #4, #4
      pllvco = (HSI_VALUE / pllm) * (READ_BIT(RCC->PLLCFGR, RCC_PLLCFGR_PLLN) >> RCC_PLLCFGR_PLLN_Pos);
 8005214:	f3c0 2006 	ubfx	r0, r0, #8, #7
      pllvco = (HSE_VALUE / pllm) * (READ_BIT(RCC->PLLCFGR, RCC_PLLCFGR_PLLN) >> RCC_PLLCFGR_PLLN_Pos);
 8005218:	bf0c      	ite	eq
 800521a:	4b0b      	ldreq	r3, [pc, #44]	@ (8005248 <HAL_RCC_GetSysClockFreq+0x68>)
      pllvco = (HSI_VALUE / pllm) * (READ_BIT(RCC->PLLCFGR, RCC_PLLCFGR_PLLN) >> RCC_PLLCFGR_PLLN_Pos);
 800521c:	4b0b      	ldrne	r3, [pc, #44]	@ (800524c <HAL_RCC_GetSysClockFreq+0x6c>)
    pllm = (READ_BIT(RCC->PLLCFGR, RCC_PLLCFGR_PLLM) >> RCC_PLLCFGR_PLLM_Pos) + 1U ;
 800521e:	3201      	adds	r2, #1
      pllvco = (HSI_VALUE / pllm) * (READ_BIT(RCC->PLLCFGR, RCC_PLLCFGR_PLLN) >> RCC_PLLCFGR_PLLN_Pos);
 8005220:	fbb3 f3f2 	udiv	r3, r3, r2
 8005224:	fb03 f000 	mul.w	r0, r3, r0
    pllr = ((READ_BIT(RCC->PLLCFGR, RCC_PLLCFGR_PLLR) >> RCC_PLLCFGR_PLLR_Pos) + 1U ) * 2U;
 8005228:	4b06      	ldr	r3, [pc, #24]	@ (8005244 <HAL_RCC_GetSysClockFreq+0x64>)
 800522a:	68db      	ldr	r3, [r3, #12]
 800522c:	f3c3 6341 	ubfx	r3, r3, #25, #2
 8005230:	3301      	adds	r3, #1
 8005232:	005b      	lsls	r3, r3, #1
    sysclockfreq = pllvco/pllr;
 8005234:	fbb0 f0f3 	udiv	r0, r0, r3
  return sysclockfreq;
 8005238:	4770      	bx	lr
    sysclockfreq = HSI_VALUE;
 800523a:	4804      	ldr	r0, [pc, #16]	@ (800524c <HAL_RCC_GetSysClockFreq+0x6c>)
 800523c:	4770      	bx	lr
    sysclockfreq = HSE_VALUE;
 800523e:	4802      	ldr	r0, [pc, #8]	@ (8005248 <HAL_RCC_GetSysClockFreq+0x68>)
 8005240:	4770      	bx	lr
 8005242:	bf00      	nop
 8005244:	40021000 	.word	0x40021000
 8005248:	007a1200 	.word	0x007a1200
 800524c:	00f42400 	.word	0x00f42400

08005250 <HAL_RCC_ClockConfig>:
  if (RCC_ClkInitStruct == NULL)
 8005250:	2800      	cmp	r0, #0
 8005252:	f000 80ee 	beq.w	8005432 <HAL_RCC_ClockConfig+0x1e2>
  if (FLatency > __HAL_FLASH_GET_LATENCY())
 8005256:	4a78      	ldr	r2, [pc, #480]	@ (8005438 <HAL_RCC_ClockConfig+0x1e8>)
{
 8005258:	e92d 43f8 	stmdb	sp!, {r3, r4, r5, r6, r7, r8, r9, lr}
  if (FLatency > __HAL_FLASH_GET_LATENCY())
 800525c:	6813      	ldr	r3, [r2, #0]
 800525e:	f003 030f 	and.w	r3, r3, #15
 8005262:	428b      	cmp	r3, r1
 8005264:	460d      	mov	r5, r1
 8005266:	4604      	mov	r4, r0
 8005268:	d20c      	bcs.n	8005284 <HAL_RCC_ClockConfig+0x34>
    __HAL_FLASH_SET_LATENCY(FLatency);
 800526a:	6813      	ldr	r3, [r2, #0]
 800526c:	f023 030f 	bic.w	r3, r3, #15
 8005270:	430b      	orrs	r3, r1
 8005272:	6013      	str	r3, [r2, #0]
    if (__HAL_FLASH_GET_LATENCY() != FLatency)
 8005274:	6813      	ldr	r3, [r2, #0]
 8005276:	f003 030f 	and.w	r3, r3, #15
 800527a:	428b      	cmp	r3, r1
 800527c:	d002      	beq.n	8005284 <HAL_RCC_ClockConfig+0x34>
    return HAL_ERROR;
 800527e:	2001      	movs	r0, #1
}
 8005280:	e8bd 83f8 	ldmia.w	sp!, {r3, r4, r5, r6, r7, r8, r9, pc}
  if(((RCC_ClkInitStruct->ClockType) & RCC_CLOCKTYPE_SYSCLK) == RCC_CLOCKTYPE_SYSCLK)
 8005284:	6823      	ldr	r3, [r4, #0]
 8005286:	07df      	lsls	r7, r3, #31
 8005288:	d569      	bpl.n	800535e <HAL_RCC_ClockConfig+0x10e>
    if (RCC_ClkInitStruct->SYSCLKSource == RCC_SYSCLKSOURCE_PLLCLK)
 800528a:	6867      	ldr	r7, [r4, #4]
 800528c:	2f03      	cmp	r7, #3
 800528e:	f000 80a0 	beq.w	80053d2 <HAL_RCC_ClockConfig+0x182>
        if(READ_BIT(RCC->CR, RCC_CR_HSERDY) == 0U)
 8005292:	4b6a      	ldr	r3, [pc, #424]	@ (800543c <HAL_RCC_ClockConfig+0x1ec>)
      if (RCC_ClkInitStruct->SYSCLKSource == RCC_SYSCLKSOURCE_HSE)
 8005294:	2f02      	cmp	r7, #2
        if(READ_BIT(RCC->CR, RCC_CR_HSERDY) == 0U)
 8005296:	681b      	ldr	r3, [r3, #0]
      if (RCC_ClkInitStruct->SYSCLKSource == RCC_SYSCLKSOURCE_HSE)
 8005298:	f000 8097 	beq.w	80053ca <HAL_RCC_ClockConfig+0x17a>
        if(READ_BIT(RCC->CR, RCC_CR_HSIRDY) == 0U)
 800529c:	055b      	lsls	r3, r3, #21
 800529e:	d5ee      	bpl.n	800527e <HAL_RCC_ClockConfig+0x2e>
      pllfreq = HAL_RCC_GetSysClockFreq();
 80052a0:	f7ff ff9e 	bl	80051e0 <HAL_RCC_GetSysClockFreq>
      if(pllfreq > 80000000U)
 80052a4:	4b66      	ldr	r3, [pc, #408]	@ (8005440 <HAL_RCC_ClockConfig+0x1f0>)
 80052a6:	4298      	cmp	r0, r3
 80052a8:	f240 80c0 	bls.w	800542c <HAL_RCC_ClockConfig+0x1dc>
          MODIFY_REG(RCC->CFGR, RCC_CFGR_HPRE, RCC_SYSCLK_DIV2);
 80052ac:	4a63      	ldr	r2, [pc, #396]	@ (800543c <HAL_RCC_ClockConfig+0x1ec>)
 80052ae:	6893      	ldr	r3, [r2, #8]
 80052b0:	f023 03f0 	bic.w	r3, r3, #240	@ 0xf0
 80052b4:	f043 0380 	orr.w	r3, r3, #128	@ 0x80
 80052b8:	6093      	str	r3, [r2, #8]
        hpre = RCC_SYSCLK_DIV2;
 80052ba:	f04f 0980 	mov.w	r9, #128	@ 0x80
    MODIFY_REG(RCC->CFGR, RCC_CFGR_SW, RCC_ClkInitStruct->SYSCLKSource);
 80052be:	4e5f      	ldr	r6, [pc, #380]	@ (800543c <HAL_RCC_ClockConfig+0x1ec>)
 80052c0:	68b3      	ldr	r3, [r6, #8]
 80052c2:	f023 0303 	bic.w	r3, r3, #3
 80052c6:	433b      	orrs	r3, r7
 80052c8:	60b3      	str	r3, [r6, #8]
    tickstart = HAL_GetTick();
 80052ca:	f7fe fa89 	bl	80037e0 <HAL_GetTick>
      if ((HAL_GetTick() - tickstart) > CLOCKSWITCH_TIMEOUT_VALUE)
 80052ce:	f241 3888 	movw	r8, #5000	@ 0x1388
    tickstart = HAL_GetTick();
 80052d2:	4607      	mov	r7, r0
    while (__HAL_RCC_GET_SYSCLK_SOURCE() != (RCC_ClkInitStruct->SYSCLKSource << RCC_CFGR_SWS_Pos))
 80052d4:	e004      	b.n	80052e0 <HAL_RCC_ClockConfig+0x90>
      if ((HAL_GetTick() - tickstart) > CLOCKSWITCH_TIMEOUT_VALUE)
 80052d6:	f7fe fa83 	bl	80037e0 <HAL_GetTick>
 80052da:	1bc0      	subs	r0, r0, r7
 80052dc:	4540      	cmp	r0, r8
 80052de:	d871      	bhi.n	80053c4 <HAL_RCC_ClockConfig+0x174>
    while (__HAL_RCC_GET_SYSCLK_SOURCE() != (RCC_ClkInitStruct->SYSCLKSource << RCC_CFGR_SWS_Pos))
 80052e0:	68b3      	ldr	r3, [r6, #8]
 80052e2:	6862      	ldr	r2, [r4, #4]
 80052e4:	f003 030c 	and.w	r3, r3, #12
 80052e8:	ebb3 0f82 	cmp.w	r3, r2, lsl #2
 80052ec:	d1f3      	bne.n	80052d6 <HAL_RCC_ClockConfig+0x86>
  if (((RCC_ClkInitStruct->ClockType) & RCC_CLOCKTYPE_HCLK) == RCC_CLOCKTYPE_HCLK)
 80052ee:	6823      	ldr	r3, [r4, #0]
 80052f0:	079f      	lsls	r7, r3, #30
 80052f2:	d436      	bmi.n	8005362 <HAL_RCC_ClockConfig+0x112>
    if(hpre == RCC_SYSCLK_DIV2)
 80052f4:	f1b9 0f00 	cmp.w	r9, #0
 80052f8:	d003      	beq.n	8005302 <HAL_RCC_ClockConfig+0xb2>
      MODIFY_REG(RCC->CFGR, RCC_CFGR_HPRE, RCC_SYSCLK_DIV1);
 80052fa:	68b3      	ldr	r3, [r6, #8]
 80052fc:	f023 03f0 	bic.w	r3, r3, #240	@ 0xf0
 8005300:	60b3      	str	r3, [r6, #8]
  if (FLatency < __HAL_FLASH_GET_LATENCY())
 8005302:	4e4d      	ldr	r6, [pc, #308]	@ (8005438 <HAL_RCC_ClockConfig+0x1e8>)
 8005304:	6833      	ldr	r3, [r6, #0]
 8005306:	f003 030f 	and.w	r3, r3, #15
 800530a:	42ab      	cmp	r3, r5
 800530c:	d846      	bhi.n	800539c <HAL_RCC_ClockConfig+0x14c>
  if (((RCC_ClkInitStruct->ClockType) & RCC_CLOCKTYPE_PCLK1) == RCC_CLOCKTYPE_PCLK1)
 800530e:	6823      	ldr	r3, [r4, #0]
 8005310:	075a      	lsls	r2, r3, #29
 8005312:	d506      	bpl.n	8005322 <HAL_RCC_ClockConfig+0xd2>
    MODIFY_REG(RCC->CFGR, RCC_CFGR_PPRE1, RCC_ClkInitStruct->APB1CLKDivider);
 8005314:	4949      	ldr	r1, [pc, #292]	@ (800543c <HAL_RCC_ClockConfig+0x1ec>)
 8005316:	68e0      	ldr	r0, [r4, #12]
 8005318:	688a      	ldr	r2, [r1, #8]
 800531a:	f422 62e0 	bic.w	r2, r2, #1792	@ 0x700
 800531e:	4302      	orrs	r2, r0
 8005320:	608a      	str	r2, [r1, #8]
  if(((RCC_ClkInitStruct->ClockType) & RCC_CLOCKTYPE_PCLK2) == RCC_CLOCKTYPE_PCLK2)
 8005322:	071b      	lsls	r3, r3, #28
 8005324:	d507      	bpl.n	8005336 <HAL_RCC_ClockConfig+0xe6>
    MODIFY_REG(RCC->CFGR, RCC_CFGR_PPRE2, ((RCC_ClkInitStruct->APB2CLKDivider) << 3U));
 8005326:	4a45      	ldr	r2, [pc, #276]	@ (800543c <HAL_RCC_ClockConfig+0x1ec>)
 8005328:	6921      	ldr	r1, [r4, #16]
 800532a:	6893      	ldr	r3, [r2, #8]
 800532c:	f423 5360 	bic.w	r3, r3, #14336	@ 0x3800
 8005330:	ea43 03c1 	orr.w	r3, r3, r1, lsl #3
 8005334:	6093      	str	r3, [r2, #8]
  SystemCoreClock = HAL_RCC_GetSysClockFreq() >> (AHBPrescTable[READ_BIT(RCC->CFGR, RCC_CFGR_HPRE) >> RCC_CFGR_HPRE_Pos] & 0x1FU);
 8005336:	f7ff ff53 	bl	80051e0 <HAL_RCC_GetSysClockFreq>
 800533a:	4a40      	ldr	r2, [pc, #256]	@ (800543c <HAL_RCC_ClockConfig+0x1ec>)
 800533c:	4c41      	ldr	r4, [pc, #260]	@ (8005444 <HAL_RCC_ClockConfig+0x1f4>)
 800533e:	6892      	ldr	r2, [r2, #8]
 8005340:	4941      	ldr	r1, [pc, #260]	@ (8005448 <HAL_RCC_ClockConfig+0x1f8>)
 8005342:	f3c2 1203 	ubfx	r2, r2, #4, #4
 8005346:	4603      	mov	r3, r0
 8005348:	5ca2      	ldrb	r2, [r4, r2]
  return HAL_InitTick(uwTickPrio);
 800534a:	4840      	ldr	r0, [pc, #256]	@ (800544c <HAL_RCC_ClockConfig+0x1fc>)
  SystemCoreClock = HAL_RCC_GetSysClockFreq() >> (AHBPrescTable[READ_BIT(RCC->CFGR, RCC_CFGR_HPRE) >> RCC_CFGR_HPRE_Pos] & 0x1FU);
 800534c:	f002 021f 	and.w	r2, r2, #31
 8005350:	40d3      	lsrs	r3, r2
 8005352:	600b      	str	r3, [r1, #0]
  return HAL_InitTick(uwTickPrio);
 8005354:	6800      	ldr	r0, [r0, #0]
}
 8005356:	e8bd 43f8 	ldmia.w	sp!, {r3, r4, r5, r6, r7, r8, r9, lr}
  return HAL_InitTick(uwTickPrio);
 800535a:	f7fe b9ff 	b.w	800375c <HAL_InitTick>
  if (((RCC_ClkInitStruct->ClockType) & RCC_CLOCKTYPE_HCLK) == RCC_CLOCKTYPE_HCLK)
 800535e:	079e      	lsls	r6, r3, #30
 8005360:	d5cf      	bpl.n	8005302 <HAL_RCC_ClockConfig+0xb2>
    if (((RCC_ClkInitStruct->ClockType) & RCC_CLOCKTYPE_PCLK1) == RCC_CLOCKTYPE_PCLK1)
 8005362:	0758      	lsls	r0, r3, #29
 8005364:	d504      	bpl.n	8005370 <HAL_RCC_ClockConfig+0x120>
      MODIFY_REG(RCC->CFGR, RCC_CFGR_PPRE1, RCC_HCLK_DIV16);
 8005366:	4935      	ldr	r1, [pc, #212]	@ (800543c <HAL_RCC_ClockConfig+0x1ec>)
 8005368:	688a      	ldr	r2, [r1, #8]
 800536a:	f442 62e0 	orr.w	r2, r2, #1792	@ 0x700
 800536e:	608a      	str	r2, [r1, #8]
    if (((RCC_ClkInitStruct->ClockType) & RCC_CLOCKTYPE_PCLK2) == RCC_CLOCKTYPE_PCLK2)
 8005370:	0719      	lsls	r1, r3, #28
 8005372:	d506      	bpl.n	8005382 <HAL_RCC_ClockConfig+0x132>
      MODIFY_REG(RCC->CFGR, RCC_CFGR_PPRE2, RCC_HCLK_DIV16);
 8005374:	4a31      	ldr	r2, [pc, #196]	@ (800543c <HAL_RCC_ClockConfig+0x1ec>)
 8005376:	6893      	ldr	r3, [r2, #8]
 8005378:	f423 537c 	bic.w	r3, r3, #16128	@ 0x3f00
 800537c:	f443 63e0 	orr.w	r3, r3, #1792	@ 0x700
 8005380:	6093      	str	r3, [r2, #8]
    MODIFY_REG(RCC->CFGR, RCC_CFGR_HPRE, RCC_ClkInitStruct->AHBCLKDivider);
 8005382:	4a2e      	ldr	r2, [pc, #184]	@ (800543c <HAL_RCC_ClockConfig+0x1ec>)
 8005384:	68a1      	ldr	r1, [r4, #8]
 8005386:	6893      	ldr	r3, [r2, #8]
  if (FLatency < __HAL_FLASH_GET_LATENCY())
 8005388:	4e2b      	ldr	r6, [pc, #172]	@ (8005438 <HAL_RCC_ClockConfig+0x1e8>)
    MODIFY_REG(RCC->CFGR, RCC_CFGR_HPRE, RCC_ClkInitStruct->AHBCLKDivider);
 800538a:	f023 03f0 	bic.w	r3, r3, #240	@ 0xf0
 800538e:	430b      	orrs	r3, r1
 8005390:	6093      	str	r3, [r2, #8]
  if (FLatency < __HAL_FLASH_GET_LATENCY())
 8005392:	6833      	ldr	r3, [r6, #0]
 8005394:	f003 030f 	and.w	r3, r3, #15
 8005398:	42ab      	cmp	r3, r5
 800539a:	d9b8      	bls.n	800530e <HAL_RCC_ClockConfig+0xbe>
    __HAL_FLASH_SET_LATENCY(FLatency);
 800539c:	6833      	ldr	r3, [r6, #0]
 800539e:	f023 030f 	bic.w	r3, r3, #15
 80053a2:	432b      	orrs	r3, r5
 80053a4:	6033      	str	r3, [r6, #0]
    tickstart = HAL_GetTick();
 80053a6:	f7fe fa1b 	bl	80037e0 <HAL_GetTick>
      if ((HAL_GetTick() - tickstart) > CLOCKSWITCH_TIMEOUT_VALUE)
 80053aa:	f241 3888 	movw	r8, #5000	@ 0x1388
    tickstart = HAL_GetTick();
 80053ae:	4607      	mov	r7, r0
    while (__HAL_FLASH_GET_LATENCY() != FLatency)
 80053b0:	6833      	ldr	r3, [r6, #0]
 80053b2:	f003 030f 	and.w	r3, r3, #15
 80053b6:	42ab      	cmp	r3, r5
 80053b8:	d0a9      	beq.n	800530e <HAL_RCC_ClockConfig+0xbe>
      if ((HAL_GetTick() - tickstart) > CLOCKSWITCH_TIMEOUT_VALUE)
 80053ba:	f7fe fa11 	bl	80037e0 <HAL_GetTick>
 80053be:	1bc0      	subs	r0, r0, r7
 80053c0:	4540      	cmp	r0, r8
 80053c2:	d9f5      	bls.n	80053b0 <HAL_RCC_ClockConfig+0x160>
        return HAL_TIMEOUT;
 80053c4:	2003      	movs	r0, #3
}
 80053c6:	e8bd 83f8 	ldmia.w	sp!, {r3, r4, r5, r6, r7, r8, r9, pc}
        if(READ_BIT(RCC->CR, RCC_CR_HSERDY) == 0U)
 80053ca:	039a      	lsls	r2, r3, #14
 80053cc:	f53f af68 	bmi.w	80052a0 <HAL_RCC_ClockConfig+0x50>
 80053d0:	e755      	b.n	800527e <HAL_RCC_ClockConfig+0x2e>
      if (READ_BIT(RCC->CR, RCC_CR_PLLRDY) == 0U)
 80053d2:	4a1a      	ldr	r2, [pc, #104]	@ (800543c <HAL_RCC_ClockConfig+0x1ec>)
 80053d4:	6811      	ldr	r1, [r2, #0]
 80053d6:	0188      	lsls	r0, r1, #6
 80053d8:	f57f af51 	bpl.w	800527e <HAL_RCC_ClockConfig+0x2e>
  uint32_t sysclockfreq;

  /* PLL_VCO = (HSE_VALUE or HSI_VALUE/ PLLM) * PLLN
     SYSCLK = PLL_VCO / PLLR
   */
  pllsource = READ_BIT(RCC->PLLCFGR, RCC_PLLCFGR_PLLSRC);
 80053dc:	68d0      	ldr	r0, [r2, #12]
  pllm = (READ_BIT(RCC->PLLCFGR, RCC_PLLCFGR_PLLM) >> RCC_PLLCFGR_PLLM_Pos) + 1U ;
 80053de:	68d1      	ldr	r1, [r2, #12]
    pllvco = (HSE_VALUE / pllm) * (READ_BIT(RCC->PLLCFGR, RCC_PLLCFGR_PLLN) >> RCC_PLLCFGR_PLLN_Pos);
    break;

  case RCC_PLLSOURCE_HSI:  /* HSI used as PLL clock source */
  default:
    pllvco = (HSI_VALUE / pllm) * (READ_BIT(RCC->PLLCFGR, RCC_PLLCFGR_PLLN) >> RCC_PLLCFGR_PLLN_Pos);
 80053e0:	68d2      	ldr	r2, [r2, #12]
      if(pllfreq > 80000000U)
 80053e2:	4e17      	ldr	r6, [pc, #92]	@ (8005440 <HAL_RCC_ClockConfig+0x1f0>)
  pllsource = READ_BIT(RCC->PLLCFGR, RCC_PLLCFGR_PLLSRC);
 80053e4:	f000 0003 	and.w	r0, r0, #3
  switch (pllsource)
 80053e8:	2803      	cmp	r0, #3
  pllm = (READ_BIT(RCC->PLLCFGR, RCC_PLLCFGR_PLLM) >> RCC_PLLCFGR_PLLM_Pos) + 1U ;
 80053ea:	f3c1 1103 	ubfx	r1, r1, #4, #4
    pllvco = (HSE_VALUE / pllm) * (READ_BIT(RCC->PLLCFGR, RCC_PLLCFGR_PLLN) >> RCC_PLLCFGR_PLLN_Pos);
 80053ee:	bf0c      	ite	eq
 80053f0:	4817      	ldreq	r0, [pc, #92]	@ (8005450 <HAL_RCC_ClockConfig+0x200>)
    pllvco = (HSI_VALUE / pllm) * (READ_BIT(RCC->PLLCFGR, RCC_PLLCFGR_PLLN) >> RCC_PLLCFGR_PLLN_Pos);
 80053f2:	4818      	ldrne	r0, [pc, #96]	@ (8005454 <HAL_RCC_ClockConfig+0x204>)
  pllm = (READ_BIT(RCC->PLLCFGR, RCC_PLLCFGR_PLLM) >> RCC_PLLCFGR_PLLM_Pos) + 1U ;
 80053f4:	3101      	adds	r1, #1
    pllvco = (HSI_VALUE / pllm) * (READ_BIT(RCC->PLLCFGR, RCC_PLLCFGR_PLLN) >> RCC_PLLCFGR_PLLN_Pos);
 80053f6:	fbb0 f1f1 	udiv	r1, r0, r1
    break;
  }

  pllr = ((READ_BIT(RCC->PLLCFGR, RCC_PLLCFGR_PLLR) >> RCC_PLLCFGR_PLLR_Pos) + 1U ) * 2U;
 80053fa:	4810      	ldr	r0, [pc, #64]	@ (800543c <HAL_RCC_ClockConfig+0x1ec>)
    pllvco = (HSI_VALUE / pllm) * (READ_BIT(RCC->PLLCFGR, RCC_PLLCFGR_PLLN) >> RCC_PLLCFGR_PLLN_Pos);
 80053fc:	f3c2 2206 	ubfx	r2, r2, #8, #7
 8005400:	fb01 f202 	mul.w	r2, r1, r2
  pllr = ((READ_BIT(RCC->PLLCFGR, RCC_PLLCFGR_PLLR) >> RCC_PLLCFGR_PLLR_Pos) + 1U ) * 2U;
 8005404:	68c1      	ldr	r1, [r0, #12]
 8005406:	f3c1 6141 	ubfx	r1, r1, #25, #2
 800540a:	3101      	adds	r1, #1
 800540c:	0049      	lsls	r1, r1, #1
  sysclockfreq = pllvco/pllr;
 800540e:	fbb2 f2f1 	udiv	r2, r2, r1
      if(pllfreq > 80000000U)
 8005412:	42b2      	cmp	r2, r6
 8005414:	d90a      	bls.n	800542c <HAL_RCC_ClockConfig+0x1dc>
        if (((READ_BIT(RCC->CFGR, RCC_CFGR_HPRE) == RCC_SYSCLK_DIV1)) ||
 8005416:	6882      	ldr	r2, [r0, #8]
 8005418:	f012 0ff0 	tst.w	r2, #240	@ 0xf0
 800541c:	f43f af46 	beq.w	80052ac <HAL_RCC_ClockConfig+0x5c>
 8005420:	0799      	lsls	r1, r3, #30
 8005422:	d503      	bpl.n	800542c <HAL_RCC_ClockConfig+0x1dc>
            (((((RCC_ClkInitStruct->ClockType) & RCC_CLOCKTYPE_HCLK) == RCC_CLOCKTYPE_HCLK) &&
 8005424:	68a3      	ldr	r3, [r4, #8]
 8005426:	2b00      	cmp	r3, #0
 8005428:	f43f af40 	beq.w	80052ac <HAL_RCC_ClockConfig+0x5c>
  uint32_t hpre = RCC_SYSCLK_DIV1;
 800542c:	f04f 0900 	mov.w	r9, #0
 8005430:	e745      	b.n	80052be <HAL_RCC_ClockConfig+0x6e>
    return HAL_ERROR;
 8005432:	2001      	movs	r0, #1
}
 8005434:	4770      	bx	lr
 8005436:	bf00      	nop
 8005438:	40022000 	.word	0x40022000
 800543c:	40021000 	.word	0x40021000
 8005440:	04c4b400 	.word	0x04c4b400
 8005444:	0805bc40 	.word	0x0805bc40
 8005448:	20000028 	.word	0x20000028
 800544c:	20000030 	.word	0x20000030
 8005450:	007a1200 	.word	0x007a1200
 8005454:	00f42400 	.word	0x00f42400

08005458 <HAL_RCCEx_PeriphCLKConfig>:
  *         the RTC clock source: in this case the access to Backup domain is enabled.
  *
  * @retval HAL status
  */
HAL_StatusTypeDef HAL_RCCEx_PeriphCLKConfig(RCC_PeriphCLKInitTypeDef  *PeriphClkInit)
{
 8005458:	e92d 41f0 	stmdb	sp!, {r4, r5, r6, r7, r8, lr}

  /* Check the parameters */
  assert_param(IS_RCC_PERIPHCLOCK(PeriphClkInit->PeriphClockSelection));

  /*-------------------------- RTC clock source configuration ----------------------*/
  if((PeriphClkInit->PeriphClockSelection & RCC_PERIPHCLK_RTC) == RCC_PERIPHCLK_RTC)
 800545c:	6803      	ldr	r3, [r0, #0]
{
 800545e:	4604      	mov	r4, r0
  if((PeriphClkInit->PeriphClockSelection & RCC_PERIPHCLK_RTC) == RCC_PERIPHCLK_RTC)
 8005460:	f413 2000 	ands.w	r0, r3, #524288	@ 0x80000
{
 8005464:	b082      	sub	sp, #8
  if((PeriphClkInit->PeriphClockSelection & RCC_PERIPHCLK_RTC) == RCC_PERIPHCLK_RTC)
 8005466:	d052      	beq.n	800550e <HAL_RCCEx_PeriphCLKConfig+0xb6>
    
    /* Check for RTC Parameters used to output RTCCLK */
    assert_param(IS_RCC_RTCCLKSOURCE(PeriphClkInit->RTCClockSelection));

    /* Enable Power Clock */
    if(__HAL_RCC_PWR_IS_CLK_DISABLED())
 8005468:	4bac      	ldr	r3, [pc, #688]	@ (800571c <HAL_RCCEx_PeriphCLKConfig+0x2c4>)
 800546a:	6d9a      	ldr	r2, [r3, #88]	@ 0x58
 800546c:	00d5      	lsls	r5, r2, #3
 800546e:	f140 813a 	bpl.w	80056e6 <HAL_RCCEx_PeriphCLKConfig+0x28e>
    FlagStatus       pwrclkchanged = RESET;
 8005472:	2700      	movs	r7, #0
      __HAL_RCC_PWR_CLK_ENABLE();
      pwrclkchanged = SET;
    }
      
    /* Enable write access to Backup domain */
    SET_BIT(PWR->CR1, PWR_CR1_DBP);
 8005474:	4daa      	ldr	r5, [pc, #680]	@ (8005720 <HAL_RCCEx_PeriphCLKConfig+0x2c8>)
 8005476:	682b      	ldr	r3, [r5, #0]
 8005478:	f443 7380 	orr.w	r3, r3, #256	@ 0x100
 800547c:	602b      	str	r3, [r5, #0]

    /* Wait for Backup domain Write protection disable */
    tickstart = HAL_GetTick();
 800547e:	f7fe f9af 	bl	80037e0 <HAL_GetTick>
 8005482:	4606      	mov	r6, r0

    while((PWR->CR1 & PWR_CR1_DBP) == 0U)
 8005484:	e005      	b.n	8005492 <HAL_RCCEx_PeriphCLKConfig+0x3a>
    {
      if((HAL_GetTick() - tickstart) > RCC_DBP_TIMEOUT_VALUE)
 8005486:	f7fe f9ab 	bl	80037e0 <HAL_GetTick>
 800548a:	1b83      	subs	r3, r0, r6
 800548c:	2b02      	cmp	r3, #2
 800548e:	f200 8135 	bhi.w	80056fc <HAL_RCCEx_PeriphCLKConfig+0x2a4>
    while((PWR->CR1 & PWR_CR1_DBP) == 0U)
 8005492:	682b      	ldr	r3, [r5, #0]
 8005494:	05d8      	lsls	r0, r3, #23
 8005496:	d5f6      	bpl.n	8005486 <HAL_RCCEx_PeriphCLKConfig+0x2e>
    }

    if(ret == HAL_OK)
    { 
      /* Reset the Backup domain only if the RTC Clock source selection is modified from default */
      tmpregister = READ_BIT(RCC->BDCR, RCC_BDCR_RTCSEL);
 8005498:	4da0      	ldr	r5, [pc, #640]	@ (800571c <HAL_RCCEx_PeriphCLKConfig+0x2c4>)
      
      if((tmpregister != RCC_RTCCLKSOURCE_NONE) && (tmpregister != PeriphClkInit->RTCClockSelection))
 800549a:	6d22      	ldr	r2, [r4, #80]	@ 0x50
      tmpregister = READ_BIT(RCC->BDCR, RCC_BDCR_RTCSEL);
 800549c:	f8d5 3090 	ldr.w	r3, [r5, #144]	@ 0x90
      if((tmpregister != RCC_RTCCLKSOURCE_NONE) && (tmpregister != PeriphClkInit->RTCClockSelection))
 80054a0:	f413 7340 	ands.w	r3, r3, #768	@ 0x300
 80054a4:	d026      	beq.n	80054f4 <HAL_RCCEx_PeriphCLKConfig+0x9c>
 80054a6:	4293      	cmp	r3, r2
 80054a8:	d024      	beq.n	80054f4 <HAL_RCCEx_PeriphCLKConfig+0x9c>
      {
        /* Store the content of BDCR register before the reset of Backup Domain */
        tmpregister = READ_BIT(RCC->BDCR, ~(RCC_BDCR_RTCSEL));
 80054aa:	f8d5 1090 	ldr.w	r1, [r5, #144]	@ 0x90
        /* RTC Clock selection can be changed only if the Backup Domain is reset */
        __HAL_RCC_BACKUPRESET_FORCE();
 80054ae:	f8d5 3090 	ldr.w	r3, [r5, #144]	@ 0x90
 80054b2:	f443 3380 	orr.w	r3, r3, #65536	@ 0x10000
 80054b6:	f8c5 3090 	str.w	r3, [r5, #144]	@ 0x90
        __HAL_RCC_BACKUPRESET_RELEASE();
 80054ba:	f8d5 3090 	ldr.w	r3, [r5, #144]	@ 0x90
 80054be:	f423 3380 	bic.w	r3, r3, #65536	@ 0x10000
 80054c2:	f8c5 3090 	str.w	r3, [r5, #144]	@ 0x90
        tmpregister = READ_BIT(RCC->BDCR, ~(RCC_BDCR_RTCSEL));
 80054c6:	f421 7340 	bic.w	r3, r1, #768	@ 0x300
        /* Restore the Content of BDCR register */
        RCC->BDCR = tmpregister;
      }

      /* Wait for LSE reactivation if LSE was enable prior to Backup Domain reset */
      if (HAL_IS_BIT_SET(tmpregister, RCC_BDCR_LSEON))
 80054ca:	07c9      	lsls	r1, r1, #31
        RCC->BDCR = tmpregister;
 80054cc:	f8c5 3090 	str.w	r3, [r5, #144]	@ 0x90
      if (HAL_IS_BIT_SET(tmpregister, RCC_BDCR_LSEON))
 80054d0:	d510      	bpl.n	80054f4 <HAL_RCCEx_PeriphCLKConfig+0x9c>
      {
        /* Get Start Tick*/
        tickstart = HAL_GetTick();
 80054d2:	f7fe f985 	bl	80037e0 <HAL_GetTick>

        /* Wait till LSE is ready */
        while(READ_BIT(RCC->BDCR, RCC_BDCR_LSERDY) == 0U)
        {
          if((HAL_GetTick() - tickstart) > RCC_LSE_TIMEOUT_VALUE)
 80054d6:	f241 3888 	movw	r8, #5000	@ 0x1388
        tickstart = HAL_GetTick();
 80054da:	4606      	mov	r6, r0
        while(READ_BIT(RCC->BDCR, RCC_BDCR_LSERDY) == 0U)
 80054dc:	e005      	b.n	80054ea <HAL_RCCEx_PeriphCLKConfig+0x92>
          if((HAL_GetTick() - tickstart) > RCC_LSE_TIMEOUT_VALUE)
 80054de:	f7fe f97f 	bl	80037e0 <HAL_GetTick>
 80054e2:	1b80      	subs	r0, r0, r6
 80054e4:	4540      	cmp	r0, r8
 80054e6:	f200 8109 	bhi.w	80056fc <HAL_RCCEx_PeriphCLKConfig+0x2a4>
        while(READ_BIT(RCC->BDCR, RCC_BDCR_LSERDY) == 0U)
 80054ea:	f8d5 3090 	ldr.w	r3, [r5, #144]	@ 0x90
 80054ee:	079b      	lsls	r3, r3, #30
 80054f0:	d5f5      	bpl.n	80054de <HAL_RCCEx_PeriphCLKConfig+0x86>
      }
      
      if(ret == HAL_OK)
      {
        /* Apply new RTC clock source selection */
        __HAL_RCC_RTC_CONFIG(PeriphClkInit->RTCClockSelection);
 80054f2:	6d22      	ldr	r2, [r4, #80]	@ 0x50
 80054f4:	4989      	ldr	r1, [pc, #548]	@ (800571c <HAL_RCCEx_PeriphCLKConfig+0x2c4>)
 80054f6:	f8d1 3090 	ldr.w	r3, [r1, #144]	@ 0x90
 80054fa:	f423 7340 	bic.w	r3, r3, #768	@ 0x300
 80054fe:	4313      	orrs	r3, r2
 8005500:	f8c1 3090 	str.w	r3, [r1, #144]	@ 0x90
      __HAL_RCC_PWR_CLK_DISABLE();
    }
  }

  /*-------------------------- USART1 clock source configuration -------------------*/
  if(((PeriphClkInit->PeriphClockSelection) & RCC_PERIPHCLK_USART1) == RCC_PERIPHCLK_USART1)
 8005504:	6823      	ldr	r3, [r4, #0]
  HAL_StatusTypeDef status = HAL_OK;   /* Final status */
 8005506:	2000      	movs	r0, #0
    if(pwrclkchanged == SET)
 8005508:	2f00      	cmp	r7, #0
 800550a:	f040 80fc 	bne.w	8005706 <HAL_RCCEx_PeriphCLKConfig+0x2ae>
  if(((PeriphClkInit->PeriphClockSelection) & RCC_PERIPHCLK_USART1) == RCC_PERIPHCLK_USART1)
 800550e:	07dd      	lsls	r5, r3, #31
 8005510:	d508      	bpl.n	8005524 <HAL_RCCEx_PeriphCLKConfig+0xcc>
  {
    /* Check the parameters */
    assert_param(IS_RCC_USART1CLKSOURCE(PeriphClkInit->Usart1ClockSelection));

    /* Configure the USART1 clock source */
    __HAL_RCC_USART1_CONFIG(PeriphClkInit->Usart1ClockSelection);
 8005512:	4982      	ldr	r1, [pc, #520]	@ (800571c <HAL_RCCEx_PeriphCLKConfig+0x2c4>)
 8005514:	6865      	ldr	r5, [r4, #4]
 8005516:	f8d1 2088 	ldr.w	r2, [r1, #136]	@ 0x88
 800551a:	f022 0203 	bic.w	r2, r2, #3
 800551e:	432a      	orrs	r2, r5
 8005520:	f8c1 2088 	str.w	r2, [r1, #136]	@ 0x88
  }

  /*-------------------------- USART2 clock source configuration -------------------*/
  if(((PeriphClkInit->PeriphClockSelection) & RCC_PERIPHCLK_USART2) == RCC_PERIPHCLK_USART2)
 8005524:	0799      	lsls	r1, r3, #30
 8005526:	d508      	bpl.n	800553a <HAL_RCCEx_PeriphCLKConfig+0xe2>
  {
    /* Check the parameters */
    assert_param(IS_RCC_USART2CLKSOURCE(PeriphClkInit->Usart2ClockSelection));

    /* Configure the USART2 clock source */
    __HAL_RCC_USART2_CONFIG(PeriphClkInit->Usart2ClockSelection);
 8005528:	497c      	ldr	r1, [pc, #496]	@ (800571c <HAL_RCCEx_PeriphCLKConfig+0x2c4>)
 800552a:	68a5      	ldr	r5, [r4, #8]
 800552c:	f8d1 2088 	ldr.w	r2, [r1, #136]	@ 0x88
 8005530:	f022 020c 	bic.w	r2, r2, #12
 8005534:	432a      	orrs	r2, r5
 8005536:	f8c1 2088 	str.w	r2, [r1, #136]	@ 0x88
  }

#if defined(USART3)

  /*-------------------------- USART3 clock source configuration -------------------*/
  if(((PeriphClkInit->PeriphClockSelection) & RCC_PERIPHCLK_USART3) == RCC_PERIPHCLK_USART3)
 800553a:	075a      	lsls	r2, r3, #29
 800553c:	d508      	bpl.n	8005550 <HAL_RCCEx_PeriphCLKConfig+0xf8>
  {
    /* Check the parameters */
    assert_param(IS_RCC_USART3CLKSOURCE(PeriphClkInit->Usart3ClockSelection));

    /* Configure the USART3 clock source */
    __HAL_RCC_USART3_CONFIG(PeriphClkInit->Usart3ClockSelection);
 800553e:	4977      	ldr	r1, [pc, #476]	@ (800571c <HAL_RCCEx_PeriphCLKConfig+0x2c4>)
 8005540:	68e5      	ldr	r5, [r4, #12]
 8005542:	f8d1 2088 	ldr.w	r2, [r1, #136]	@ 0x88
 8005546:	f022 0230 	bic.w	r2, r2, #48	@ 0x30
 800554a:	432a      	orrs	r2, r5
 800554c:	f8c1 2088 	str.w	r2, [r1, #136]	@ 0x88

#endif /* USART3 */

#if defined(UART4)
  /*-------------------------- UART4 clock source configuration --------------------*/
  if(((PeriphClkInit->PeriphClockSelection) & RCC_PERIPHCLK_UART4) == RCC_PERIPHCLK_UART4)
 8005550:	071f      	lsls	r7, r3, #28
 8005552:	d508      	bpl.n	8005566 <HAL_RCCEx_PeriphCLKConfig+0x10e>
  {
    /* Check the parameters */
    assert_param(IS_RCC_UART4CLKSOURCE(PeriphClkInit->Uart4ClockSelection));

    /* Configure the UART4 clock source */
    __HAL_RCC_UART4_CONFIG(PeriphClkInit->Uart4ClockSelection);
 8005554:	4971      	ldr	r1, [pc, #452]	@ (800571c <HAL_RCCEx_PeriphCLKConfig+0x2c4>)
 8005556:	6925      	ldr	r5, [r4, #16]
 8005558:	f8d1 2088 	ldr.w	r2, [r1, #136]	@ 0x88
 800555c:	f022 02c0 	bic.w	r2, r2, #192	@ 0xc0
 8005560:	432a      	orrs	r2, r5
 8005562:	f8c1 2088 	str.w	r2, [r1, #136]	@ 0x88
#endif /* UART4 */

#if defined(UART5)

  /*-------------------------- UART5 clock source configuration --------------------*/
  if(((PeriphClkInit->PeriphClockSelection) & RCC_PERIPHCLK_UART5) == RCC_PERIPHCLK_UART5)
 8005566:	06de      	lsls	r6, r3, #27
 8005568:	d508      	bpl.n	800557c <HAL_RCCEx_PeriphCLKConfig+0x124>
  {
    /* Check the parameters */
    assert_param(IS_RCC_UART5CLKSOURCE(PeriphClkInit->Uart5ClockSelection));

    /* Configure the UART5 clock source */
    __HAL_RCC_UART5_CONFIG(PeriphClkInit->Uart5ClockSelection);
 800556a:	496c      	ldr	r1, [pc, #432]	@ (800571c <HAL_RCCEx_PeriphCLKConfig+0x2c4>)
 800556c:	6965      	ldr	r5, [r4, #20]
 800556e:	f8d1 2088 	ldr.w	r2, [r1, #136]	@ 0x88
 8005572:	f422 7240 	bic.w	r2, r2, #768	@ 0x300
 8005576:	432a      	orrs	r2, r5
 8005578:	f8c1 2088 	str.w	r2, [r1, #136]	@ 0x88
  }

#endif /* UART5 */

  /*-------------------------- LPUART1 clock source configuration ------------------*/
  if(((PeriphClkInit->PeriphClockSelection) & RCC_PERIPHCLK_LPUART1) == RCC_PERIPHCLK_LPUART1)
 800557c:	069d      	lsls	r5, r3, #26
 800557e:	d508      	bpl.n	8005592 <HAL_RCCEx_PeriphCLKConfig+0x13a>
  {
    /* Check the parameters */
    assert_param(IS_RCC_LPUART1CLKSOURCE(PeriphClkInit->Lpuart1ClockSelection));

    /* Configure the LPUAR1 clock source */
    __HAL_RCC_LPUART1_CONFIG(PeriphClkInit->Lpuart1ClockSelection);
 8005580:	4966      	ldr	r1, [pc, #408]	@ (800571c <HAL_RCCEx_PeriphCLKConfig+0x2c4>)
 8005582:	69a5      	ldr	r5, [r4, #24]
 8005584:	f8d1 2088 	ldr.w	r2, [r1, #136]	@ 0x88
 8005588:	f422 6240 	bic.w	r2, r2, #3072	@ 0xc00
 800558c:	432a      	orrs	r2, r5
 800558e:	f8c1 2088 	str.w	r2, [r1, #136]	@ 0x88
  }

  /*-------------------------- I2C1 clock source configuration ---------------------*/
  if(((PeriphClkInit->PeriphClockSelection) & RCC_PERIPHCLK_I2C1) == RCC_PERIPHCLK_I2C1)
 8005592:	0659      	lsls	r1, r3, #25
 8005594:	d508      	bpl.n	80055a8 <HAL_RCCEx_PeriphCLKConfig+0x150>
  {
    /* Check the parameters */
    assert_param(IS_RCC_I2C1CLKSOURCE(PeriphClkInit->I2c1ClockSelection));

    /* Configure the I2C1 clock source */
    __HAL_RCC_I2C1_CONFIG(PeriphClkInit->I2c1ClockSelection);
 8005596:	4961      	ldr	r1, [pc, #388]	@ (800571c <HAL_RCCEx_PeriphCLKConfig+0x2c4>)
 8005598:	69e5      	ldr	r5, [r4, #28]
 800559a:	f8d1 2088 	ldr.w	r2, [r1, #136]	@ 0x88
 800559e:	f422 5240 	bic.w	r2, r2, #12288	@ 0x3000
 80055a2:	432a      	orrs	r2, r5
 80055a4:	f8c1 2088 	str.w	r2, [r1, #136]	@ 0x88
  }

  /*-------------------------- I2C2 clock source configuration ---------------------*/
  if(((PeriphClkInit->PeriphClockSelection) & RCC_PERIPHCLK_I2C2) == RCC_PERIPHCLK_I2C2)
 80055a8:	061a      	lsls	r2, r3, #24
 80055aa:	d508      	bpl.n	80055be <HAL_RCCEx_PeriphCLKConfig+0x166>
  {
    /* Check the parameters */
    assert_param(IS_RCC_I2C2CLKSOURCE(PeriphClkInit->I2c2ClockSelection));

    /* Configure the I2C2 clock source */
    __HAL_RCC_I2C2_CONFIG(PeriphClkInit->I2c2ClockSelection);
 80055ac:	495b      	ldr	r1, [pc, #364]	@ (800571c <HAL_RCCEx_PeriphCLKConfig+0x2c4>)
 80055ae:	6a25      	ldr	r5, [r4, #32]
 80055b0:	f8d1 2088 	ldr.w	r2, [r1, #136]	@ 0x88
 80055b4:	f422 4240 	bic.w	r2, r2, #49152	@ 0xc000
 80055b8:	432a      	orrs	r2, r5
 80055ba:	f8c1 2088 	str.w	r2, [r1, #136]	@ 0x88
  }
#if defined(I2C3)

  /*-------------------------- I2C3 clock source configuration ---------------------*/
  if(((PeriphClkInit->PeriphClockSelection) & RCC_PERIPHCLK_I2C3) == RCC_PERIPHCLK_I2C3)
 80055be:	05df      	lsls	r7, r3, #23
 80055c0:	d508      	bpl.n	80055d4 <HAL_RCCEx_PeriphCLKConfig+0x17c>
  {
    /* Check the parameters */
    assert_param(IS_RCC_I2C3CLKSOURCE(PeriphClkInit->I2c3ClockSelection));

    /* Configure the I2C3 clock source */
    __HAL_RCC_I2C3_CONFIG(PeriphClkInit->I2c3ClockSelection);
 80055c2:	4956      	ldr	r1, [pc, #344]	@ (800571c <HAL_RCCEx_PeriphCLKConfig+0x2c4>)
 80055c4:	6a65      	ldr	r5, [r4, #36]	@ 0x24
 80055c6:	f8d1 2088 	ldr.w	r2, [r1, #136]	@ 0x88
 80055ca:	f422 3240 	bic.w	r2, r2, #196608	@ 0x30000
 80055ce:	432a      	orrs	r2, r5
 80055d0:	f8c1 2088 	str.w	r2, [r1, #136]	@ 0x88

#endif /* I2C3 */
#if defined(I2C4)

  /*-------------------------- I2C4 clock source configuration ---------------------*/
  if(((PeriphClkInit->PeriphClockSelection) & RCC_PERIPHCLK_I2C4) == RCC_PERIPHCLK_I2C4)
 80055d4:	039e      	lsls	r6, r3, #14
 80055d6:	d508      	bpl.n	80055ea <HAL_RCCEx_PeriphCLKConfig+0x192>
  {
    /* Check the parameters */
    assert_param(IS_RCC_I2C4CLKSOURCE(PeriphClkInit->I2c4ClockSelection));

    /* Configure the I2C4 clock source */
    __HAL_RCC_I2C4_CONFIG(PeriphClkInit->I2c4ClockSelection);
 80055d8:	4950      	ldr	r1, [pc, #320]	@ (800571c <HAL_RCCEx_PeriphCLKConfig+0x2c4>)
 80055da:	6aa5      	ldr	r5, [r4, #40]	@ 0x28
 80055dc:	f8d1 209c 	ldr.w	r2, [r1, #156]	@ 0x9c
 80055e0:	f022 0203 	bic.w	r2, r2, #3
 80055e4:	432a      	orrs	r2, r5
 80055e6:	f8c1 209c 	str.w	r2, [r1, #156]	@ 0x9c
  }

#endif /* I2C4 */

  /*-------------------------- LPTIM1 clock source configuration ---------------------*/
  if(((PeriphClkInit->PeriphClockSelection) & RCC_PERIPHCLK_LPTIM1) == RCC_PERIPHCLK_LPTIM1)
 80055ea:	059d      	lsls	r5, r3, #22
 80055ec:	d508      	bpl.n	8005600 <HAL_RCCEx_PeriphCLKConfig+0x1a8>
  {
    /* Check the parameters */
    assert_param(IS_RCC_LPTIM1CLKSOURCE(PeriphClkInit->Lptim1ClockSelection));

    /* Configure the LPTIM1 clock source */
    __HAL_RCC_LPTIM1_CONFIG(PeriphClkInit->Lptim1ClockSelection);
 80055ee:	494b      	ldr	r1, [pc, #300]	@ (800571c <HAL_RCCEx_PeriphCLKConfig+0x2c4>)
 80055f0:	6ae5      	ldr	r5, [r4, #44]	@ 0x2c
 80055f2:	f8d1 2088 	ldr.w	r2, [r1, #136]	@ 0x88
 80055f6:	f422 2240 	bic.w	r2, r2, #786432	@ 0xc0000
 80055fa:	432a      	orrs	r2, r5
 80055fc:	f8c1 2088 	str.w	r2, [r1, #136]	@ 0x88
  }

#if defined(SAI1) 
  /*-------------------------- SAI1 clock source configuration ---------------------*/
  if(((PeriphClkInit->PeriphClockSelection) & RCC_PERIPHCLK_SAI1) == RCC_PERIPHCLK_SAI1)
 8005600:	0559      	lsls	r1, r3, #21
 8005602:	d50b      	bpl.n	800561c <HAL_RCCEx_PeriphCLKConfig+0x1c4>
  {
    /* Check the parameters */
    assert_param(IS_RCC_SAI1CLKSOURCE(PeriphClkInit->Sai1ClockSelection));

    /* Configure the SAI1 interface clock source */
    __HAL_RCC_SAI1_CONFIG(PeriphClkInit->Sai1ClockSelection);
 8005604:	4945      	ldr	r1, [pc, #276]	@ (800571c <HAL_RCCEx_PeriphCLKConfig+0x2c4>)
 8005606:	6b25      	ldr	r5, [r4, #48]	@ 0x30
 8005608:	f8d1 2088 	ldr.w	r2, [r1, #136]	@ 0x88
 800560c:	f422 1240 	bic.w	r2, r2, #3145728	@ 0x300000
 8005610:	432a      	orrs	r2, r5
    
    if(PeriphClkInit->Sai1ClockSelection == RCC_SAI1CLKSOURCE_PLL)
 8005612:	f5b5 1f80 	cmp.w	r5, #1048576	@ 0x100000
    __HAL_RCC_SAI1_CONFIG(PeriphClkInit->Sai1ClockSelection);
 8005616:	f8c1 2088 	str.w	r2, [r1, #136]	@ 0x88
    if(PeriphClkInit->Sai1ClockSelection == RCC_SAI1CLKSOURCE_PLL)
 800561a:	d07a      	beq.n	8005712 <HAL_RCCEx_PeriphCLKConfig+0x2ba>

#endif /* SAI1 */

#if defined(SPI_I2S_SUPPORT)
  /*-------------------------- I2S clock source configuration ---------------------*/
  if(((PeriphClkInit->PeriphClockSelection) & RCC_PERIPHCLK_I2S) == RCC_PERIPHCLK_I2S)
 800561c:	051a      	lsls	r2, r3, #20
 800561e:	d50b      	bpl.n	8005638 <HAL_RCCEx_PeriphCLKConfig+0x1e0>
  {
    /* Check the parameters */
    assert_param(IS_RCC_I2SCLKSOURCE(PeriphClkInit->I2sClockSelection));

    /* Configure the I2S interface clock source */
    __HAL_RCC_I2S_CONFIG(PeriphClkInit->I2sClockSelection);
 8005620:	493e      	ldr	r1, [pc, #248]	@ (800571c <HAL_RCCEx_PeriphCLKConfig+0x2c4>)
 8005622:	6b65      	ldr	r5, [r4, #52]	@ 0x34
 8005624:	f8d1 2088 	ldr.w	r2, [r1, #136]	@ 0x88
 8005628:	f422 0240 	bic.w	r2, r2, #12582912	@ 0xc00000
 800562c:	432a      	orrs	r2, r5
    
    if(PeriphClkInit->I2sClockSelection == RCC_I2SCLKSOURCE_PLL)
 800562e:	f5b5 0f80 	cmp.w	r5, #4194304	@ 0x400000
    __HAL_RCC_I2S_CONFIG(PeriphClkInit->I2sClockSelection);
 8005632:	f8c1 2088 	str.w	r2, [r1, #136]	@ 0x88
    if(PeriphClkInit->I2sClockSelection == RCC_I2SCLKSOURCE_PLL)
 8005636:	d075      	beq.n	8005724 <HAL_RCCEx_PeriphCLKConfig+0x2cc>

#endif /* SPI_I2S_SUPPORT */

#if defined(FDCAN1)
  /*-------------------------- FDCAN clock source configuration ---------------------*/
  if(((PeriphClkInit->PeriphClockSelection) & RCC_PERIPHCLK_FDCAN) == RCC_PERIPHCLK_FDCAN)
 8005638:	04df      	lsls	r7, r3, #19
 800563a:	d50b      	bpl.n	8005654 <HAL_RCCEx_PeriphCLKConfig+0x1fc>
  {
    /* Check the parameters */
    assert_param(IS_RCC_FDCANCLKSOURCE(PeriphClkInit->FdcanClockSelection));

    /* Configure the FDCAN interface clock source */
    __HAL_RCC_FDCAN_CONFIG(PeriphClkInit->FdcanClockSelection);
 800563c:	4937      	ldr	r1, [pc, #220]	@ (800571c <HAL_RCCEx_PeriphCLKConfig+0x2c4>)
 800563e:	6ba5      	ldr	r5, [r4, #56]	@ 0x38
 8005640:	f8d1 2088 	ldr.w	r2, [r1, #136]	@ 0x88
 8005644:	f022 7240 	bic.w	r2, r2, #50331648	@ 0x3000000
 8005648:	432a      	orrs	r2, r5
    
    if(PeriphClkInit->FdcanClockSelection == RCC_FDCANCLKSOURCE_PLL)
 800564a:	f1b5 7f80 	cmp.w	r5, #16777216	@ 0x1000000
    __HAL_RCC_FDCAN_CONFIG(PeriphClkInit->FdcanClockSelection);
 800564e:	f8c1 2088 	str.w	r2, [r1, #136]	@ 0x88
    if(PeriphClkInit->FdcanClockSelection == RCC_FDCANCLKSOURCE_PLL)
 8005652:	d06c      	beq.n	800572e <HAL_RCCEx_PeriphCLKConfig+0x2d6>
#endif /* FDCAN1 */

#if defined(USB)

  /*-------------------------- USB clock source configuration ----------------------*/
  if(((PeriphClkInit->PeriphClockSelection) & RCC_PERIPHCLK_USB) == (RCC_PERIPHCLK_USB))
 8005654:	049e      	lsls	r6, r3, #18
 8005656:	d50b      	bpl.n	8005670 <HAL_RCCEx_PeriphCLKConfig+0x218>
  {
    assert_param(IS_RCC_USBCLKSOURCE(PeriphClkInit->UsbClockSelection));
    __HAL_RCC_USB_CONFIG(PeriphClkInit->UsbClockSelection);
 8005658:	4930      	ldr	r1, [pc, #192]	@ (800571c <HAL_RCCEx_PeriphCLKConfig+0x2c4>)
 800565a:	6be5      	ldr	r5, [r4, #60]	@ 0x3c
 800565c:	f8d1 2088 	ldr.w	r2, [r1, #136]	@ 0x88
 8005660:	f022 6240 	bic.w	r2, r2, #201326592	@ 0xc000000
 8005664:	432a      	orrs	r2, r5

    if(PeriphClkInit->UsbClockSelection == RCC_USBCLKSOURCE_PLL)
 8005666:	f1b5 6f00 	cmp.w	r5, #134217728	@ 0x8000000
    __HAL_RCC_USB_CONFIG(PeriphClkInit->UsbClockSelection);
 800566a:	f8c1 2088 	str.w	r2, [r1, #136]	@ 0x88
    if(PeriphClkInit->UsbClockSelection == RCC_USBCLKSOURCE_PLL)
 800566e:	d063      	beq.n	8005738 <HAL_RCCEx_PeriphCLKConfig+0x2e0>
  }

#endif /* USB */

  /*-------------------------- RNG clock source configuration ----------------------*/
  if(((PeriphClkInit->PeriphClockSelection) & RCC_PERIPHCLK_RNG) == (RCC_PERIPHCLK_RNG))
 8005670:	045d      	lsls	r5, r3, #17
 8005672:	d50b      	bpl.n	800568c <HAL_RCCEx_PeriphCLKConfig+0x234>
  {
    assert_param(IS_RCC_RNGCLKSOURCE(PeriphClkInit->RngClockSelection));
    __HAL_RCC_RNG_CONFIG(PeriphClkInit->RngClockSelection);
 8005674:	4929      	ldr	r1, [pc, #164]	@ (800571c <HAL_RCCEx_PeriphCLKConfig+0x2c4>)
 8005676:	6c25      	ldr	r5, [r4, #64]	@ 0x40
 8005678:	f8d1 2088 	ldr.w	r2, [r1, #136]	@ 0x88
 800567c:	f022 6240 	bic.w	r2, r2, #201326592	@ 0xc000000
 8005680:	432a      	orrs	r2, r5

    if(PeriphClkInit->RngClockSelection == RCC_RNGCLKSOURCE_PLL)
 8005682:	f1b5 6f00 	cmp.w	r5, #134217728	@ 0x8000000
    __HAL_RCC_RNG_CONFIG(PeriphClkInit->RngClockSelection);
 8005686:	f8c1 2088 	str.w	r2, [r1, #136]	@ 0x88
    if(PeriphClkInit->RngClockSelection == RCC_RNGCLKSOURCE_PLL)
 800568a:	d05a      	beq.n	8005742 <HAL_RCCEx_PeriphCLKConfig+0x2ea>
      __HAL_RCC_PLLCLKOUT_ENABLE(RCC_PLL_48M1CLK);
    }
  }

  /*-------------------------- ADC12 clock source configuration ----------------------*/
  if(((PeriphClkInit->PeriphClockSelection) & RCC_PERIPHCLK_ADC12) == RCC_PERIPHCLK_ADC12)
 800568c:	0419      	lsls	r1, r3, #16
 800568e:	d50b      	bpl.n	80056a8 <HAL_RCCEx_PeriphCLKConfig+0x250>
  {
    /* Check the parameters */
    assert_param(IS_RCC_ADC12CLKSOURCE(PeriphClkInit->Adc12ClockSelection));

    /* Configure the ADC12 interface clock source */
    __HAL_RCC_ADC12_CONFIG(PeriphClkInit->Adc12ClockSelection);
 8005690:	4922      	ldr	r1, [pc, #136]	@ (800571c <HAL_RCCEx_PeriphCLKConfig+0x2c4>)
 8005692:	6c65      	ldr	r5, [r4, #68]	@ 0x44
 8005694:	f8d1 2088 	ldr.w	r2, [r1, #136]	@ 0x88
 8005698:	f022 5240 	bic.w	r2, r2, #805306368	@ 0x30000000
 800569c:	432a      	orrs	r2, r5
    
    if(PeriphClkInit->Adc12ClockSelection == RCC_ADC12CLKSOURCE_PLL)
 800569e:	f1b5 5f80 	cmp.w	r5, #268435456	@ 0x10000000
    __HAL_RCC_ADC12_CONFIG(PeriphClkInit->Adc12ClockSelection);
 80056a2:	f8c1 2088 	str.w	r2, [r1, #136]	@ 0x88
    if(PeriphClkInit->Adc12ClockSelection == RCC_ADC12CLKSOURCE_PLL)
 80056a6:	d051      	beq.n	800574c <HAL_RCCEx_PeriphCLKConfig+0x2f4>
    }
  }
  
#if defined(ADC345_COMMON)
  /*-------------------------- ADC345 clock source configuration ----------------------*/
  if(((PeriphClkInit->PeriphClockSelection) & RCC_PERIPHCLK_ADC345) == RCC_PERIPHCLK_ADC345)
 80056a8:	03da      	lsls	r2, r3, #15
 80056aa:	d50b      	bpl.n	80056c4 <HAL_RCCEx_PeriphCLKConfig+0x26c>
  {
    /* Check the parameters */
    assert_param(IS_RCC_ADC345CLKSOURCE(PeriphClkInit->Adc345ClockSelection));

    /* Configure the ADC345 interface clock source */
    __HAL_RCC_ADC345_CONFIG(PeriphClkInit->Adc345ClockSelection);
 80056ac:	491b      	ldr	r1, [pc, #108]	@ (800571c <HAL_RCCEx_PeriphCLKConfig+0x2c4>)
 80056ae:	6ca5      	ldr	r5, [r4, #72]	@ 0x48
 80056b0:	f8d1 2088 	ldr.w	r2, [r1, #136]	@ 0x88
 80056b4:	f022 4240 	bic.w	r2, r2, #3221225472	@ 0xc0000000
 80056b8:	432a      	orrs	r2, r5
    
    if(PeriphClkInit->Adc345ClockSelection == RCC_ADC345CLKSOURCE_PLL)
 80056ba:	f1b5 4f80 	cmp.w	r5, #1073741824	@ 0x40000000
    __HAL_RCC_ADC345_CONFIG(PeriphClkInit->Adc345ClockSelection);
 80056be:	f8c1 2088 	str.w	r2, [r1, #136]	@ 0x88
    if(PeriphClkInit->Adc345ClockSelection == RCC_ADC345CLKSOURCE_PLL)
 80056c2:	d048      	beq.n	8005756 <HAL_RCCEx_PeriphCLKConfig+0x2fe>
#endif /* ADC345_COMMON */

#if defined(QUADSPI)

  /*-------------------------- QuadSPIx clock source configuration ----------------*/
  if(((PeriphClkInit->PeriphClockSelection) & RCC_PERIPHCLK_QSPI) == RCC_PERIPHCLK_QSPI)
 80056c4:	035b      	lsls	r3, r3, #13
 80056c6:	d50b      	bpl.n	80056e0 <HAL_RCCEx_PeriphCLKConfig+0x288>
  {
    /* Check the parameters */
    assert_param(IS_RCC_QSPICLKSOURCE(PeriphClkInit->QspiClockSelection));

    /* Configure the QuadSPI clock source */
    __HAL_RCC_QSPI_CONFIG(PeriphClkInit->QspiClockSelection);
 80056c8:	4a14      	ldr	r2, [pc, #80]	@ (800571c <HAL_RCCEx_PeriphCLKConfig+0x2c4>)
 80056ca:	6ce1      	ldr	r1, [r4, #76]	@ 0x4c
 80056cc:	f8d2 309c 	ldr.w	r3, [r2, #156]	@ 0x9c
 80056d0:	f423 1340 	bic.w	r3, r3, #3145728	@ 0x300000
 80056d4:	430b      	orrs	r3, r1

    if(PeriphClkInit->QspiClockSelection == RCC_QSPICLKSOURCE_PLL)
 80056d6:	f5b1 1f00 	cmp.w	r1, #2097152	@ 0x200000
    __HAL_RCC_QSPI_CONFIG(PeriphClkInit->QspiClockSelection);
 80056da:	f8c2 309c 	str.w	r3, [r2, #156]	@ 0x9c
    if(PeriphClkInit->QspiClockSelection == RCC_QSPICLKSOURCE_PLL)
 80056de:	d03f      	beq.n	8005760 <HAL_RCCEx_PeriphCLKConfig+0x308>
  }

#endif /* QUADSPI */

  return status;
}
 80056e0:	b002      	add	sp, #8
 80056e2:	e8bd 81f0 	ldmia.w	sp!, {r4, r5, r6, r7, r8, pc}
      __HAL_RCC_PWR_CLK_ENABLE();
 80056e6:	6d9a      	ldr	r2, [r3, #88]	@ 0x58
 80056e8:	f042 5280 	orr.w	r2, r2, #268435456	@ 0x10000000
 80056ec:	659a      	str	r2, [r3, #88]	@ 0x58
 80056ee:	6d9b      	ldr	r3, [r3, #88]	@ 0x58
 80056f0:	f003 5380 	and.w	r3, r3, #268435456	@ 0x10000000
 80056f4:	9301      	str	r3, [sp, #4]
 80056f6:	9b01      	ldr	r3, [sp, #4]
      pwrclkchanged = SET;
 80056f8:	2701      	movs	r7, #1
 80056fa:	e6bb      	b.n	8005474 <HAL_RCCEx_PeriphCLKConfig+0x1c>
  if(((PeriphClkInit->PeriphClockSelection) & RCC_PERIPHCLK_USART1) == RCC_PERIPHCLK_USART1)
 80056fc:	6823      	ldr	r3, [r4, #0]
        status = ret;
 80056fe:	2003      	movs	r0, #3
    if(pwrclkchanged == SET)
 8005700:	2f00      	cmp	r7, #0
 8005702:	f43f af04 	beq.w	800550e <HAL_RCCEx_PeriphCLKConfig+0xb6>
      __HAL_RCC_PWR_CLK_DISABLE();
 8005706:	4905      	ldr	r1, [pc, #20]	@ (800571c <HAL_RCCEx_PeriphCLKConfig+0x2c4>)
 8005708:	6d8a      	ldr	r2, [r1, #88]	@ 0x58
 800570a:	f022 5280 	bic.w	r2, r2, #268435456	@ 0x10000000
 800570e:	658a      	str	r2, [r1, #88]	@ 0x58
 8005710:	e6fd      	b.n	800550e <HAL_RCCEx_PeriphCLKConfig+0xb6>
      __HAL_RCC_PLLCLKOUT_ENABLE(RCC_PLL_48M1CLK);
 8005712:	68ca      	ldr	r2, [r1, #12]
 8005714:	f442 1280 	orr.w	r2, r2, #1048576	@ 0x100000
 8005718:	60ca      	str	r2, [r1, #12]
 800571a:	e77f      	b.n	800561c <HAL_RCCEx_PeriphCLKConfig+0x1c4>
 800571c:	40021000 	.word	0x40021000
 8005720:	40007000 	.word	0x40007000
      __HAL_RCC_PLLCLKOUT_ENABLE(RCC_PLL_48M1CLK);
 8005724:	68ca      	ldr	r2, [r1, #12]
 8005726:	f442 1280 	orr.w	r2, r2, #1048576	@ 0x100000
 800572a:	60ca      	str	r2, [r1, #12]
 800572c:	e784      	b.n	8005638 <HAL_RCCEx_PeriphCLKConfig+0x1e0>
      __HAL_RCC_PLLCLKOUT_ENABLE(RCC_PLL_48M1CLK);
 800572e:	68ca      	ldr	r2, [r1, #12]
 8005730:	f442 1280 	orr.w	r2, r2, #1048576	@ 0x100000
 8005734:	60ca      	str	r2, [r1, #12]
 8005736:	e78d      	b.n	8005654 <HAL_RCCEx_PeriphCLKConfig+0x1fc>
      __HAL_RCC_PLLCLKOUT_ENABLE(RCC_PLL_48M1CLK);
 8005738:	68ca      	ldr	r2, [r1, #12]
 800573a:	f442 1280 	orr.w	r2, r2, #1048576	@ 0x100000
 800573e:	60ca      	str	r2, [r1, #12]
 8005740:	e796      	b.n	8005670 <HAL_RCCEx_PeriphCLKConfig+0x218>
      __HAL_RCC_PLLCLKOUT_ENABLE(RCC_PLL_48M1CLK);
 8005742:	68ca      	ldr	r2, [r1, #12]
 8005744:	f442 1280 	orr.w	r2, r2, #1048576	@ 0x100000
 8005748:	60ca      	str	r2, [r1, #12]
 800574a:	e79f      	b.n	800568c <HAL_RCCEx_PeriphCLKConfig+0x234>
      __HAL_RCC_PLLCLKOUT_ENABLE(RCC_PLL_ADCCLK);
 800574c:	68ca      	ldr	r2, [r1, #12]
 800574e:	f442 3280 	orr.w	r2, r2, #65536	@ 0x10000
 8005752:	60ca      	str	r2, [r1, #12]
 8005754:	e7a8      	b.n	80056a8 <HAL_RCCEx_PeriphCLKConfig+0x250>
      __HAL_RCC_PLLCLKOUT_ENABLE(RCC_PLL_ADCCLK);
 8005756:	68ca      	ldr	r2, [r1, #12]
 8005758:	f442 3280 	orr.w	r2, r2, #65536	@ 0x10000
 800575c:	60ca      	str	r2, [r1, #12]
 800575e:	e7b1      	b.n	80056c4 <HAL_RCCEx_PeriphCLKConfig+0x26c>
      __HAL_RCC_PLLCLKOUT_ENABLE(RCC_PLL_48M1CLK);
 8005760:	68d3      	ldr	r3, [r2, #12]
 8005762:	f443 1380 	orr.w	r3, r3, #1048576	@ 0x100000
 8005766:	60d3      	str	r3, [r2, #12]
}
 8005768:	b002      	add	sp, #8
 800576a:	e8bd 81f0 	ldmia.w	sp!, {r4, r5, r6, r7, r8, pc}
 800576e:	bf00      	nop

08005770 <HAL_SPI_Init>:
HAL_StatusTypeDef HAL_SPI_Init(SPI_HandleTypeDef *hspi)
{
  uint32_t frxth;

  /* Check the SPI handle allocation */
  if (hspi == NULL)
 8005770:	2800      	cmp	r0, #0
 8005772:	d077      	beq.n	8005864 <HAL_SPI_Init+0xf4>
  assert_param(IS_SPI_NSS(hspi->Init.NSS));
  assert_param(IS_SPI_NSSP(hspi->Init.NSSPMode));
  assert_param(IS_SPI_BAUDRATE_PRESCALER(hspi->Init.BaudRatePrescaler));
  assert_param(IS_SPI_FIRST_BIT(hspi->Init.FirstBit));
  assert_param(IS_SPI_TIMODE(hspi->Init.TIMode));
  if (hspi->Init.TIMode == SPI_TIMODE_DISABLE)
 8005774:	6a42      	ldr	r2, [r0, #36]	@ 0x24
{
 8005776:	e92d 41f0 	stmdb	sp!, {r4, r5, r6, r7, r8, lr}
 800577a:	4604      	mov	r4, r0
  if (hspi->Init.TIMode == SPI_TIMODE_DISABLE)
 800577c:	2a00      	cmp	r2, #0
 800577e:	d057      	beq.n	8005830 <HAL_SPI_Init+0xc0>
  else
  {
    assert_param(IS_SPI_BAUDRATE_PRESCALER(hspi->Init.BaudRatePrescaler));

    /* Force polarity and phase to TI protocaol requirements */
    hspi->Init.CLKPolarity = SPI_POLARITY_LOW;
 8005780:	2300      	movs	r3, #0
 8005782:	e9c0 3304 	strd	r3, r3, [r0, #16]
  }
#else
  hspi->Init.CRCCalculation = SPI_CRCCALCULATION_DISABLE;
#endif /* USE_SPI_CRC */

  if (hspi->State == HAL_SPI_STATE_RESET)
 8005786:	f894 305d 	ldrb.w	r3, [r4, #93]	@ 0x5d
  hspi->Init.CRCCalculation = SPI_CRCCALCULATION_DISABLE;
 800578a:	2100      	movs	r1, #0
 800578c:	62a1      	str	r1, [r4, #40]	@ 0x28
  if (hspi->State == HAL_SPI_STATE_RESET)
 800578e:	f003 01ff 	and.w	r1, r3, #255	@ 0xff
 8005792:	2b00      	cmp	r3, #0
 8005794:	d05a      	beq.n	800584c <HAL_SPI_Init+0xdc>
  }

  hspi->State = HAL_SPI_STATE_BUSY;

  /* Disable the selected SPI peripheral */
  __HAL_SPI_DISABLE(hspi);
 8005796:	6821      	ldr	r1, [r4, #0]

  /* Align by default the rs fifo threshold on the data size */
  if (hspi->Init.DataSize > SPI_DATASIZE_8BIT)
 8005798:	68e7      	ldr	r7, [r4, #12]
  hspi->State = HAL_SPI_STATE_BUSY;
 800579a:	2302      	movs	r3, #2
 800579c:	f884 305d 	strb.w	r3, [r4, #93]	@ 0x5d
  __HAL_SPI_DISABLE(hspi);
 80057a0:	680b      	ldr	r3, [r1, #0]
  if (hspi->Init.DataSize > SPI_DATASIZE_8BIT)
 80057a2:	f5b7 6fe0 	cmp.w	r7, #1792	@ 0x700
  __HAL_SPI_DISABLE(hspi);
 80057a6:	f023 0340 	bic.w	r3, r3, #64	@ 0x40
 80057aa:	600b      	str	r3, [r1, #0]
  if (hspi->Init.DataSize > SPI_DATASIZE_8BIT)
 80057ac:	d846      	bhi.n	800583c <HAL_SPI_Init+0xcc>
  {
    frxth = SPI_RXFIFO_THRESHOLD_QF;
  }

  /* CRC calculation is valid only for 16Bit and 8 Bit */
  if ((hspi->Init.DataSize != SPI_DATASIZE_16BIT) && (hspi->Init.DataSize != SPI_DATASIZE_8BIT))
 80057ae:	d154      	bne.n	800585a <HAL_SPI_Init+0xea>
  }

  /*----------------------- SPIx CR1 & CR2 Configuration ---------------------*/
  /* Configure : SPI Mode, Communication Mode, Clock polarity and phase, NSS management,
  Communication speed, First bit and CRC calculation state */
  WRITE_REG(hspi->Instance->CR1, ((hspi->Init.Mode & (SPI_CR1_MSTR | SPI_CR1_SSI)) |
 80057b0:	6aa5      	ldr	r5, [r4, #40]	@ 0x28
    frxth = SPI_RXFIFO_THRESHOLD_QF;
 80057b2:	f44f 5080 	mov.w	r0, #4096	@ 0x1000
  WRITE_REG(hspi->Instance->CR1, ((hspi->Init.Mode & (SPI_CR1_MSTR | SPI_CR1_SSI)) |
 80057b6:	f405 5500 	and.w	r5, r5, #8192	@ 0x2000
 80057ba:	68a3      	ldr	r3, [r4, #8]
 80057bc:	69a6      	ldr	r6, [r4, #24]
    }
  }
#endif /* USE_SPI_CRC */

  /* Configure : NSS management, TI Mode, NSS Pulse, Data size and Rx Fifo threshold */
  WRITE_REG(hspi->Instance->CR2, (((hspi->Init.NSS >> 16U) & SPI_CR2_SSOE) |
 80057be:	f002 0c10 	and.w	ip, r2, #16
  WRITE_REG(hspi->Instance->CR1, ((hspi->Init.Mode & (SPI_CR1_MSTR | SPI_CR1_SSI)) |
 80057c2:	6862      	ldr	r2, [r4, #4]
 80057c4:	f403 4304 	and.w	r3, r3, #33792	@ 0x8400
 80057c8:	f402 7282 	and.w	r2, r2, #260	@ 0x104
 80057cc:	431a      	orrs	r2, r3
 80057ce:	6923      	ldr	r3, [r4, #16]
 80057d0:	f003 0302 	and.w	r3, r3, #2
 80057d4:	4313      	orrs	r3, r2
 80057d6:	6962      	ldr	r2, [r4, #20]
 80057d8:	f002 0201 	and.w	r2, r2, #1
 80057dc:	431a      	orrs	r2, r3
  WRITE_REG(hspi->Instance->CR2, (((hspi->Init.NSS >> 16U) & SPI_CR2_SSOE) |
 80057de:	6b63      	ldr	r3, [r4, #52]	@ 0x34
 80057e0:	f407 6770 	and.w	r7, r7, #3840	@ 0xf00
 80057e4:	f003 0308 	and.w	r3, r3, #8
 80057e8:	ea43 0e07 	orr.w	lr, r3, r7
  WRITE_REG(hspi->Instance->CR1, ((hspi->Init.Mode & (SPI_CR1_MSTR | SPI_CR1_SSI)) |
 80057ec:	69e3      	ldr	r3, [r4, #28]
 80057ee:	f003 0838 	and.w	r8, r3, #56	@ 0x38
 80057f2:	6a23      	ldr	r3, [r4, #32]
 80057f4:	f003 0780 	and.w	r7, r3, #128	@ 0x80
 80057f8:	f406 7300 	and.w	r3, r6, #512	@ 0x200
 80057fc:	4313      	orrs	r3, r2
 80057fe:	ea43 0308 	orr.w	r3, r3, r8
 8005802:	433b      	orrs	r3, r7
  WRITE_REG(hspi->Instance->CR2, (((hspi->Init.NSS >> 16U) & SPI_CR2_SSOE) |
 8005804:	0c36      	lsrs	r6, r6, #16
  WRITE_REG(hspi->Instance->CR1, ((hspi->Init.Mode & (SPI_CR1_MSTR | SPI_CR1_SSI)) |
 8005806:	432b      	orrs	r3, r5
  WRITE_REG(hspi->Instance->CR2, (((hspi->Init.NSS >> 16U) & SPI_CR2_SSOE) |
 8005808:	f006 0604 	and.w	r6, r6, #4
  WRITE_REG(hspi->Instance->CR1, ((hspi->Init.Mode & (SPI_CR1_MSTR | SPI_CR1_SSI)) |
 800580c:	600b      	str	r3, [r1, #0]
  WRITE_REG(hspi->Instance->CR2, (((hspi->Init.NSS >> 16U) & SPI_CR2_SSOE) |
 800580e:	ea4e 0306 	orr.w	r3, lr, r6
 8005812:	ea43 030c 	orr.w	r3, r3, ip
 8005816:	4303      	orrs	r3, r0
 8005818:	604b      	str	r3, [r1, #4]
  }
#endif /* USE_SPI_CRC */

#if defined(SPI_I2SCFGR_I2SMOD)
  /* Activate the SPI mode (Make sure that I2SMOD bit in I2SCFGR register is reset) */
  CLEAR_BIT(hspi->Instance->I2SCFGR, SPI_I2SCFGR_I2SMOD);
 800581a:	69cb      	ldr	r3, [r1, #28]
#endif /* SPI_I2SCFGR_I2SMOD */

  hspi->ErrorCode = HAL_SPI_ERROR_NONE;
 800581c:	2000      	movs	r0, #0
  CLEAR_BIT(hspi->Instance->I2SCFGR, SPI_I2SCFGR_I2SMOD);
 800581e:	f423 6300 	bic.w	r3, r3, #2048	@ 0x800
  hspi->State     = HAL_SPI_STATE_READY;
 8005822:	2201      	movs	r2, #1
  CLEAR_BIT(hspi->Instance->I2SCFGR, SPI_I2SCFGR_I2SMOD);
 8005824:	61cb      	str	r3, [r1, #28]
  hspi->ErrorCode = HAL_SPI_ERROR_NONE;
 8005826:	6620      	str	r0, [r4, #96]	@ 0x60
  hspi->State     = HAL_SPI_STATE_READY;
 8005828:	f884 205d 	strb.w	r2, [r4, #93]	@ 0x5d

  return HAL_OK;
}
 800582c:	e8bd 81f0 	ldmia.w	sp!, {r4, r5, r6, r7, r8, pc}
    if (hspi->Init.Mode == SPI_MODE_MASTER)
 8005830:	6843      	ldr	r3, [r0, #4]
 8005832:	f5b3 7f82 	cmp.w	r3, #260	@ 0x104
 8005836:	d0a6      	beq.n	8005786 <HAL_SPI_Init+0x16>
      hspi->Init.BaudRatePrescaler = SPI_BAUDRATEPRESCALER_2;
 8005838:	61c2      	str	r2, [r0, #28]
 800583a:	e7a4      	b.n	8005786 <HAL_SPI_Init+0x16>
  if ((hspi->Init.DataSize != SPI_DATASIZE_16BIT) && (hspi->Init.DataSize != SPI_DATASIZE_8BIT))
 800583c:	f5b7 6f70 	cmp.w	r7, #3840	@ 0xf00
 8005840:	d112      	bne.n	8005868 <HAL_SPI_Init+0xf8>
  WRITE_REG(hspi->Instance->CR1, ((hspi->Init.Mode & (SPI_CR1_MSTR | SPI_CR1_SSI)) |
 8005842:	6aa5      	ldr	r5, [r4, #40]	@ 0x28
    frxth = SPI_RXFIFO_THRESHOLD_HF;
 8005844:	2000      	movs	r0, #0
  WRITE_REG(hspi->Instance->CR1, ((hspi->Init.Mode & (SPI_CR1_MSTR | SPI_CR1_SSI)) |
 8005846:	f405 5500 	and.w	r5, r5, #8192	@ 0x2000
 800584a:	e7b6      	b.n	80057ba <HAL_SPI_Init+0x4a>
    hspi->Lock = HAL_UNLOCKED;
 800584c:	f884 105c 	strb.w	r1, [r4, #92]	@ 0x5c
    HAL_SPI_MspInit(hspi);
 8005850:	4620      	mov	r0, r4
 8005852:	f7fd fe25 	bl	80034a0 <HAL_SPI_MspInit>
  WRITE_REG(hspi->Instance->CR2, (((hspi->Init.NSS >> 16U) & SPI_CR2_SSOE) |
 8005856:	6a62      	ldr	r2, [r4, #36]	@ 0x24
 8005858:	e79d      	b.n	8005796 <HAL_SPI_Init+0x26>
    frxth = SPI_RXFIFO_THRESHOLD_QF;
 800585a:	f44f 5080 	mov.w	r0, #4096	@ 0x1000
    hspi->Init.CRCCalculation = SPI_CRCCALCULATION_DISABLE;
 800585e:	2500      	movs	r5, #0
 8005860:	62a5      	str	r5, [r4, #40]	@ 0x28
 8005862:	e7aa      	b.n	80057ba <HAL_SPI_Init+0x4a>
    return HAL_ERROR;
 8005864:	2001      	movs	r0, #1
}
 8005866:	4770      	bx	lr
    frxth = SPI_RXFIFO_THRESHOLD_HF;
 8005868:	2000      	movs	r0, #0
 800586a:	e7f8      	b.n	800585e <HAL_SPI_Init+0xee>

0800586c <HAL_SRAM_Init>:
  */
HAL_StatusTypeDef HAL_SRAM_Init(SRAM_HandleTypeDef *hsram, FMC_NORSRAM_TimingTypeDef *Timing,
                                FMC_NORSRAM_TimingTypeDef *ExtTiming)
{
  /* Check the SRAM handle parameter */
  if (hsram == NULL)
 800586c:	b348      	cbz	r0, 80058c2 <HAL_SRAM_Init+0x56>
{
 800586e:	b570      	push	{r4, r5, r6, lr}
  {
    return HAL_ERROR;
  }

  if (hsram->State == HAL_SRAM_STATE_RESET)
 8005870:	f890 3051 	ldrb.w	r3, [r0, #81]	@ 0x51
 8005874:	4615      	mov	r5, r2
 8005876:	460e      	mov	r6, r1
 8005878:	4604      	mov	r4, r0
 800587a:	f003 02ff 	and.w	r2, r3, #255	@ 0xff
 800587e:	b1db      	cbz	r3, 80058b8 <HAL_SRAM_Init+0x4c>
    HAL_SRAM_MspInit(hsram);
#endif /* USE_HAL_SRAM_REGISTER_CALLBACKS */
  }

  /* Initialize SRAM control Interface */
  (void)FMC_NORSRAM_Init(hsram->Instance, &(hsram->Init));
 8005880:	4621      	mov	r1, r4
 8005882:	f851 0b08 	ldr.w	r0, [r1], #8
 8005886:	f000 fa2d 	bl	8005ce4 <FMC_NORSRAM_Init>

  /* Initialize SRAM timing Interface */
  (void)FMC_NORSRAM_Timing_Init(hsram->Instance, Timing, hsram->Init.NSBank);
 800588a:	68a2      	ldr	r2, [r4, #8]
 800588c:	6820      	ldr	r0, [r4, #0]
 800588e:	4631      	mov	r1, r6
 8005890:	f000 fa9c 	bl	8005dcc <FMC_NORSRAM_Timing_Init>

  /* Initialize SRAM extended mode timing Interface */
  (void)FMC_NORSRAM_Extended_Timing_Init(hsram->Extended, ExtTiming, hsram->Init.NSBank,
 8005894:	e9d4 0201 	ldrd	r0, r2, [r4, #4]
 8005898:	6ae3      	ldr	r3, [r4, #44]	@ 0x2c
 800589a:	4629      	mov	r1, r5
 800589c:	f000 fac2 	bl	8005e24 <FMC_NORSRAM_Extended_Timing_Init>
                                         hsram->Init.ExtendedMode);

  /* Enable the NORSRAM device */
  __FMC_NORSRAM_ENABLE(hsram->Instance, hsram->Init.NSBank);
 80058a0:	6822      	ldr	r2, [r4, #0]
 80058a2:	68a1      	ldr	r1, [r4, #8]
 80058a4:	f852 3021 	ldr.w	r3, [r2, r1, lsl #2]

  /* Initialize the SRAM controller state */
  hsram->State = HAL_SRAM_STATE_READY;
 80058a8:	2501      	movs	r5, #1
  __FMC_NORSRAM_ENABLE(hsram->Instance, hsram->Init.NSBank);
 80058aa:	432b      	orrs	r3, r5
 80058ac:	f842 3021 	str.w	r3, [r2, r1, lsl #2]
  hsram->State = HAL_SRAM_STATE_READY;
 80058b0:	f884 5051 	strb.w	r5, [r4, #81]	@ 0x51

  return HAL_OK;
 80058b4:	2000      	movs	r0, #0
}
 80058b6:	bd70      	pop	{r4, r5, r6, pc}
    hsram->Lock = HAL_UNLOCKED;
 80058b8:	f880 2050 	strb.w	r2, [r0, #80]	@ 0x50
    HAL_SRAM_MspInit(hsram);
 80058bc:	f7fd fe42 	bl	8003544 <HAL_SRAM_MspInit>
 80058c0:	e7de      	b.n	8005880 <HAL_SRAM_Init+0x14>
    return HAL_ERROR;
 80058c2:	2001      	movs	r0, #1
}
 80058c4:	4770      	bx	lr
 80058c6:	bf00      	nop

080058c8 <HAL_TIM_Base_Init>:
  * @retval HAL status
  */
HAL_StatusTypeDef HAL_TIM_Base_Init(TIM_HandleTypeDef *htim)
{
  /* Check the TIM handle allocation */
  if (htim == NULL)
 80058c8:	2800      	cmp	r0, #0
 80058ca:	f000 8099 	beq.w	8005a00 <HAL_TIM_Base_Init+0x138>
{
 80058ce:	b538      	push	{r3, r4, r5, lr}
  assert_param(IS_TIM_COUNTER_MODE(htim->Init.CounterMode));
  assert_param(IS_TIM_CLOCKDIVISION_DIV(htim->Init.ClockDivision));
  assert_param(IS_TIM_PERIOD(htim, htim->Init.Period));
  assert_param(IS_TIM_AUTORELOAD_PRELOAD(htim->Init.AutoReloadPreload));

  if (htim->State == HAL_TIM_STATE_RESET)
 80058d0:	f890 303d 	ldrb.w	r3, [r0, #61]	@ 0x3d
 80058d4:	4604      	mov	r4, r0
 80058d6:	f003 02ff 	and.w	r2, r3, #255	@ 0xff
 80058da:	2b00      	cmp	r3, #0
 80058dc:	d07d      	beq.n	80059da <HAL_TIM_Base_Init+0x112>

  /* Set the TIM state */
  htim->State = HAL_TIM_STATE_BUSY;

  /* Set the Time Base configuration */
  TIM_Base_SetConfig(htim->Instance, &htim->Init);
 80058de:	6823      	ldr	r3, [r4, #0]
{
  uint32_t tmpcr1;
  tmpcr1 = TIMx->CR1;

  /* Set TIM Time Base Unit parameters ---------------------------------------*/
  if (IS_TIM_COUNTER_MODE_SELECT_INSTANCE(TIMx))
 80058e0:	4948      	ldr	r1, [pc, #288]	@ (8005a04 <HAL_TIM_Base_Init+0x13c>)
  htim->State = HAL_TIM_STATE_BUSY;
 80058e2:	2202      	movs	r2, #2
 80058e4:	f884 203d 	strb.w	r2, [r4, #61]	@ 0x3d
  if (IS_TIM_COUNTER_MODE_SELECT_INSTANCE(TIMx))
 80058e8:	428b      	cmp	r3, r1
  tmpcr1 = TIMx->CR1;
 80058ea:	681a      	ldr	r2, [r3, #0]
  if (IS_TIM_COUNTER_MODE_SELECT_INSTANCE(TIMx))
 80058ec:	d061      	beq.n	80059b2 <HAL_TIM_Base_Init+0xea>
 80058ee:	f1b3 4f80 	cmp.w	r3, #1073741824	@ 0x40000000
 80058f2:	d029      	beq.n	8005948 <HAL_TIM_Base_Init+0x80>
 80058f4:	f5a1 3194 	sub.w	r1, r1, #75776	@ 0x12800
 80058f8:	428b      	cmp	r3, r1
 80058fa:	d025      	beq.n	8005948 <HAL_TIM_Base_Init+0x80>
 80058fc:	f501 6180 	add.w	r1, r1, #1024	@ 0x400
 8005900:	428b      	cmp	r3, r1
 8005902:	d021      	beq.n	8005948 <HAL_TIM_Base_Init+0x80>
 8005904:	f501 6180 	add.w	r1, r1, #1024	@ 0x400
 8005908:	428b      	cmp	r3, r1
 800590a:	d01d      	beq.n	8005948 <HAL_TIM_Base_Init+0x80>
 800590c:	f501 3194 	add.w	r1, r1, #75776	@ 0x12800
 8005910:	428b      	cmp	r3, r1
 8005912:	d04e      	beq.n	80059b2 <HAL_TIM_Base_Init+0xea>
 8005914:	f501 51e0 	add.w	r1, r1, #7168	@ 0x1c00
 8005918:	428b      	cmp	r3, r1
 800591a:	d04a      	beq.n	80059b2 <HAL_TIM_Base_Init+0xea>
    /* Select the Counter Mode */
    tmpcr1 &= ~(TIM_CR1_DIR | TIM_CR1_CMS);
    tmpcr1 |= Structure->CounterMode;
  }

  if (IS_TIM_CLOCK_DIVISION_INSTANCE(TIMx))
 800591c:	f5a1 5180 	sub.w	r1, r1, #4096	@ 0x1000
 8005920:	428b      	cmp	r3, r1
 8005922:	d05f      	beq.n	80059e4 <HAL_TIM_Base_Init+0x11c>
 8005924:	f501 6180 	add.w	r1, r1, #1024	@ 0x400
 8005928:	428b      	cmp	r3, r1
 800592a:	d05b      	beq.n	80059e4 <HAL_TIM_Base_Init+0x11c>
 800592c:	f501 6180 	add.w	r1, r1, #1024	@ 0x400
 8005930:	428b      	cmp	r3, r1
 8005932:	d057      	beq.n	80059e4 <HAL_TIM_Base_Init+0x11c>
    tmpcr1 &= ~TIM_CR1_CKD;
    tmpcr1 |= (uint32_t)Structure->ClockDivision;
  }

  /* Set the auto-reload preload */
  MODIFY_REG(tmpcr1, TIM_CR1_ARPE, Structure->AutoReloadPreload);
 8005934:	69a5      	ldr	r5, [r4, #24]

  /* Set the Autoreload value */
  TIMx->ARR = (uint32_t)Structure->Period ;

  /* Set the Prescaler value */
  TIMx->PSC = Structure->Prescaler;
 8005936:	6861      	ldr	r1, [r4, #4]
  TIMx->ARR = (uint32_t)Structure->Period ;
 8005938:	68e0      	ldr	r0, [r4, #12]
  MODIFY_REG(tmpcr1, TIM_CR1_ARPE, Structure->AutoReloadPreload);
 800593a:	f022 0280 	bic.w	r2, r2, #128	@ 0x80
 800593e:	432a      	orrs	r2, r5
  TIMx->CR1 = tmpcr1;
 8005940:	601a      	str	r2, [r3, #0]
  TIMx->ARR = (uint32_t)Structure->Period ;
 8005942:	62d8      	str	r0, [r3, #44]	@ 0x2c
  TIMx->PSC = Structure->Prescaler;
 8005944:	6299      	str	r1, [r3, #40]	@ 0x28

  if (IS_TIM_REPETITION_COUNTER_INSTANCE(TIMx))
 8005946:	e010      	b.n	800596a <HAL_TIM_Base_Init+0xa2>
    tmpcr1 |= Structure->CounterMode;
 8005948:	68a1      	ldr	r1, [r4, #8]
    tmpcr1 |= (uint32_t)Structure->ClockDivision;
 800594a:	6920      	ldr	r0, [r4, #16]
    tmpcr1 &= ~(TIM_CR1_DIR | TIM_CR1_CMS);
 800594c:	f022 0270 	bic.w	r2, r2, #112	@ 0x70
    tmpcr1 |= Structure->CounterMode;
 8005950:	430a      	orrs	r2, r1
    tmpcr1 &= ~TIM_CR1_CKD;
 8005952:	f422 7240 	bic.w	r2, r2, #768	@ 0x300
  MODIFY_REG(tmpcr1, TIM_CR1_ARPE, Structure->AutoReloadPreload);
 8005956:	69a1      	ldr	r1, [r4, #24]
    tmpcr1 |= (uint32_t)Structure->ClockDivision;
 8005958:	4302      	orrs	r2, r0
  MODIFY_REG(tmpcr1, TIM_CR1_ARPE, Structure->AutoReloadPreload);
 800595a:	f022 0280 	bic.w	r2, r2, #128	@ 0x80
  TIMx->ARR = (uint32_t)Structure->Period ;
 800595e:	68e0      	ldr	r0, [r4, #12]
  MODIFY_REG(tmpcr1, TIM_CR1_ARPE, Structure->AutoReloadPreload);
 8005960:	430a      	orrs	r2, r1
  TIMx->PSC = Structure->Prescaler;
 8005962:	6861      	ldr	r1, [r4, #4]
  TIMx->CR1 = tmpcr1;
 8005964:	601a      	str	r2, [r3, #0]
  TIMx->ARR = (uint32_t)Structure->Period ;
 8005966:	62d8      	str	r0, [r3, #44]	@ 0x2c
  TIMx->PSC = Structure->Prescaler;
 8005968:	6299      	str	r1, [r3, #40]	@ 0x28
    TIMx->RCR = Structure->RepetitionCounter;
  }

  /* Generate an update event to reload the Prescaler
     and the repetition counter (only for advanced timer) value immediately */
  TIMx->EGR = TIM_EGR_UG;
 800596a:	2201      	movs	r2, #1
 800596c:	615a      	str	r2, [r3, #20]

  /* Check if the update flag is set after the Update Generation, if so clear the UIF flag */
  if (HAL_IS_BIT_SET(TIMx->SR, TIM_FLAG_UPDATE))
 800596e:	691a      	ldr	r2, [r3, #16]
 8005970:	07d2      	lsls	r2, r2, #31
 8005972:	d503      	bpl.n	800597c <HAL_TIM_Base_Init+0xb4>
  {
    /* Clear the update flag */
    CLEAR_BIT(TIMx->SR, TIM_FLAG_UPDATE);
 8005974:	691a      	ldr	r2, [r3, #16]
 8005976:	f022 0201 	bic.w	r2, r2, #1
 800597a:	611a      	str	r2, [r3, #16]
  htim->DMABurstState = HAL_DMA_BURST_STATE_READY;
 800597c:	2301      	movs	r3, #1
 800597e:	f884 3048 	strb.w	r3, [r4, #72]	@ 0x48
  TIM_CHANNEL_STATE_SET_ALL(htim, HAL_TIM_CHANNEL_STATE_READY);
 8005982:	f884 303e 	strb.w	r3, [r4, #62]	@ 0x3e
 8005986:	f884 303f 	strb.w	r3, [r4, #63]	@ 0x3f
 800598a:	f884 3040 	strb.w	r3, [r4, #64]	@ 0x40
 800598e:	f884 3041 	strb.w	r3, [r4, #65]	@ 0x41
 8005992:	f884 3042 	strb.w	r3, [r4, #66]	@ 0x42
 8005996:	f884 3043 	strb.w	r3, [r4, #67]	@ 0x43
  TIM_CHANNEL_N_STATE_SET_ALL(htim, HAL_TIM_CHANNEL_STATE_READY);
 800599a:	f884 3044 	strb.w	r3, [r4, #68]	@ 0x44
 800599e:	f884 3045 	strb.w	r3, [r4, #69]	@ 0x45
 80059a2:	f884 3046 	strb.w	r3, [r4, #70]	@ 0x46
 80059a6:	f884 3047 	strb.w	r3, [r4, #71]	@ 0x47
  htim->State = HAL_TIM_STATE_READY;
 80059aa:	f884 303d 	strb.w	r3, [r4, #61]	@ 0x3d
  return HAL_OK;
 80059ae:	2000      	movs	r0, #0
}
 80059b0:	bd38      	pop	{r3, r4, r5, pc}
    tmpcr1 |= Structure->CounterMode;
 80059b2:	68a0      	ldr	r0, [r4, #8]
    tmpcr1 |= (uint32_t)Structure->ClockDivision;
 80059b4:	6921      	ldr	r1, [r4, #16]
    tmpcr1 &= ~(TIM_CR1_DIR | TIM_CR1_CMS);
 80059b6:	f022 0270 	bic.w	r2, r2, #112	@ 0x70
    tmpcr1 |= Structure->CounterMode;
 80059ba:	4302      	orrs	r2, r0
    tmpcr1 &= ~TIM_CR1_CKD;
 80059bc:	f422 7240 	bic.w	r2, r2, #768	@ 0x300
    tmpcr1 |= (uint32_t)Structure->ClockDivision;
 80059c0:	430a      	orrs	r2, r1
  MODIFY_REG(tmpcr1, TIM_CR1_ARPE, Structure->AutoReloadPreload);
 80059c2:	69a1      	ldr	r1, [r4, #24]
 80059c4:	f022 0280 	bic.w	r2, r2, #128	@ 0x80
 80059c8:	430a      	orrs	r2, r1
  TIMx->CR1 = tmpcr1;
 80059ca:	601a      	str	r2, [r3, #0]
  TIMx->ARR = (uint32_t)Structure->Period ;
 80059cc:	68e2      	ldr	r2, [r4, #12]
 80059ce:	62da      	str	r2, [r3, #44]	@ 0x2c
  TIMx->PSC = Structure->Prescaler;
 80059d0:	6862      	ldr	r2, [r4, #4]
 80059d2:	629a      	str	r2, [r3, #40]	@ 0x28
    TIMx->RCR = Structure->RepetitionCounter;
 80059d4:	6962      	ldr	r2, [r4, #20]
 80059d6:	631a      	str	r2, [r3, #48]	@ 0x30
 80059d8:	e7c7      	b.n	800596a <HAL_TIM_Base_Init+0xa2>
    htim->Lock = HAL_UNLOCKED;
 80059da:	f880 203c 	strb.w	r2, [r0, #60]	@ 0x3c
    HAL_TIM_Base_MspInit(htim);
 80059de:	f7fd fd9b 	bl	8003518 <HAL_TIM_Base_MspInit>
 80059e2:	e77c      	b.n	80058de <HAL_TIM_Base_Init+0x16>
    tmpcr1 |= (uint32_t)Structure->ClockDivision;
 80059e4:	6920      	ldr	r0, [r4, #16]
  MODIFY_REG(tmpcr1, TIM_CR1_ARPE, Structure->AutoReloadPreload);
 80059e6:	69a1      	ldr	r1, [r4, #24]
    tmpcr1 &= ~TIM_CR1_CKD;
 80059e8:	f422 7240 	bic.w	r2, r2, #768	@ 0x300
    tmpcr1 |= (uint32_t)Structure->ClockDivision;
 80059ec:	4302      	orrs	r2, r0
  MODIFY_REG(tmpcr1, TIM_CR1_ARPE, Structure->AutoReloadPreload);
 80059ee:	f022 0280 	bic.w	r2, r2, #128	@ 0x80
  TIMx->ARR = (uint32_t)Structure->Period ;
 80059f2:	68e0      	ldr	r0, [r4, #12]
  MODIFY_REG(tmpcr1, TIM_CR1_ARPE, Structure->AutoReloadPreload);
 80059f4:	430a      	orrs	r2, r1
  TIMx->PSC = Structure->Prescaler;
 80059f6:	6861      	ldr	r1, [r4, #4]
  TIMx->CR1 = tmpcr1;
 80059f8:	601a      	str	r2, [r3, #0]
  TIMx->ARR = (uint32_t)Structure->Period ;
 80059fa:	62d8      	str	r0, [r3, #44]	@ 0x2c
  TIMx->PSC = Structure->Prescaler;
 80059fc:	6299      	str	r1, [r3, #40]	@ 0x28
  if (IS_TIM_REPETITION_COUNTER_INSTANCE(TIMx))
 80059fe:	e7e9      	b.n	80059d4 <HAL_TIM_Base_Init+0x10c>
    return HAL_ERROR;
 8005a00:	2001      	movs	r0, #1
}
 8005a02:	4770      	bx	lr
 8005a04:	40012c00 	.word	0x40012c00

08005a08 <HAL_TIM_Base_Start>:
  if (htim->State != HAL_TIM_STATE_READY)
 8005a08:	f890 303d 	ldrb.w	r3, [r0, #61]	@ 0x3d
 8005a0c:	2b01      	cmp	r3, #1
 8005a0e:	d12f      	bne.n	8005a70 <HAL_TIM_Base_Start+0x68>
  if (IS_TIM_SLAVE_INSTANCE(htim->Instance))
 8005a10:	6803      	ldr	r3, [r0, #0]
 8005a12:	4a18      	ldr	r2, [pc, #96]	@ (8005a74 <HAL_TIM_Base_Start+0x6c>)
  htim->State = HAL_TIM_STATE_BUSY;
 8005a14:	2102      	movs	r1, #2
  if (IS_TIM_SLAVE_INSTANCE(htim->Instance))
 8005a16:	4293      	cmp	r3, r2
  htim->State = HAL_TIM_STATE_BUSY;
 8005a18:	f880 103d 	strb.w	r1, [r0, #61]	@ 0x3d
  if (IS_TIM_SLAVE_INSTANCE(htim->Instance))
 8005a1c:	d01a      	beq.n	8005a54 <HAL_TIM_Base_Start+0x4c>
 8005a1e:	f1b3 4f80 	cmp.w	r3, #1073741824	@ 0x40000000
 8005a22:	d017      	beq.n	8005a54 <HAL_TIM_Base_Start+0x4c>
 8005a24:	f5a2 3294 	sub.w	r2, r2, #75776	@ 0x12800
 8005a28:	4293      	cmp	r3, r2
 8005a2a:	d013      	beq.n	8005a54 <HAL_TIM_Base_Start+0x4c>
 8005a2c:	f502 6280 	add.w	r2, r2, #1024	@ 0x400
 8005a30:	4293      	cmp	r3, r2
 8005a32:	d00f      	beq.n	8005a54 <HAL_TIM_Base_Start+0x4c>
 8005a34:	f502 6280 	add.w	r2, r2, #1024	@ 0x400
 8005a38:	4293      	cmp	r3, r2
 8005a3a:	d00b      	beq.n	8005a54 <HAL_TIM_Base_Start+0x4c>
 8005a3c:	f502 3294 	add.w	r2, r2, #75776	@ 0x12800
 8005a40:	4293      	cmp	r3, r2
 8005a42:	d007      	beq.n	8005a54 <HAL_TIM_Base_Start+0x4c>
 8005a44:	f502 6240 	add.w	r2, r2, #3072	@ 0xc00
 8005a48:	4293      	cmp	r3, r2
 8005a4a:	d003      	beq.n	8005a54 <HAL_TIM_Base_Start+0x4c>
 8005a4c:	f502 5280 	add.w	r2, r2, #4096	@ 0x1000
 8005a50:	4293      	cmp	r3, r2
 8005a52:	d107      	bne.n	8005a64 <HAL_TIM_Base_Start+0x5c>
    tmpsmcr = htim->Instance->SMCR & TIM_SMCR_SMS;
 8005a54:	6899      	ldr	r1, [r3, #8]
 8005a56:	4a08      	ldr	r2, [pc, #32]	@ (8005a78 <HAL_TIM_Base_Start+0x70>)
 8005a58:	400a      	ands	r2, r1
    if (!IS_TIM_SLAVEMODE_TRIGGER_ENABLED(tmpsmcr))
 8005a5a:	2a06      	cmp	r2, #6
 8005a5c:	d006      	beq.n	8005a6c <HAL_TIM_Base_Start+0x64>
 8005a5e:	f5b2 3f80 	cmp.w	r2, #65536	@ 0x10000
 8005a62:	d003      	beq.n	8005a6c <HAL_TIM_Base_Start+0x64>
      __HAL_TIM_ENABLE(htim);
 8005a64:	681a      	ldr	r2, [r3, #0]
 8005a66:	f042 0201 	orr.w	r2, r2, #1
 8005a6a:	601a      	str	r2, [r3, #0]
  return HAL_OK;
 8005a6c:	2000      	movs	r0, #0
 8005a6e:	4770      	bx	lr
    return HAL_ERROR;
 8005a70:	2001      	movs	r0, #1
}
 8005a72:	4770      	bx	lr
 8005a74:	40012c00 	.word	0x40012c00
 8005a78:	00010007 	.word	0x00010007

08005a7c <HAL_TIM_ConfigClockSource>:
  __HAL_LOCK(htim);
 8005a7c:	f890 303c 	ldrb.w	r3, [r0, #60]	@ 0x3c
 8005a80:	2b01      	cmp	r3, #1
 8005a82:	f000 8091 	beq.w	8005ba8 <HAL_TIM_ConfigClockSource+0x12c>
 8005a86:	4602      	mov	r2, r0
{
 8005a88:	b430      	push	{r4, r5}
  htim->State = HAL_TIM_STATE_BUSY;
 8005a8a:	2302      	movs	r3, #2
  tmpsmcr = htim->Instance->SMCR;
 8005a8c:	6804      	ldr	r4, [r0, #0]
  htim->State = HAL_TIM_STATE_BUSY;
 8005a8e:	f882 303d 	strb.w	r3, [r2, #61]	@ 0x3d
  __HAL_LOCK(htim);
 8005a92:	2001      	movs	r0, #1
 8005a94:	f882 003c 	strb.w	r0, [r2, #60]	@ 0x3c
  tmpsmcr = htim->Instance->SMCR;
 8005a98:	68a5      	ldr	r5, [r4, #8]
  tmpsmcr &= ~(TIM_SMCR_ETF | TIM_SMCR_ETPS | TIM_SMCR_ECE | TIM_SMCR_ETP);
 8005a9a:	4b61      	ldr	r3, [pc, #388]	@ (8005c20 <HAL_TIM_ConfigClockSource+0x1a4>)
 8005a9c:	402b      	ands	r3, r5
  htim->Instance->SMCR = tmpsmcr;
 8005a9e:	60a3      	str	r3, [r4, #8]
  switch (sClockSourceConfig->ClockSource)
 8005aa0:	680b      	ldr	r3, [r1, #0]
 8005aa2:	2b70      	cmp	r3, #112	@ 0x70
 8005aa4:	f000 80ac 	beq.w	8005c00 <HAL_TIM_ConfigClockSource+0x184>
 8005aa8:	d827      	bhi.n	8005afa <HAL_TIM_ConfigClockSource+0x7e>
 8005aaa:	2b50      	cmp	r3, #80	@ 0x50
 8005aac:	d07e      	beq.n	8005bac <HAL_TIM_ConfigClockSource+0x130>
 8005aae:	d93e      	bls.n	8005b2e <HAL_TIM_ConfigClockSource+0xb2>
 8005ab0:	2b60      	cmp	r3, #96	@ 0x60
 8005ab2:	d11a      	bne.n	8005aea <HAL_TIM_ConfigClockSource+0x6e>
{
  uint32_t tmpccmr1;
  uint32_t tmpccer;

  /* Disable the Channel 2: Reset the CC2E Bit */
  tmpccer = TIMx->CCER;
 8005ab4:	6a23      	ldr	r3, [r4, #32]
                               sClockSourceConfig->ClockFilter);
 8005ab6:	68c8      	ldr	r0, [r1, #12]
                               sClockSourceConfig->ClockPolarity,
 8005ab8:	684d      	ldr	r5, [r1, #4]
  TIMx->CCER &= ~TIM_CCER_CC2E;
 8005aba:	6a21      	ldr	r1, [r4, #32]
 8005abc:	f021 0110 	bic.w	r1, r1, #16
 8005ac0:	6221      	str	r1, [r4, #32]
  tmpccmr1 = TIMx->CCMR1;
 8005ac2:	69a1      	ldr	r1, [r4, #24]
  /* Set the filter */
  tmpccmr1 &= ~TIM_CCMR1_IC2F;
  tmpccmr1 |= (TIM_ICFilter << 12U);

  /* Select the Polarity and set the CC2E Bit */
  tmpccer &= ~(TIM_CCER_CC2P | TIM_CCER_CC2NP);
 8005ac4:	f023 03a0 	bic.w	r3, r3, #160	@ 0xa0
  tmpccmr1 &= ~TIM_CCMR1_IC2F;
 8005ac8:	f421 4170 	bic.w	r1, r1, #61440	@ 0xf000
  tmpccer |= (TIM_ICPolarity << 4U);
 8005acc:	ea43 1305 	orr.w	r3, r3, r5, lsl #4
  tmpccmr1 |= (TIM_ICFilter << 12U);
 8005ad0:	ea41 3100 	orr.w	r1, r1, r0, lsl #12

  /* Write to TIMx CCMR1 and CCER registers */
  TIMx->CCMR1 = tmpccmr1 ;
 8005ad4:	61a1      	str	r1, [r4, #24]
  TIMx->CCER = tmpccer;
 8005ad6:	6223      	str	r3, [r4, #32]
static void TIM_ITRx_SetConfig(TIM_TypeDef *TIMx, uint32_t InputTriggerSource)
{
  uint32_t tmpsmcr;

  /* Get the TIMx SMCR register value */
  tmpsmcr = TIMx->SMCR;
 8005ad8:	68a3      	ldr	r3, [r4, #8]
  /* Reset the TS Bits */
  tmpsmcr &= ~TIM_SMCR_TS;
 8005ada:	f423 1340 	bic.w	r3, r3, #3145728	@ 0x300000
 8005ade:	f023 0370 	bic.w	r3, r3, #112	@ 0x70
  /* Set the Input Trigger source and the slave mode*/
  tmpsmcr |= (InputTriggerSource | TIM_SLAVEMODE_EXTERNAL1);
 8005ae2:	f043 0367 	orr.w	r3, r3, #103	@ 0x67
  /* Write to TIMx SMCR */
  TIMx->SMCR = tmpsmcr;
 8005ae6:	60a3      	str	r3, [r4, #8]
  HAL_StatusTypeDef status = HAL_OK;
 8005ae8:	2000      	movs	r0, #0
  htim->State = HAL_TIM_STATE_READY;
 8005aea:	2101      	movs	r1, #1
  __HAL_UNLOCK(htim);
 8005aec:	2300      	movs	r3, #0
  htim->State = HAL_TIM_STATE_READY;
 8005aee:	f882 103d 	strb.w	r1, [r2, #61]	@ 0x3d
  __HAL_UNLOCK(htim);
 8005af2:	f882 303c 	strb.w	r3, [r2, #60]	@ 0x3c
}
 8005af6:	bc30      	pop	{r4, r5}
 8005af8:	4770      	bx	lr
  switch (sClockSourceConfig->ClockSource)
 8005afa:	f5b3 5f00 	cmp.w	r3, #8192	@ 0x2000
 8005afe:	d06f      	beq.n	8005be0 <HAL_TIM_ConfigClockSource+0x164>
 8005b00:	d941      	bls.n	8005b86 <HAL_TIM_ConfigClockSource+0x10a>
 8005b02:	4948      	ldr	r1, [pc, #288]	@ (8005c24 <HAL_TIM_ConfigClockSource+0x1a8>)
 8005b04:	428b      	cmp	r3, r1
 8005b06:	d008      	beq.n	8005b1a <HAL_TIM_ConfigClockSource+0x9e>
 8005b08:	d92d      	bls.n	8005b66 <HAL_TIM_ConfigClockSource+0xea>
 8005b0a:	4947      	ldr	r1, [pc, #284]	@ (8005c28 <HAL_TIM_ConfigClockSource+0x1ac>)
 8005b0c:	428b      	cmp	r3, r1
 8005b0e:	d004      	beq.n	8005b1a <HAL_TIM_ConfigClockSource+0x9e>
 8005b10:	f023 0c20 	bic.w	ip, r3, #32
 8005b14:	3910      	subs	r1, #16
 8005b16:	458c      	cmp	ip, r1
 8005b18:	d1e7      	bne.n	8005aea <HAL_TIM_ConfigClockSource+0x6e>
  tmpsmcr = TIMx->SMCR;
 8005b1a:	68a1      	ldr	r1, [r4, #8]
  tmpsmcr &= ~TIM_SMCR_TS;
 8005b1c:	f421 1140 	bic.w	r1, r1, #3145728	@ 0x300000
 8005b20:	f021 0170 	bic.w	r1, r1, #112	@ 0x70
  tmpsmcr |= (InputTriggerSource | TIM_SLAVEMODE_EXTERNAL1);
 8005b24:	4319      	orrs	r1, r3
 8005b26:	f041 0107 	orr.w	r1, r1, #7
  TIMx->SMCR = tmpsmcr;
 8005b2a:	60a1      	str	r1, [r4, #8]
}
 8005b2c:	e02e      	b.n	8005b8c <HAL_TIM_ConfigClockSource+0x110>
  switch (sClockSourceConfig->ClockSource)
 8005b2e:	2b40      	cmp	r3, #64	@ 0x40
 8005b30:	d12e      	bne.n	8005b90 <HAL_TIM_ConfigClockSource+0x114>
                               sClockSourceConfig->ClockPolarity,
 8005b32:	684b      	ldr	r3, [r1, #4]
                               sClockSourceConfig->ClockFilter);
 8005b34:	68c8      	ldr	r0, [r1, #12]
  tmpccer = TIMx->CCER;
 8005b36:	6a21      	ldr	r1, [r4, #32]
  tmpccer &= ~(TIM_CCER_CC1P | TIM_CCER_CC1NP);
 8005b38:	f021 010a 	bic.w	r1, r1, #10
  tmpccer |= TIM_ICPolarity;
 8005b3c:	4319      	orrs	r1, r3
  TIMx->CCER &= ~TIM_CCER_CC1E;
 8005b3e:	6a23      	ldr	r3, [r4, #32]
 8005b40:	f023 0301 	bic.w	r3, r3, #1
 8005b44:	6223      	str	r3, [r4, #32]
  tmpccmr1 = TIMx->CCMR1;
 8005b46:	69a3      	ldr	r3, [r4, #24]
  tmpccmr1 &= ~TIM_CCMR1_IC1F;
 8005b48:	f023 03f0 	bic.w	r3, r3, #240	@ 0xf0
  tmpccmr1 |= (TIM_ICFilter << 4U);
 8005b4c:	ea43 1300 	orr.w	r3, r3, r0, lsl #4
  TIMx->CCMR1 = tmpccmr1;
 8005b50:	61a3      	str	r3, [r4, #24]
  TIMx->CCER = tmpccer;
 8005b52:	6221      	str	r1, [r4, #32]
  tmpsmcr = TIMx->SMCR;
 8005b54:	68a3      	ldr	r3, [r4, #8]
  tmpsmcr &= ~TIM_SMCR_TS;
 8005b56:	f423 1340 	bic.w	r3, r3, #3145728	@ 0x300000
 8005b5a:	f023 0370 	bic.w	r3, r3, #112	@ 0x70
  tmpsmcr |= (InputTriggerSource | TIM_SLAVEMODE_EXTERNAL1);
 8005b5e:	f043 0347 	orr.w	r3, r3, #71	@ 0x47
  TIMx->SMCR = tmpsmcr;
 8005b62:	60a3      	str	r3, [r4, #8]
}
 8005b64:	e012      	b.n	8005b8c <HAL_TIM_ConfigClockSource+0x110>
  switch (sClockSourceConfig->ClockSource)
 8005b66:	3920      	subs	r1, #32
 8005b68:	428b      	cmp	r3, r1
 8005b6a:	d0d6      	beq.n	8005b1a <HAL_TIM_ConfigClockSource+0x9e>
 8005b6c:	d904      	bls.n	8005b78 <HAL_TIM_ConfigClockSource+0xfc>
 8005b6e:	492f      	ldr	r1, [pc, #188]	@ (8005c2c <HAL_TIM_ConfigClockSource+0x1b0>)
 8005b70:	428b      	cmp	r3, r1
 8005b72:	d0d2      	beq.n	8005b1a <HAL_TIM_ConfigClockSource+0x9e>
      status = HAL_ERROR;
 8005b74:	2001      	movs	r0, #1
 8005b76:	e7b8      	b.n	8005aea <HAL_TIM_ConfigClockSource+0x6e>
  switch (sClockSourceConfig->ClockSource)
 8005b78:	f023 0110 	bic.w	r1, r3, #16
 8005b7c:	f5b1 1f80 	cmp.w	r1, #1048576	@ 0x100000
 8005b80:	d0cb      	beq.n	8005b1a <HAL_TIM_ConfigClockSource+0x9e>
      status = HAL_ERROR;
 8005b82:	2001      	movs	r0, #1
 8005b84:	e7b1      	b.n	8005aea <HAL_TIM_ConfigClockSource+0x6e>
  switch (sClockSourceConfig->ClockSource)
 8005b86:	f5b3 5f80 	cmp.w	r3, #4096	@ 0x1000
 8005b8a:	d1ae      	bne.n	8005aea <HAL_TIM_ConfigClockSource+0x6e>
  HAL_StatusTypeDef status = HAL_OK;
 8005b8c:	2000      	movs	r0, #0
 8005b8e:	e7ac      	b.n	8005aea <HAL_TIM_ConfigClockSource+0x6e>
  switch (sClockSourceConfig->ClockSource)
 8005b90:	d8ab      	bhi.n	8005aea <HAL_TIM_ConfigClockSource+0x6e>
 8005b92:	2b20      	cmp	r3, #32
 8005b94:	d0c1      	beq.n	8005b1a <HAL_TIM_ConfigClockSource+0x9e>
 8005b96:	d903      	bls.n	8005ba0 <HAL_TIM_ConfigClockSource+0x124>
 8005b98:	2b30      	cmp	r3, #48	@ 0x30
 8005b9a:	d0be      	beq.n	8005b1a <HAL_TIM_ConfigClockSource+0x9e>
      status = HAL_ERROR;
 8005b9c:	2001      	movs	r0, #1
 8005b9e:	e7a4      	b.n	8005aea <HAL_TIM_ConfigClockSource+0x6e>
  switch (sClockSourceConfig->ClockSource)
 8005ba0:	f033 0110 	bics.w	r1, r3, #16
 8005ba4:	d1a1      	bne.n	8005aea <HAL_TIM_ConfigClockSource+0x6e>
 8005ba6:	e7b8      	b.n	8005b1a <HAL_TIM_ConfigClockSource+0x9e>
  __HAL_LOCK(htim);
 8005ba8:	2002      	movs	r0, #2
}
 8005baa:	4770      	bx	lr
                               sClockSourceConfig->ClockPolarity,
 8005bac:	684b      	ldr	r3, [r1, #4]
                               sClockSourceConfig->ClockFilter);
 8005bae:	68c8      	ldr	r0, [r1, #12]
  tmpccer = TIMx->CCER;
 8005bb0:	6a21      	ldr	r1, [r4, #32]
  tmpccer &= ~(TIM_CCER_CC1P | TIM_CCER_CC1NP);
 8005bb2:	f021 010a 	bic.w	r1, r1, #10
  tmpccer |= TIM_ICPolarity;
 8005bb6:	4319      	orrs	r1, r3
  TIMx->CCER &= ~TIM_CCER_CC1E;
 8005bb8:	6a23      	ldr	r3, [r4, #32]
 8005bba:	f023 0301 	bic.w	r3, r3, #1
 8005bbe:	6223      	str	r3, [r4, #32]
  tmpccmr1 = TIMx->CCMR1;
 8005bc0:	69a3      	ldr	r3, [r4, #24]
  tmpccmr1 &= ~TIM_CCMR1_IC1F;
 8005bc2:	f023 03f0 	bic.w	r3, r3, #240	@ 0xf0
  tmpccmr1 |= (TIM_ICFilter << 4U);
 8005bc6:	ea43 1300 	orr.w	r3, r3, r0, lsl #4
  TIMx->CCMR1 = tmpccmr1;
 8005bca:	61a3      	str	r3, [r4, #24]
  TIMx->CCER = tmpccer;
 8005bcc:	6221      	str	r1, [r4, #32]
  tmpsmcr = TIMx->SMCR;
 8005bce:	68a3      	ldr	r3, [r4, #8]
  tmpsmcr &= ~TIM_SMCR_TS;
 8005bd0:	f423 1340 	bic.w	r3, r3, #3145728	@ 0x300000
 8005bd4:	f023 0370 	bic.w	r3, r3, #112	@ 0x70
  tmpsmcr |= (InputTriggerSource | TIM_SLAVEMODE_EXTERNAL1);
 8005bd8:	f043 0357 	orr.w	r3, r3, #87	@ 0x57
  TIMx->SMCR = tmpsmcr;
 8005bdc:	60a3      	str	r3, [r4, #8]
}
 8005bde:	e7d5      	b.n	8005b8c <HAL_TIM_ConfigClockSource+0x110>

  /* Reset the ETR Bits */
  tmpsmcr &= ~(TIM_SMCR_ETF | TIM_SMCR_ETPS | TIM_SMCR_ECE | TIM_SMCR_ETP);

  /* Set the Prescaler, the Filter value and the Polarity */
  tmpsmcr |= (uint32_t)(TIM_ExtTRGPrescaler | (TIM_ExtTRGPolarity | (ExtTRGFilter << 8U)));
 8005be0:	e9d1 5301 	ldrd	r5, r3, [r1, #4]
  tmpsmcr = TIMx->SMCR;
 8005be4:	68a0      	ldr	r0, [r4, #8]
  tmpsmcr |= (uint32_t)(TIM_ExtTRGPrescaler | (TIM_ExtTRGPolarity | (ExtTRGFilter << 8U)));
 8005be6:	432b      	orrs	r3, r5
 8005be8:	68cd      	ldr	r5, [r1, #12]
  tmpsmcr &= ~(TIM_SMCR_ETF | TIM_SMCR_ETPS | TIM_SMCR_ECE | TIM_SMCR_ETP);
 8005bea:	f420 417f 	bic.w	r1, r0, #65280	@ 0xff00
  tmpsmcr |= (uint32_t)(TIM_ExtTRGPrescaler | (TIM_ExtTRGPolarity | (ExtTRGFilter << 8U)));
 8005bee:	ea43 2305 	orr.w	r3, r3, r5, lsl #8
 8005bf2:	430b      	orrs	r3, r1

  /* Write to TIMx SMCR */
  TIMx->SMCR = tmpsmcr;
 8005bf4:	60a3      	str	r3, [r4, #8]
      htim->Instance->SMCR |= TIM_SMCR_ECE;
 8005bf6:	68a3      	ldr	r3, [r4, #8]
 8005bf8:	f443 4380 	orr.w	r3, r3, #16384	@ 0x4000
 8005bfc:	60a3      	str	r3, [r4, #8]
      break;
 8005bfe:	e7c5      	b.n	8005b8c <HAL_TIM_ConfigClockSource+0x110>
  tmpsmcr |= (uint32_t)(TIM_ExtTRGPrescaler | (TIM_ExtTRGPolarity | (ExtTRGFilter << 8U)));
 8005c00:	e9d1 5301 	ldrd	r5, r3, [r1, #4]
  tmpsmcr = TIMx->SMCR;
 8005c04:	68a0      	ldr	r0, [r4, #8]
  tmpsmcr |= (uint32_t)(TIM_ExtTRGPrescaler | (TIM_ExtTRGPolarity | (ExtTRGFilter << 8U)));
 8005c06:	432b      	orrs	r3, r5
 8005c08:	68cd      	ldr	r5, [r1, #12]
  tmpsmcr &= ~(TIM_SMCR_ETF | TIM_SMCR_ETPS | TIM_SMCR_ECE | TIM_SMCR_ETP);
 8005c0a:	f420 417f 	bic.w	r1, r0, #65280	@ 0xff00
  tmpsmcr |= (uint32_t)(TIM_ExtTRGPrescaler | (TIM_ExtTRGPolarity | (ExtTRGFilter << 8U)));
 8005c0e:	ea43 2305 	orr.w	r3, r3, r5, lsl #8
 8005c12:	430b      	orrs	r3, r1
  TIMx->SMCR = tmpsmcr;
 8005c14:	60a3      	str	r3, [r4, #8]
      tmpsmcr = htim->Instance->SMCR;
 8005c16:	68a3      	ldr	r3, [r4, #8]
      tmpsmcr |= (TIM_SLAVEMODE_EXTERNAL1 | TIM_CLOCKSOURCE_ETRMODE1);
 8005c18:	f043 0377 	orr.w	r3, r3, #119	@ 0x77
      htim->Instance->SMCR = tmpsmcr;
 8005c1c:	60a3      	str	r3, [r4, #8]
      break;
 8005c1e:	e7b5      	b.n	8005b8c <HAL_TIM_ConfigClockSource+0x110>
 8005c20:	ffce0088 	.word	0xffce0088
 8005c24:	00100040 	.word	0x00100040
 8005c28:	00100060 	.word	0x00100060
 8005c2c:	00100030 	.word	0x00100030

08005c30 <HAL_TIMEx_MasterConfigSynchronization>:
  assert_param(IS_TIM_MASTER_INSTANCE(htim->Instance));
  assert_param(IS_TIM_TRGO_SOURCE(sMasterConfig->MasterOutputTrigger));
  assert_param(IS_TIM_MSM_STATE(sMasterConfig->MasterSlaveMode));

  /* Check input state */
  __HAL_LOCK(htim);
 8005c30:	f890 303c 	ldrb.w	r3, [r0, #60]	@ 0x3c
 8005c34:	2b01      	cmp	r3, #1
 8005c36:	d04e      	beq.n	8005cd6 <HAL_TIMEx_MasterConfigSynchronization+0xa6>
{
 8005c38:	b430      	push	{r4, r5}

  /* Change the handler state */
  htim->State = HAL_TIM_STATE_BUSY;

  /* Get the TIMx CR2 register value */
  tmpcr2 = htim->Instance->CR2;
 8005c3a:	6802      	ldr	r2, [r0, #0]

  /* Get the TIMx SMCR register value */
  tmpsmcr = htim->Instance->SMCR;

  /* If the timer supports ADC synchronization through TRGO2, set the master mode selection 2 */
  if (IS_TIM_TRGO2_INSTANCE(htim->Instance))
 8005c3c:	4d27      	ldr	r5, [pc, #156]	@ (8005cdc <HAL_TIMEx_MasterConfigSynchronization+0xac>)
  htim->State = HAL_TIM_STATE_BUSY;
 8005c3e:	2302      	movs	r3, #2
 8005c40:	f880 303d 	strb.w	r3, [r0, #61]	@ 0x3d
  if (IS_TIM_TRGO2_INSTANCE(htim->Instance))
 8005c44:	42aa      	cmp	r2, r5
  tmpcr2 = htim->Instance->CR2;
 8005c46:	6853      	ldr	r3, [r2, #4]
  }

  /* Reset the MMS Bits */
  tmpcr2 &= ~TIM_CR2_MMS;
  /* Select the TRGO source */
  tmpcr2 |=  sMasterConfig->MasterOutputTrigger;
 8005c48:	680c      	ldr	r4, [r1, #0]
 8005c4a:	4684      	mov	ip, r0
  tmpsmcr = htim->Instance->SMCR;
 8005c4c:	6890      	ldr	r0, [r2, #8]
  if (IS_TIM_TRGO2_INSTANCE(htim->Instance))
 8005c4e:	d02c      	beq.n	8005caa <HAL_TIMEx_MasterConfigSynchronization+0x7a>
 8005c50:	f505 6500 	add.w	r5, r5, #2048	@ 0x800
 8005c54:	42aa      	cmp	r2, r5
 8005c56:	d033      	beq.n	8005cc0 <HAL_TIMEx_MasterConfigSynchronization+0x90>
 8005c58:	f505 55e0 	add.w	r5, r5, #7168	@ 0x1c00
 8005c5c:	42aa      	cmp	r2, r5
 8005c5e:	d024      	beq.n	8005caa <HAL_TIMEx_MasterConfigSynchronization+0x7a>
  tmpcr2 &= ~TIM_CR2_MMS;
 8005c60:	f023 7300 	bic.w	r3, r3, #33554432	@ 0x2000000
 8005c64:	f023 0370 	bic.w	r3, r3, #112	@ 0x70
  tmpcr2 |=  sMasterConfig->MasterOutputTrigger;
 8005c68:	4323      	orrs	r3, r4

  /* Update TIMx CR2 */
  htim->Instance->CR2 = tmpcr2;

  if (IS_TIM_SLAVE_INSTANCE(htim->Instance))
 8005c6a:	f1b2 4f80 	cmp.w	r2, #1073741824	@ 0x40000000
  htim->Instance->CR2 = tmpcr2;
 8005c6e:	6053      	str	r3, [r2, #4]
  if (IS_TIM_SLAVE_INSTANCE(htim->Instance))
 8005c70:	d00e      	beq.n	8005c90 <HAL_TIMEx_MasterConfigSynchronization+0x60>
 8005c72:	4b1b      	ldr	r3, [pc, #108]	@ (8005ce0 <HAL_TIMEx_MasterConfigSynchronization+0xb0>)
 8005c74:	429a      	cmp	r2, r3
 8005c76:	d00b      	beq.n	8005c90 <HAL_TIMEx_MasterConfigSynchronization+0x60>
 8005c78:	f503 6380 	add.w	r3, r3, #1024	@ 0x400
 8005c7c:	429a      	cmp	r2, r3
 8005c7e:	d007      	beq.n	8005c90 <HAL_TIMEx_MasterConfigSynchronization+0x60>
 8005c80:	f503 6380 	add.w	r3, r3, #1024	@ 0x400
 8005c84:	429a      	cmp	r2, r3
 8005c86:	d003      	beq.n	8005c90 <HAL_TIMEx_MasterConfigSynchronization+0x60>
 8005c88:	f503 339a 	add.w	r3, r3, #78848	@ 0x13400
 8005c8c:	429a      	cmp	r2, r3
 8005c8e:	d104      	bne.n	8005c9a <HAL_TIMEx_MasterConfigSynchronization+0x6a>
  {
    /* Reset the MSM Bit */
    tmpsmcr &= ~TIM_SMCR_MSM;
    /* Set master mode */
    tmpsmcr |= sMasterConfig->MasterSlaveMode;
 8005c90:	688b      	ldr	r3, [r1, #8]
    tmpsmcr &= ~TIM_SMCR_MSM;
 8005c92:	f020 0080 	bic.w	r0, r0, #128	@ 0x80
    tmpsmcr |= sMasterConfig->MasterSlaveMode;
 8005c96:	4318      	orrs	r0, r3

    /* Update TIMx SMCR */
    htim->Instance->SMCR = tmpsmcr;
 8005c98:	6090      	str	r0, [r2, #8]
  }

  /* Change the htim state */
  htim->State = HAL_TIM_STATE_READY;

  __HAL_UNLOCK(htim);
 8005c9a:	2000      	movs	r0, #0
  htim->State = HAL_TIM_STATE_READY;
 8005c9c:	2301      	movs	r3, #1
 8005c9e:	f88c 303d 	strb.w	r3, [ip, #61]	@ 0x3d
  __HAL_UNLOCK(htim);
 8005ca2:	f88c 003c 	strb.w	r0, [ip, #60]	@ 0x3c

  return HAL_OK;
}
 8005ca6:	bc30      	pop	{r4, r5}
 8005ca8:	4770      	bx	lr
    tmpcr2 |= sMasterConfig->MasterOutputTrigger2;
 8005caa:	684d      	ldr	r5, [r1, #4]
    tmpcr2 &= ~TIM_CR2_MMS2;
 8005cac:	f423 0370 	bic.w	r3, r3, #15728640	@ 0xf00000
    tmpcr2 |= sMasterConfig->MasterOutputTrigger2;
 8005cb0:	432b      	orrs	r3, r5
  tmpcr2 &= ~TIM_CR2_MMS;
 8005cb2:	f023 7300 	bic.w	r3, r3, #33554432	@ 0x2000000
 8005cb6:	f023 0370 	bic.w	r3, r3, #112	@ 0x70
  tmpcr2 |=  sMasterConfig->MasterOutputTrigger;
 8005cba:	4323      	orrs	r3, r4
  htim->Instance->CR2 = tmpcr2;
 8005cbc:	6053      	str	r3, [r2, #4]
  if (IS_TIM_SLAVE_INSTANCE(htim->Instance))
 8005cbe:	e7e7      	b.n	8005c90 <HAL_TIMEx_MasterConfigSynchronization+0x60>
    tmpcr2 |= sMasterConfig->MasterOutputTrigger2;
 8005cc0:	684d      	ldr	r5, [r1, #4]
    tmpcr2 &= ~TIM_CR2_MMS2;
 8005cc2:	f423 0370 	bic.w	r3, r3, #15728640	@ 0xf00000
    tmpcr2 |= sMasterConfig->MasterOutputTrigger2;
 8005cc6:	432b      	orrs	r3, r5
  tmpcr2 &= ~TIM_CR2_MMS;
 8005cc8:	f023 7300 	bic.w	r3, r3, #33554432	@ 0x2000000
 8005ccc:	f023 0370 	bic.w	r3, r3, #112	@ 0x70
  tmpcr2 |=  sMasterConfig->MasterOutputTrigger;
 8005cd0:	431c      	orrs	r4, r3
  htim->Instance->CR2 = tmpcr2;
 8005cd2:	6054      	str	r4, [r2, #4]
  if (IS_TIM_SLAVE_INSTANCE(htim->Instance))
 8005cd4:	e7dc      	b.n	8005c90 <HAL_TIMEx_MasterConfigSynchronization+0x60>
  __HAL_LOCK(htim);
 8005cd6:	2002      	movs	r0, #2
}
 8005cd8:	4770      	bx	lr
 8005cda:	bf00      	nop
 8005cdc:	40012c00 	.word	0x40012c00
 8005ce0:	40000400 	.word	0x40000400

08005ce4 <FMC_NORSRAM_Init>:
  assert_param(IS_FMC_PAGESIZE(Init->PageSize));
  assert_param(IS_FMC_NBL_SETUPTIME(Init->NBLSetupTime));
  assert_param(IS_FUNCTIONAL_STATE(Init->MaxChipSelectPulse));

  /* Disable NORSRAM Device */
  __FMC_NORSRAM_DISABLE(Device, Init->NSBank);
 8005ce4:	680a      	ldr	r2, [r1, #0]
 8005ce6:	f850 3022 	ldr.w	r3, [r0, r2, lsl #2]
 8005cea:	f023 0301 	bic.w	r3, r3, #1
{
 8005cee:	b4f0      	push	{r4, r5, r6, r7}

  /* Set NORSRAM device control parameters */
  if (Init->MemoryType == FMC_MEMORY_TYPE_NOR)
 8005cf0:	688d      	ldr	r5, [r1, #8]
  __FMC_NORSRAM_DISABLE(Device, Init->NSBank);
 8005cf2:	f840 3022 	str.w	r3, [r0, r2, lsl #2]
  mask |= FMC_BCR1_CCLKEN;
  mask |= FMC_BCR1_WFDIS;
  mask |= FMC_BCRx_NBLSET;
  mask |= FMC_BCRx_CPSIZE;

  MODIFY_REG(Device->BTCR[Init->NSBank], mask, btcr_reg);
 8005cf6:	684b      	ldr	r3, [r1, #4]
  btcr_reg |= Init->ContinuousClock;
 8005cf8:	6b0c      	ldr	r4, [r1, #48]	@ 0x30
  btcr_reg |= Init->WriteFifo;
 8005cfa:	6b4e      	ldr	r6, [r1, #52]	@ 0x34
  MODIFY_REG(Device->BTCR[Init->NSBank], mask, btcr_reg);
 8005cfc:	f850 7022 	ldr.w	r7, [r0, r2, lsl #2]
 8005d00:	432b      	orrs	r3, r5
  if (Init->MemoryType == FMC_MEMORY_TYPE_NOR)
 8005d02:	f1a5 0c08 	sub.w	ip, r5, #8
  MODIFY_REG(Device->BTCR[Init->NSBank], mask, btcr_reg);
 8005d06:	68cd      	ldr	r5, [r1, #12]
 8005d08:	432b      	orrs	r3, r5
 8005d0a:	690d      	ldr	r5, [r1, #16]
 8005d0c:	432b      	orrs	r3, r5
 8005d0e:	694d      	ldr	r5, [r1, #20]
 8005d10:	432b      	orrs	r3, r5
 8005d12:	698d      	ldr	r5, [r1, #24]
 8005d14:	432b      	orrs	r3, r5
 8005d16:	69cd      	ldr	r5, [r1, #28]
 8005d18:	432b      	orrs	r3, r5
 8005d1a:	6a0d      	ldr	r5, [r1, #32]
 8005d1c:	432b      	orrs	r3, r5
 8005d1e:	6a4d      	ldr	r5, [r1, #36]	@ 0x24
 8005d20:	432b      	orrs	r3, r5
 8005d22:	6a8d      	ldr	r5, [r1, #40]	@ 0x28
 8005d24:	432b      	orrs	r3, r5
 8005d26:	6acd      	ldr	r5, [r1, #44]	@ 0x2c
 8005d28:	432b      	orrs	r3, r5
 8005d2a:	4323      	orrs	r3, r4
 8005d2c:	6bcd      	ldr	r5, [r1, #60]	@ 0x3c
 8005d2e:	4333      	orrs	r3, r6
 8005d30:	432b      	orrs	r3, r5
 8005d32:	6b8d      	ldr	r5, [r1, #56]	@ 0x38
 8005d34:	432b      	orrs	r3, r5
 8005d36:	4d24      	ldr	r5, [pc, #144]	@ (8005dc8 <FMC_NORSRAM_Init+0xe4>)
  if (Init->MemoryType == FMC_MEMORY_TYPE_NOR)
 8005d38:	fabc fc8c 	clz	ip, ip
  MODIFY_REG(Device->BTCR[Init->NSBank], mask, btcr_reg);
 8005d3c:	403d      	ands	r5, r7
  if (Init->MemoryType == FMC_MEMORY_TYPE_NOR)
 8005d3e:	ea4f 1c5c 	mov.w	ip, ip, lsr #5
  MODIFY_REG(Device->BTCR[Init->NSBank], mask, btcr_reg);
 8005d42:	432b      	orrs	r3, r5
 8005d44:	ea43 138c 	orr.w	r3, r3, ip, lsl #6

  /* Configure synchronous mode when Continuous clock is enabled for bank2..4 */
  if ((Init->ContinuousClock == FMC_CONTINUOUS_CLOCK_SYNC_ASYNC) && (Init->NSBank != FMC_NORSRAM_BANK1))
 8005d48:	f5b4 1f80 	cmp.w	r4, #1048576	@ 0x100000
  MODIFY_REG(Device->BTCR[Init->NSBank], mask, btcr_reg);
 8005d4c:	f840 3022 	str.w	r3, [r0, r2, lsl #2]
  if ((Init->ContinuousClock == FMC_CONTINUOUS_CLOCK_SYNC_ASYNC) && (Init->NSBank != FMC_NORSRAM_BANK1))
 8005d50:	d007      	beq.n	8005d62 <FMC_NORSRAM_Init+0x7e>
  {
    MODIFY_REG(Device->BTCR[FMC_NORSRAM_BANK1], FMC_BCR1_CCLKEN, Init->ContinuousClock);
  }

  if (Init->NSBank != FMC_NORSRAM_BANK1)
 8005d52:	b962      	cbnz	r2, 8005d6e <FMC_NORSRAM_Init+0x8a>
    /* Configure Write FIFO mode when Write Fifo is enabled for bank2..4 */
    SET_BIT(Device->BTCR[FMC_NORSRAM_BANK1], (uint32_t)(Init->WriteFifo));
  }

  /* Check PSRAM chip select counter state */
  if (Init->MaxChipSelectPulse == ENABLE)
 8005d54:	f891 3040 	ldrb.w	r3, [r1, #64]	@ 0x40
 8005d58:	2b01      	cmp	r3, #1
 8005d5a:	d020      	beq.n	8005d9e <FMC_NORSRAM_Init+0xba>
        break;
    }
  }

  return HAL_OK;
}
 8005d5c:	2000      	movs	r0, #0
 8005d5e:	bcf0      	pop	{r4, r5, r6, r7}
 8005d60:	4770      	bx	lr
  if ((Init->ContinuousClock == FMC_CONTINUOUS_CLOCK_SYNC_ASYNC) && (Init->NSBank != FMC_NORSRAM_BANK1))
 8005d62:	2a00      	cmp	r2, #0
 8005d64:	d0f6      	beq.n	8005d54 <FMC_NORSRAM_Init+0x70>
    MODIFY_REG(Device->BTCR[FMC_NORSRAM_BANK1], FMC_BCR1_CCLKEN, Init->ContinuousClock);
 8005d66:	6803      	ldr	r3, [r0, #0]
 8005d68:	f443 1380 	orr.w	r3, r3, #1048576	@ 0x100000
 8005d6c:	6003      	str	r3, [r0, #0]
    SET_BIT(Device->BTCR[FMC_NORSRAM_BANK1], (uint32_t)(Init->WriteFifo));
 8005d6e:	6803      	ldr	r3, [r0, #0]
 8005d70:	431e      	orrs	r6, r3
 8005d72:	6006      	str	r6, [r0, #0]
  if (Init->MaxChipSelectPulse == ENABLE)
 8005d74:	f891 3040 	ldrb.w	r3, [r1, #64]	@ 0x40
 8005d78:	2b01      	cmp	r3, #1
 8005d7a:	d1ef      	bne.n	8005d5c <FMC_NORSRAM_Init+0x78>
    MODIFY_REG(Device->PCSCNTR, FMC_PCSCNTR_CSCOUNT, (uint32_t)(Init->MaxChipSelectPulseTime));
 8005d7c:	6a03      	ldr	r3, [r0, #32]
 8005d7e:	6c49      	ldr	r1, [r1, #68]	@ 0x44
 8005d80:	0c1b      	lsrs	r3, r3, #16
 8005d82:	041b      	lsls	r3, r3, #16
 8005d84:	430b      	orrs	r3, r1
    switch (Init->NSBank)
 8005d86:	2a04      	cmp	r2, #4
    MODIFY_REG(Device->PCSCNTR, FMC_PCSCNTR_CSCOUNT, (uint32_t)(Init->MaxChipSelectPulseTime));
 8005d88:	6203      	str	r3, [r0, #32]
    switch (Init->NSBank)
 8005d8a:	d018      	beq.n	8005dbe <FMC_NORSRAM_Init+0xda>
 8005d8c:	d812      	bhi.n	8005db4 <FMC_NORSRAM_Init+0xd0>
 8005d8e:	b162      	cbz	r2, 8005daa <FMC_NORSRAM_Init+0xc6>
 8005d90:	2a02      	cmp	r2, #2
 8005d92:	d10f      	bne.n	8005db4 <FMC_NORSRAM_Init+0xd0>
        SET_BIT(Device->PCSCNTR, FMC_PCSCNTR_CNTB2EN);
 8005d94:	6a03      	ldr	r3, [r0, #32]
 8005d96:	f443 3300 	orr.w	r3, r3, #131072	@ 0x20000
 8005d9a:	6203      	str	r3, [r0, #32]
        break;
 8005d9c:	e7de      	b.n	8005d5c <FMC_NORSRAM_Init+0x78>
    MODIFY_REG(Device->PCSCNTR, FMC_PCSCNTR_CSCOUNT, (uint32_t)(Init->MaxChipSelectPulseTime));
 8005d9e:	6a03      	ldr	r3, [r0, #32]
 8005da0:	6c4a      	ldr	r2, [r1, #68]	@ 0x44
 8005da2:	0c1b      	lsrs	r3, r3, #16
 8005da4:	041b      	lsls	r3, r3, #16
 8005da6:	4313      	orrs	r3, r2
 8005da8:	6203      	str	r3, [r0, #32]
        SET_BIT(Device->PCSCNTR, FMC_PCSCNTR_CNTB1EN);
 8005daa:	6a03      	ldr	r3, [r0, #32]
 8005dac:	f443 3380 	orr.w	r3, r3, #65536	@ 0x10000
 8005db0:	6203      	str	r3, [r0, #32]
        break;
 8005db2:	e7d3      	b.n	8005d5c <FMC_NORSRAM_Init+0x78>
        SET_BIT(Device->PCSCNTR, FMC_PCSCNTR_CNTB4EN);
 8005db4:	6a03      	ldr	r3, [r0, #32]
 8005db6:	f443 2300 	orr.w	r3, r3, #524288	@ 0x80000
 8005dba:	6203      	str	r3, [r0, #32]
        break;
 8005dbc:	e7ce      	b.n	8005d5c <FMC_NORSRAM_Init+0x78>
        SET_BIT(Device->PCSCNTR, FMC_PCSCNTR_CNTB3EN);
 8005dbe:	6a03      	ldr	r3, [r0, #32]
 8005dc0:	f443 2380 	orr.w	r3, r3, #262144	@ 0x40000
 8005dc4:	6203      	str	r3, [r0, #32]
        break;
 8005dc6:	e7c9      	b.n	8005d5c <FMC_NORSRAM_Init+0x78>
 8005dc8:	ff000480 	.word	0xff000480

08005dcc <FMC_NORSRAM_Timing_Init>:
    (Timing->AddressSetupTime << FMC_BTRx_ADDSET_Pos) |
    (Timing->AddressHoldTime << FMC_BTRx_ADDHLD_Pos) |
    (Timing->DataSetupTime << FMC_BTRx_DATAST_Pos) |
    (Timing->DataHoldTime << FMC_BTRx_DATAHLD_Pos) |
    (Timing->BusTurnAroundDuration << FMC_BTRx_BUSTURN_Pos) |
    ((Timing->CLKDivision - 1U) << FMC_BTRx_CLKDIV_Pos) |
 8005dcc:	694b      	ldr	r3, [r1, #20]
{
 8005dce:	b510      	push	{r4, lr}
    ((Timing->CLKDivision - 1U) << FMC_BTRx_CLKDIV_Pos) |
 8005dd0:	f103 3cff 	add.w	ip, r3, #4294967295
    ((Timing->DataLatency - 2U) << FMC_BTRx_DATLAT_Pos) |
 8005dd4:	69cc      	ldr	r4, [r1, #28]
 8005dd6:	680b      	ldr	r3, [r1, #0]
 8005dd8:	4323      	orrs	r3, r4
 8005dda:	684c      	ldr	r4, [r1, #4]
 8005ddc:	ea43 1304 	orr.w	r3, r3, r4, lsl #4
 8005de0:	688c      	ldr	r4, [r1, #8]
 8005de2:	ea43 2304 	orr.w	r3, r3, r4, lsl #8
 8005de6:	68cc      	ldr	r4, [r1, #12]
 8005de8:	ea43 7384 	orr.w	r3, r3, r4, lsl #30
 8005dec:	690c      	ldr	r4, [r1, #16]
 8005dee:	6989      	ldr	r1, [r1, #24]
 8005df0:	ea43 4304 	orr.w	r3, r3, r4, lsl #16
  Device->BTCR[Bank + 1U] =
 8005df4:	3201      	adds	r2, #1
    ((Timing->DataLatency - 2U) << FMC_BTRx_DATLAT_Pos) |
 8005df6:	ea43 530c 	orr.w	r3, r3, ip, lsl #20
 8005dfa:	3902      	subs	r1, #2
 8005dfc:	ea43 6301 	orr.w	r3, r3, r1, lsl #24
  Device->BTCR[Bank + 1U] =
 8005e00:	f840 3022 	str.w	r3, [r0, r2, lsl #2]
    Timing->AccessMode;

  /* Configure Clock division value (in NORSRAM bank 1) when continuous clock is enabled */
  if (HAL_IS_BIT_SET(Device->BTCR[FMC_NORSRAM_BANK1], FMC_BCR1_CCLKEN))
 8005e04:	6803      	ldr	r3, [r0, #0]
 8005e06:	02db      	lsls	r3, r3, #11
 8005e08:	d509      	bpl.n	8005e1e <FMC_NORSRAM_Timing_Init+0x52>
  {
    tmpr = (uint32_t)(Device->BTCR[FMC_NORSRAM_BANK1 + 1U] & ~((0x0FU) << FMC_BTRx_CLKDIV_Pos));
 8005e0a:	6843      	ldr	r3, [r0, #4]
    tmpr |= (uint32_t)(((Timing->CLKDivision) - 1U) << FMC_BTRx_CLKDIV_Pos);
    MODIFY_REG(Device->BTCR[FMC_NORSRAM_BANK1 + 1U], FMC_BTRx_CLKDIV, tmpr);
 8005e0c:	6842      	ldr	r2, [r0, #4]
 8005e0e:	4313      	orrs	r3, r2
 8005e10:	ea4f 5e0c 	mov.w	lr, ip, lsl #20
 8005e14:	f423 0370 	bic.w	r3, r3, #15728640	@ 0xf00000
 8005e18:	ea43 030e 	orr.w	r3, r3, lr
 8005e1c:	6043      	str	r3, [r0, #4]
  }

  return HAL_OK;
}
 8005e1e:	2000      	movs	r0, #0
 8005e20:	bd10      	pop	{r4, pc}
 8005e22:	bf00      	nop

08005e24 <FMC_NORSRAM_Extended_Timing_Init>:
{
  /* Check the parameters */
  assert_param(IS_FMC_EXTENDED_MODE(ExtendedMode));

  /* Set NORSRAM device timing register for write configuration, if extended mode is used */
  if (ExtendedMode == FMC_EXTENDED_MODE_ENABLE)
 8005e24:	f5b3 4f80 	cmp.w	r3, #16384	@ 0x4000
 8005e28:	d005      	beq.n	8005e36 <FMC_NORSRAM_Extended_Timing_Init+0x12>
                                                     Timing->AccessMode                                          |
                                                     ((Timing->BusTurnAroundDuration)  << FMC_BWTRx_BUSTURN_Pos)));
  }
  else
  {
    Device->BWTR[Bank] = 0x0FFFFFFFU;
 8005e2a:	f06f 4370 	mvn.w	r3, #4026531840	@ 0xf0000000
 8005e2e:	f840 3022 	str.w	r3, [r0, r2, lsl #2]
  }

  return HAL_OK;
}
 8005e32:	2000      	movs	r0, #0
 8005e34:	4770      	bx	lr
{
 8005e36:	b430      	push	{r4, r5}
    MODIFY_REG(Device->BWTR[Bank], BWTR_CLEAR_MASK, (Timing->AddressSetupTime                                    |
 8005e38:	f850 4022 	ldr.w	r4, [r0, r2, lsl #2]
 8005e3c:	69cd      	ldr	r5, [r1, #28]
 8005e3e:	680b      	ldr	r3, [r1, #0]
 8005e40:	f004 6c7f 	and.w	ip, r4, #267386880	@ 0xff00000
 8005e44:	684c      	ldr	r4, [r1, #4]
 8005e46:	432b      	orrs	r3, r5
 8005e48:	ea43 1304 	orr.w	r3, r3, r4, lsl #4
 8005e4c:	688c      	ldr	r4, [r1, #8]
 8005e4e:	ea43 2304 	orr.w	r3, r3, r4, lsl #8
 8005e52:	68cc      	ldr	r4, [r1, #12]
 8005e54:	6909      	ldr	r1, [r1, #16]
 8005e56:	ea43 7384 	orr.w	r3, r3, r4, lsl #30
 8005e5a:	ea43 4301 	orr.w	r3, r3, r1, lsl #16
 8005e5e:	ea43 030c 	orr.w	r3, r3, ip
 8005e62:	f840 3022 	str.w	r3, [r0, r2, lsl #2]
}
 8005e66:	bc30      	pop	{r4, r5}
 8005e68:	2000      	movs	r0, #0
 8005e6a:	4770      	bx	lr

08005e6c <LL_GPIO_Init>:
  * @retval An ErrorStatus enumeration value:
  *          - SUCCESS: GPIO registers are initialized according to GPIO_InitStruct content
  *          - ERROR:   Not applicable
  */
ErrorStatus LL_GPIO_Init(GPIO_TypeDef *GPIOx, LL_GPIO_InitTypeDef *GPIO_InitStruct)
{
 8005e6c:	e92d 4ff0 	stmdb	sp!, {r4, r5, r6, r7, r8, r9, sl, fp, lr}
  assert_param(IS_LL_GPIO_MODE(GPIO_InitStruct->Mode));
  assert_param(IS_LL_GPIO_PULL(GPIO_InitStruct->Pull));

  /* ------------------------- Configure the port pins ---------------- */
  /* Initialize  pinpos on first pin set */
  pinpos = POSITION_VAL(GPIO_InitStruct->Pin);
 8005e70:	680d      	ldr	r5, [r1, #0]
{
 8005e72:	b083      	sub	sp, #12
   __ASM volatile ("rbit %0, %1" : "=r" (result) : "r" (value) );
 8005e74:	fa95 f2a5 	rbit	r2, r5
  if (value == 0U)
 8005e78:	2a00      	cmp	r2, #0
 8005e7a:	f000 808f 	beq.w	8005f9c <LL_GPIO_Init+0x130>
  return __builtin_clz(value);
 8005e7e:	fab2 f282 	clz	r2, r2

  /* Configure the port pins */
  while (((GPIO_InitStruct->Pin) >> pinpos) != 0x00000000U)
 8005e82:	fa35 f302 	lsrs.w	r3, r5, r2
 8005e86:	f000 8089 	beq.w	8005f9c <LL_GPIO_Init+0x130>
  MODIFY_REG(GPIOx->OTYPER, PinMask, (PinMask * OutputType));
 8005e8a:	43eb      	mvns	r3, r5
  {
    /* Get current io position */
    currentpin = (GPIO_InitStruct->Pin) & (0x00000001UL << pinpos);
 8005e8c:	f04f 0c01 	mov.w	ip, #1
  MODIFY_REG(GPIOx->MODER, (GPIO_MODER_MODE0 << (POSITION_VAL(Pin) * 2U)), (Mode << (POSITION_VAL(Pin) * 2U)));
 8005e90:	f04f 0e03 	mov.w	lr, #3
  MODIFY_REG(GPIOx->OTYPER, PinMask, (PinMask * OutputType));
 8005e94:	9301      	str	r3, [sp, #4]
 8005e96:	e037      	b.n	8005f08 <LL_GPIO_Init+0x9c>
        /* Output mode configuration*/
        LL_GPIO_SetPinOutputType(GPIOx, GPIO_InitStruct->Pin, GPIO_InitStruct->OutputType);
      }

      /* Pull-up Pull down resistor configuration*/
      LL_GPIO_SetPinPull(GPIOx, currentpin, GPIO_InitStruct->Pull);
 8005e98:	f8d1 8010 	ldr.w	r8, [r1, #16]
  MODIFY_REG(GPIOx->PUPDR, (GPIO_PUPDR_PUPD0 << (POSITION_VAL(Pin) * 2U)), (Pull << (POSITION_VAL(Pin) * 2U)));
 8005e9c:	f8d0 900c 	ldr.w	r9, [r0, #12]
   __ASM volatile ("rbit %0, %1" : "=r" (result) : "r" (value) );
 8005ea0:	fa93 f7a3 	rbit	r7, r3
  if (value == 0U)
 8005ea4:	b137      	cbz	r7, 8005eb4 <LL_GPIO_Init+0x48>
  return __builtin_clz(value);
 8005ea6:	fab7 f787 	clz	r7, r7
 8005eaa:	007f      	lsls	r7, r7, #1
 8005eac:	fa0e f707 	lsl.w	r7, lr, r7
 8005eb0:	ea29 0907 	bic.w	r9, r9, r7
   __ASM volatile ("rbit %0, %1" : "=r" (result) : "r" (value) );
 8005eb4:	fa93 f7a3 	rbit	r7, r3
  if (value == 0U)
 8005eb8:	2f00      	cmp	r7, #0
 8005eba:	d075      	beq.n	8005fa8 <LL_GPIO_Init+0x13c>
  return __builtin_clz(value);
 8005ebc:	fab7 f787 	clz	r7, r7
 8005ec0:	007f      	lsls	r7, r7, #1
 8005ec2:	fa08 f807 	lsl.w	r8, r8, r7
 8005ec6:	ea48 0709 	orr.w	r7, r8, r9

      if (GPIO_InitStruct->Mode == LL_GPIO_MODE_ALTERNATE)
 8005eca:	2c02      	cmp	r4, #2
 8005ecc:	60c7      	str	r7, [r0, #12]
 8005ece:	d047      	beq.n	8005f60 <LL_GPIO_Init+0xf4>
  MODIFY_REG(GPIOx->MODER, (GPIO_MODER_MODE0 << (POSITION_VAL(Pin) * 2U)), (Mode << (POSITION_VAL(Pin) * 2U)));
 8005ed0:	6807      	ldr	r7, [r0, #0]
   __ASM volatile ("rbit %0, %1" : "=r" (result) : "r" (value) );
 8005ed2:	fa93 f8a3 	rbit	r8, r3
  if (value == 0U)
 8005ed6:	f1b8 0f00 	cmp.w	r8, #0
 8005eda:	d007      	beq.n	8005eec <LL_GPIO_Init+0x80>
  return __builtin_clz(value);
 8005edc:	fab8 f888 	clz	r8, r8
 8005ee0:	ea4f 0848 	mov.w	r8, r8, lsl #1
 8005ee4:	fa0e f808 	lsl.w	r8, lr, r8
 8005ee8:	ea27 0708 	bic.w	r7, r7, r8
   __ASM volatile ("rbit %0, %1" : "=r" (result) : "r" (value) );
 8005eec:	fa93 f3a3 	rbit	r3, r3
  if (value == 0U)
 8005ef0:	2b00      	cmp	r3, #0
 8005ef2:	d057      	beq.n	8005fa4 <LL_GPIO_Init+0x138>
  return __builtin_clz(value);
 8005ef4:	fab3 f383 	clz	r3, r3
 8005ef8:	005b      	lsls	r3, r3, #1
 8005efa:	409c      	lsls	r4, r3
 8005efc:	433c      	orrs	r4, r7
 8005efe:	6004      	str	r4, [r0, #0]
      }

      /* Pin Mode configuration */
      LL_GPIO_SetPinMode(GPIOx, currentpin, GPIO_InitStruct->Mode);
    }
    pinpos++;
 8005f00:	3201      	adds	r2, #1
  while (((GPIO_InitStruct->Pin) >> pinpos) != 0x00000000U)
 8005f02:	fa35 f302 	lsrs.w	r3, r5, r2
 8005f06:	d049      	beq.n	8005f9c <LL_GPIO_Init+0x130>
    currentpin = (GPIO_InitStruct->Pin) & (0x00000001UL << pinpos);
 8005f08:	fa0c f302 	lsl.w	r3, ip, r2
    if (currentpin != 0x00u)
 8005f0c:	402b      	ands	r3, r5
 8005f0e:	d0f7      	beq.n	8005f00 <LL_GPIO_Init+0x94>
      if ((GPIO_InitStruct->Mode == LL_GPIO_MODE_OUTPUT) || (GPIO_InitStruct->Mode == LL_GPIO_MODE_ALTERNATE))
 8005f10:	684c      	ldr	r4, [r1, #4]
 8005f12:	1e67      	subs	r7, r4, #1
 8005f14:	2f01      	cmp	r7, #1
 8005f16:	d8bf      	bhi.n	8005e98 <LL_GPIO_Init+0x2c>
        LL_GPIO_SetPinSpeed(GPIOx, currentpin, GPIO_InitStruct->Speed);
 8005f18:	f8d1 8008 	ldr.w	r8, [r1, #8]
  MODIFY_REG(GPIOx->OSPEEDR, (GPIO_OSPEEDR_OSPEED0 << (POSITION_VAL(Pin) * 2U)),
 8005f1c:	f8d0 9008 	ldr.w	r9, [r0, #8]
   __ASM volatile ("rbit %0, %1" : "=r" (result) : "r" (value) );
 8005f20:	fa93 f7a3 	rbit	r7, r3
  if (value == 0U)
 8005f24:	b137      	cbz	r7, 8005f34 <LL_GPIO_Init+0xc8>
  return __builtin_clz(value);
 8005f26:	fab7 f787 	clz	r7, r7
 8005f2a:	007f      	lsls	r7, r7, #1
 8005f2c:	fa0e f707 	lsl.w	r7, lr, r7
 8005f30:	ea29 0907 	bic.w	r9, r9, r7
   __ASM volatile ("rbit %0, %1" : "=r" (result) : "r" (value) );
 8005f34:	fa93 f7a3 	rbit	r7, r3
  if (value == 0U)
 8005f38:	2f00      	cmp	r7, #0
 8005f3a:	d055      	beq.n	8005fe8 <LL_GPIO_Init+0x17c>
  return __builtin_clz(value);
 8005f3c:	fab7 f787 	clz	r7, r7
 8005f40:	007f      	lsls	r7, r7, #1
 8005f42:	fa08 f807 	lsl.w	r8, r8, r7
 8005f46:	ea48 0709 	orr.w	r7, r8, r9
 8005f4a:	6087      	str	r7, [r0, #8]
  MODIFY_REG(GPIOx->OTYPER, PinMask, (PinMask * OutputType));
 8005f4c:	6847      	ldr	r7, [r0, #4]
 8005f4e:	9e01      	ldr	r6, [sp, #4]
 8005f50:	4037      	ands	r7, r6
 8005f52:	68ce      	ldr	r6, [r1, #12]
 8005f54:	fb06 f805 	mul.w	r8, r6, r5
 8005f58:	ea47 0708 	orr.w	r7, r7, r8
 8005f5c:	6047      	str	r7, [r0, #4]
}
 8005f5e:	e79b      	b.n	8005e98 <LL_GPIO_Init+0x2c>
        if (currentpin < LL_GPIO_PIN_8)
 8005f60:	2bff      	cmp	r3, #255	@ 0xff
          LL_GPIO_SetAFPin_0_7(GPIOx, currentpin, GPIO_InitStruct->Alternate);
 8005f62:	f8d1 9014 	ldr.w	r9, [r1, #20]
        if (currentpin < LL_GPIO_PIN_8)
 8005f66:	d821      	bhi.n	8005fac <LL_GPIO_Init+0x140>
  MODIFY_REG(GPIOx->AFR[0], (GPIO_AFRL_AFSEL0 << (POSITION_VAL(Pin) * 4U)),
 8005f68:	f8d0 8020 	ldr.w	r8, [r0, #32]
   __ASM volatile ("rbit %0, %1" : "=r" (result) : "r" (value) );
 8005f6c:	fa93 f7a3 	rbit	r7, r3
  if (value == 0U)
 8005f70:	b147      	cbz	r7, 8005f84 <LL_GPIO_Init+0x118>
  return __builtin_clz(value);
 8005f72:	fab7 f787 	clz	r7, r7
 8005f76:	00bf      	lsls	r7, r7, #2
 8005f78:	f04f 0a0f 	mov.w	sl, #15
 8005f7c:	fa0a f707 	lsl.w	r7, sl, r7
 8005f80:	ea28 0807 	bic.w	r8, r8, r7
   __ASM volatile ("rbit %0, %1" : "=r" (result) : "r" (value) );
 8005f84:	fa93 f7a3 	rbit	r7, r3
  if (value == 0U)
 8005f88:	b397      	cbz	r7, 8005ff0 <LL_GPIO_Init+0x184>
  return __builtin_clz(value);
 8005f8a:	fab7 f787 	clz	r7, r7
 8005f8e:	00bf      	lsls	r7, r7, #2
 8005f90:	fa09 f707 	lsl.w	r7, r9, r7
 8005f94:	ea47 0708 	orr.w	r7, r7, r8
 8005f98:	6207      	str	r7, [r0, #32]
}
 8005f9a:	e799      	b.n	8005ed0 <LL_GPIO_Init+0x64>
  }
  return (SUCCESS);
}
 8005f9c:	2000      	movs	r0, #0
 8005f9e:	b003      	add	sp, #12
 8005fa0:	e8bd 8ff0 	ldmia.w	sp!, {r4, r5, r6, r7, r8, r9, sl, fp, pc}
 8005fa4:	2340      	movs	r3, #64	@ 0x40
 8005fa6:	e7a8      	b.n	8005efa <LL_GPIO_Init+0x8e>
 8005fa8:	2740      	movs	r7, #64	@ 0x40
 8005faa:	e78a      	b.n	8005ec2 <LL_GPIO_Init+0x56>
  MODIFY_REG(GPIOx->AFR[1], (GPIO_AFRH_AFSEL8 << (POSITION_VAL(Pin >> 8U) * 4U)),
 8005fac:	f8d0 8024 	ldr.w	r8, [r0, #36]	@ 0x24
 8005fb0:	0a1f      	lsrs	r7, r3, #8
   __ASM volatile ("rbit %0, %1" : "=r" (result) : "r" (value) );
 8005fb2:	fa97 faa7 	rbit	sl, r7
  if (value == 0U)
 8005fb6:	f1ba 0f00 	cmp.w	sl, #0
 8005fba:	d009      	beq.n	8005fd0 <LL_GPIO_Init+0x164>
  return __builtin_clz(value);
 8005fbc:	faba fa8a 	clz	sl, sl
 8005fc0:	ea4f 0a8a 	mov.w	sl, sl, lsl #2
 8005fc4:	f04f 0b0f 	mov.w	fp, #15
 8005fc8:	fa0b fa0a 	lsl.w	sl, fp, sl
 8005fcc:	ea28 080a 	bic.w	r8, r8, sl
   __ASM volatile ("rbit %0, %1" : "=r" (result) : "r" (value) );
 8005fd0:	fa97 f7a7 	rbit	r7, r7
  if (value == 0U)
 8005fd4:	b157      	cbz	r7, 8005fec <LL_GPIO_Init+0x180>
  return __builtin_clz(value);
 8005fd6:	fab7 f787 	clz	r7, r7
 8005fda:	00bf      	lsls	r7, r7, #2
 8005fdc:	fa09 f907 	lsl.w	r9, r9, r7
 8005fe0:	ea49 0708 	orr.w	r7, r9, r8
 8005fe4:	6247      	str	r7, [r0, #36]	@ 0x24
}
 8005fe6:	e773      	b.n	8005ed0 <LL_GPIO_Init+0x64>
 8005fe8:	2740      	movs	r7, #64	@ 0x40
 8005fea:	e7aa      	b.n	8005f42 <LL_GPIO_Init+0xd6>
 8005fec:	2780      	movs	r7, #128	@ 0x80
 8005fee:	e7f5      	b.n	8005fdc <LL_GPIO_Init+0x170>
 8005ff0:	2780      	movs	r7, #128	@ 0x80
 8005ff2:	e7cd      	b.n	8005f90 <LL_GPIO_Init+0x124>

08005ff4 <LL_RCC_GetUSARTClockFreq>:
  uint32_t usart_frequency = LL_RCC_PERIPH_FREQUENCY_NO;

  /* Check parameter */
  assert_param(IS_LL_RCC_USART_CLKSOURCE(USARTxSource));

  if (USARTxSource == LL_RCC_USART1_CLKSOURCE)
 8005ff4:	2803      	cmp	r0, #3
{
 8005ff6:	b430      	push	{r4, r5}
  if (USARTxSource == LL_RCC_USART1_CLKSOURCE)
 8005ff8:	d032      	beq.n	8006060 <LL_RCC_GetUSARTClockFreq+0x6c>
      default:
        usart_frequency = RCC_GetPCLK2ClockFreq(RCC_GetHCLKClockFreq(RCC_GetSystemClockFreq()));
        break;
    }
  }
  else if (USARTxSource == LL_RCC_USART2_CLKSOURCE)
 8005ffa:	280c      	cmp	r0, #12
 8005ffc:	d004      	beq.n	8006008 <LL_RCC_GetUSARTClockFreq+0x14>
    }
  }
  else
  {
#if defined(RCC_CCIPR_USART3SEL)
    if (USARTxSource == LL_RCC_USART3_CLKSOURCE)
 8005ffe:	2830      	cmp	r0, #48	@ 0x30
 8006000:	d057      	beq.n	80060b2 <LL_RCC_GetUSARTClockFreq+0xbe>
  uint32_t usart_frequency = LL_RCC_PERIPH_FREQUENCY_NO;
 8006002:	2000      	movs	r0, #0
      }
    }
#endif /* RCC_CCIPR_USART3SEL */
  }
  return usart_frequency;
}
 8006004:	bc30      	pop	{r4, r5}
 8006006:	4770      	bx	lr
  *         @arg @ref LL_RCC_USART3_CLKSOURCE_HSI
  *         @arg @ref LL_RCC_USART3_CLKSOURCE_LSE
  */
__STATIC_INLINE uint32_t LL_RCC_GetUSARTClockSource(uint32_t USARTx)
{
  return (uint32_t)(READ_BIT(RCC->CCIPR, USARTx) | (USARTx << 16U));
 8006008:	4a66      	ldr	r2, [pc, #408]	@ (80061a4 <LL_RCC_GetUSARTClockFreq+0x1b0>)
    switch (LL_RCC_GetUSARTClockSource(USARTxSource))
 800600a:	4967      	ldr	r1, [pc, #412]	@ (80061a8 <LL_RCC_GetUSARTClockFreq+0x1b4>)
 800600c:	f8d2 3088 	ldr.w	r3, [r2, #136]	@ 0x88
 8006010:	f003 030c 	and.w	r3, r3, #12
 8006014:	f443 2340 	orr.w	r3, r3, #786432	@ 0xc0000
 8006018:	428b      	cmp	r3, r1
 800601a:	d07c      	beq.n	8006116 <LL_RCC_GetUSARTClockFreq+0x122>
 800601c:	f1b3 1f0c 	cmp.w	r3, #786444	@ 0xc000c
 8006020:	d040      	beq.n	80060a4 <LL_RCC_GetUSARTClockFreq+0xb0>
 8006022:	3904      	subs	r1, #4
 8006024:	428b      	cmp	r3, r1
  return (uint32_t)(READ_BIT(RCC->CFGR, RCC_CFGR_SWS));
 8006026:	6893      	ldr	r3, [r2, #8]
 8006028:	f003 030c 	and.w	r3, r3, #12
 800602c:	d054      	beq.n	80060d8 <LL_RCC_GetUSARTClockFreq+0xe4>
static uint32_t RCC_GetSystemClockFreq(void)
{
  uint32_t frequency;

  /* Get SYSCLK source -------------------------------------------------------*/
  switch (LL_RCC_GetSysClkSource())
 800602e:	2b08      	cmp	r3, #8
 8006030:	f000 80b6 	beq.w	80061a0 <LL_RCC_GetUSARTClockFreq+0x1ac>
 8006034:	2b0c      	cmp	r3, #12
 8006036:	d07a      	beq.n	800612e <LL_RCC_GetUSARTClockFreq+0x13a>
  {
    case LL_RCC_SYS_CLKSOURCE_STATUS_HSI:  /* HSI used as system clock  source */
      frequency = HSI_VALUE;
 8006038:	485c      	ldr	r0, [pc, #368]	@ (80061ac <LL_RCC_GetUSARTClockFreq+0x1b8>)
  return (uint32_t)(READ_BIT(RCC->CFGR, RCC_CFGR_HPRE));
 800603a:	4b5a      	ldr	r3, [pc, #360]	@ (80061a4 <LL_RCC_GetUSARTClockFreq+0x1b0>)
  * @retval HCLK clock frequency (in Hz)
  */
static uint32_t RCC_GetHCLKClockFreq(uint32_t SYSCLK_Frequency)
{
  /* HCLK clock frequency */
  return __LL_RCC_CALC_HCLK_FREQ(SYSCLK_Frequency, LL_RCC_GetAHBPrescaler());
 800603c:	495c      	ldr	r1, [pc, #368]	@ (80061b0 <LL_RCC_GetUSARTClockFreq+0x1bc>)
 800603e:	689a      	ldr	r2, [r3, #8]
  return (uint32_t)(READ_BIT(RCC->CFGR, RCC_CFGR_PPRE1));
 8006040:	689b      	ldr	r3, [r3, #8]
 8006042:	f3c2 1203 	ubfx	r2, r2, #4, #4
  * @retval PCLK1 clock frequency (in Hz)
  */
static uint32_t RCC_GetPCLK1ClockFreq(uint32_t HCLK_Frequency)
{
  /* PCLK1 clock frequency */
  return __LL_RCC_CALC_PCLK1_FREQ(HCLK_Frequency, LL_RCC_GetAPB1Prescaler());
 8006046:	f3c3 2302 	ubfx	r3, r3, #8, #3
  return __LL_RCC_CALC_HCLK_FREQ(SYSCLK_Frequency, LL_RCC_GetAHBPrescaler());
 800604a:	5c8a      	ldrb	r2, [r1, r2]
  return __LL_RCC_CALC_PCLK1_FREQ(HCLK_Frequency, LL_RCC_GetAPB1Prescaler());
 800604c:	4959      	ldr	r1, [pc, #356]	@ (80061b4 <LL_RCC_GetUSARTClockFreq+0x1c0>)
 800604e:	5ccb      	ldrb	r3, [r1, r3]
  return __LL_RCC_CALC_HCLK_FREQ(SYSCLK_Frequency, LL_RCC_GetAHBPrescaler());
 8006050:	f002 021f 	and.w	r2, r2, #31
 8006054:	40d0      	lsrs	r0, r2
  return __LL_RCC_CALC_PCLK1_FREQ(HCLK_Frequency, LL_RCC_GetAPB1Prescaler());
 8006056:	f003 031f 	and.w	r3, r3, #31
 800605a:	40d8      	lsrs	r0, r3
}
 800605c:	bc30      	pop	{r4, r5}
 800605e:	4770      	bx	lr
  return (uint32_t)(READ_BIT(RCC->CCIPR, USARTx) | (USARTx << 16U));
 8006060:	4a50      	ldr	r2, [pc, #320]	@ (80061a4 <LL_RCC_GetUSARTClockFreq+0x1b0>)
    switch (LL_RCC_GetUSARTClockSource(USARTxSource))
 8006062:	4955      	ldr	r1, [pc, #340]	@ (80061b8 <LL_RCC_GetUSARTClockFreq+0x1c4>)
 8006064:	f8d2 3088 	ldr.w	r3, [r2, #136]	@ 0x88
 8006068:	f003 0303 	and.w	r3, r3, #3
 800606c:	f443 3340 	orr.w	r3, r3, #196608	@ 0x30000
 8006070:	428b      	cmp	r3, r1
 8006072:	d050      	beq.n	8006116 <LL_RCC_GetUSARTClockFreq+0x122>
 8006074:	f1b3 1f03 	cmp.w	r3, #196611	@ 0x30003
 8006078:	d014      	beq.n	80060a4 <LL_RCC_GetUSARTClockFreq+0xb0>
 800607a:	3901      	subs	r1, #1
 800607c:	428b      	cmp	r3, r1
  return (uint32_t)(READ_BIT(RCC->CFGR, RCC_CFGR_SWS));
 800607e:	6893      	ldr	r3, [r2, #8]
 8006080:	f003 030c 	and.w	r3, r3, #12
 8006084:	d028      	beq.n	80060d8 <LL_RCC_GetUSARTClockFreq+0xe4>
  switch (LL_RCC_GetSysClkSource())
 8006086:	2b08      	cmp	r3, #8
 8006088:	f000 8088 	beq.w	800619c <LL_RCC_GetUSARTClockFreq+0x1a8>
 800608c:	2b0c      	cmp	r3, #12
 800608e:	d069      	beq.n	8006164 <LL_RCC_GetUSARTClockFreq+0x170>
      frequency = HSI_VALUE;
 8006090:	4846      	ldr	r0, [pc, #280]	@ (80061ac <LL_RCC_GetUSARTClockFreq+0x1b8>)
  return (uint32_t)(READ_BIT(RCC->CFGR, RCC_CFGR_HPRE));
 8006092:	4b44      	ldr	r3, [pc, #272]	@ (80061a4 <LL_RCC_GetUSARTClockFreq+0x1b0>)
  return __LL_RCC_CALC_HCLK_FREQ(SYSCLK_Frequency, LL_RCC_GetAHBPrescaler());
 8006094:	4946      	ldr	r1, [pc, #280]	@ (80061b0 <LL_RCC_GetUSARTClockFreq+0x1bc>)
 8006096:	689a      	ldr	r2, [r3, #8]
  return (uint32_t)(READ_BIT(RCC->CFGR, RCC_CFGR_PPRE2));
 8006098:	689b      	ldr	r3, [r3, #8]
 800609a:	f3c2 1203 	ubfx	r2, r2, #4, #4
  * @retval PCLK2 clock frequency (in Hz)
  */
static uint32_t RCC_GetPCLK2ClockFreq(uint32_t HCLK_Frequency)
{
  /* PCLK2 clock frequency */
  return __LL_RCC_CALC_PCLK2_FREQ(HCLK_Frequency, LL_RCC_GetAPB2Prescaler());
 800609e:	f3c3 23c2 	ubfx	r3, r3, #11, #3
 80060a2:	e7d2      	b.n	800604a <LL_RCC_GetUSARTClockFreq+0x56>
  return ((READ_BIT(RCC->BDCR, RCC_BDCR_LSERDY) == (RCC_BDCR_LSERDY)) ? 1UL : 0UL);
 80060a4:	f8d2 0090 	ldr.w	r0, [r2, #144]	@ 0x90
 80060a8:	f3c0 0040 	ubfx	r0, r0, #1, #1
 80060ac:	03c0      	lsls	r0, r0, #15
}
 80060ae:	bc30      	pop	{r4, r5}
 80060b0:	4770      	bx	lr
  return (uint32_t)(READ_BIT(RCC->CCIPR, USARTx) | (USARTx << 16U));
 80060b2:	4a3c      	ldr	r2, [pc, #240]	@ (80061a4 <LL_RCC_GetUSARTClockFreq+0x1b0>)
      switch (LL_RCC_GetUSARTClockSource(USARTxSource))
 80060b4:	4941      	ldr	r1, [pc, #260]	@ (80061bc <LL_RCC_GetUSARTClockFreq+0x1c8>)
 80060b6:	f8d2 3088 	ldr.w	r3, [r2, #136]	@ 0x88
 80060ba:	f003 0330 	and.w	r3, r3, #48	@ 0x30
 80060be:	f443 1340 	orr.w	r3, r3, #3145728	@ 0x300000
 80060c2:	428b      	cmp	r3, r1
 80060c4:	d027      	beq.n	8006116 <LL_RCC_GetUSARTClockFreq+0x122>
 80060c6:	f1b3 1f30 	cmp.w	r3, #3145776	@ 0x300030
 80060ca:	d0eb      	beq.n	80060a4 <LL_RCC_GetUSARTClockFreq+0xb0>
 80060cc:	3910      	subs	r1, #16
 80060ce:	428b      	cmp	r3, r1
  return (uint32_t)(READ_BIT(RCC->CFGR, RCC_CFGR_SWS));
 80060d0:	6893      	ldr	r3, [r2, #8]
 80060d2:	f003 030c 	and.w	r3, r3, #12
 80060d6:	d1aa      	bne.n	800602e <LL_RCC_GetUSARTClockFreq+0x3a>
  switch (LL_RCC_GetSysClkSource())
 80060d8:	2b08      	cmp	r3, #8
 80060da:	d026      	beq.n	800612a <LL_RCC_GetUSARTClockFreq+0x136>
 80060dc:	2b0c      	cmp	r3, #12
 80060de:	d122      	bne.n	8006126 <LL_RCC_GetUSARTClockFreq+0x132>
  *         @arg @ref LL_RCC_PLLSOURCE_HSI
  *         @arg @ref LL_RCC_PLLSOURCE_HSE
  */
__STATIC_INLINE uint32_t LL_RCC_PLL_GetMainSource(void)
{
  return (uint32_t)(READ_BIT(RCC->PLLCFGR, RCC_PLLCFGR_PLLSRC));
 80060e0:	68d5      	ldr	r5, [r2, #12]
  * @rmtoll PLLCFGR      PLLN          LL_RCC_PLL_GetN
  * @retval Between Min_Data = 8 and Max_Data = 127
  */
__STATIC_INLINE uint32_t LL_RCC_PLL_GetN(void)
{
  return (uint32_t)(READ_BIT(RCC->PLLCFGR, RCC_PLLCFGR_PLLN) >>  RCC_PLLCFGR_PLLN_Pos);
 80060e2:	68d0      	ldr	r0, [r2, #12]
  *         @arg @ref LL_RCC_PLLM_DIV_15
  *         @arg @ref LL_RCC_PLLM_DIV_16
  */
__STATIC_INLINE uint32_t LL_RCC_PLL_GetDivider(void)
{
  return (uint32_t)(READ_BIT(RCC->PLLCFGR, RCC_PLLCFGR_PLLM));
 80060e4:	68d1      	ldr	r1, [r2, #12]
  return (uint32_t)(READ_BIT(RCC->PLLCFGR, RCC_PLLCFGR_PLLR));
 80060e6:	68d3      	ldr	r3, [r2, #12]
  pllsource = LL_RCC_PLL_GetMainSource();

  switch (pllsource)
  {
    case LL_RCC_PLLSOURCE_HSI:  /* HSI used as PLL clock source */
      pllinputfreq = HSI_VALUE;
 80060e8:	4c35      	ldr	r4, [pc, #212]	@ (80061c0 <LL_RCC_GetUSARTClockFreq+0x1cc>)

    default:
      pllinputfreq = HSI_VALUE;
      break;
  }
  return __LL_RCC_CALC_PLLCLK_FREQ(pllinputfreq, LL_RCC_PLL_GetDivider(),
 80060ea:	f3c1 1203 	ubfx	r2, r1, #4, #4
      pllinputfreq = HSI_VALUE;
 80060ee:	492f      	ldr	r1, [pc, #188]	@ (80061ac <LL_RCC_GetUSARTClockFreq+0x1b8>)
  return (uint32_t)(READ_BIT(RCC->PLLCFGR, RCC_PLLCFGR_PLLSRC));
 80060f0:	f005 0503 	and.w	r5, r5, #3
  return __LL_RCC_CALC_PLLCLK_FREQ(pllinputfreq, LL_RCC_PLL_GetDivider(),
 80060f4:	f3c3 6341 	ubfx	r3, r3, #25, #2
  return (uint32_t)(READ_BIT(RCC->PLLCFGR, RCC_PLLCFGR_PLLN) >>  RCC_PLLCFGR_PLLN_Pos);
 80060f8:	f3c0 2006 	ubfx	r0, r0, #8, #7
 80060fc:	3301      	adds	r3, #1
      pllinputfreq = HSI_VALUE;
 80060fe:	2d03      	cmp	r5, #3
 8006100:	bf08      	it	eq
 8006102:	4621      	moveq	r1, r4
  return __LL_RCC_CALC_PLLCLK_FREQ(pllinputfreq, LL_RCC_PLL_GetDivider(),
 8006104:	3201      	adds	r2, #1
 8006106:	005b      	lsls	r3, r3, #1
 8006108:	fb01 f000 	mul.w	r0, r1, r0
 800610c:	fbb0 f0f2 	udiv	r0, r0, r2
 8006110:	fbb0 f0f3 	udiv	r0, r0, r3
      break;
 8006114:	e776      	b.n	8006004 <LL_RCC_GetUSARTClockFreq+0x10>
  return ((READ_BIT(RCC->CR, RCC_CR_HSIRDY) == (RCC_CR_HSIRDY)) ? 1UL : 0UL);
 8006116:	6810      	ldr	r0, [r2, #0]
          usart_frequency = HSI_VALUE;
 8006118:	4b24      	ldr	r3, [pc, #144]	@ (80061ac <LL_RCC_GetUSARTClockFreq+0x1b8>)
 800611a:	f410 6080 	ands.w	r0, r0, #1024	@ 0x400
 800611e:	bf18      	it	ne
 8006120:	4618      	movne	r0, r3
}
 8006122:	bc30      	pop	{r4, r5}
 8006124:	4770      	bx	lr
          usart_frequency = HSI_VALUE;
 8006126:	4821      	ldr	r0, [pc, #132]	@ (80061ac <LL_RCC_GetUSARTClockFreq+0x1b8>)
  return usart_frequency;
 8006128:	e76c      	b.n	8006004 <LL_RCC_GetUSARTClockFreq+0x10>
      frequency = HSE_VALUE;
 800612a:	4825      	ldr	r0, [pc, #148]	@ (80061c0 <LL_RCC_GetUSARTClockFreq+0x1cc>)
 800612c:	e76a      	b.n	8006004 <LL_RCC_GetUSARTClockFreq+0x10>
  return (uint32_t)(READ_BIT(RCC->PLLCFGR, RCC_PLLCFGR_PLLSRC));
 800612e:	68d5      	ldr	r5, [r2, #12]
  return (uint32_t)(READ_BIT(RCC->PLLCFGR, RCC_PLLCFGR_PLLN) >>  RCC_PLLCFGR_PLLN_Pos);
 8006130:	68d0      	ldr	r0, [r2, #12]
  return (uint32_t)(READ_BIT(RCC->PLLCFGR, RCC_PLLCFGR_PLLM));
 8006132:	68d1      	ldr	r1, [r2, #12]
  return (uint32_t)(READ_BIT(RCC->PLLCFGR, RCC_PLLCFGR_PLLR));
 8006134:	68d3      	ldr	r3, [r2, #12]
      pllinputfreq = HSI_VALUE;
 8006136:	4c22      	ldr	r4, [pc, #136]	@ (80061c0 <LL_RCC_GetUSARTClockFreq+0x1cc>)
  return __LL_RCC_CALC_PLLCLK_FREQ(pllinputfreq, LL_RCC_PLL_GetDivider(),
 8006138:	f3c1 1203 	ubfx	r2, r1, #4, #4
      pllinputfreq = HSI_VALUE;
 800613c:	491b      	ldr	r1, [pc, #108]	@ (80061ac <LL_RCC_GetUSARTClockFreq+0x1b8>)
  return (uint32_t)(READ_BIT(RCC->PLLCFGR, RCC_PLLCFGR_PLLSRC));
 800613e:	f005 0503 	and.w	r5, r5, #3
  return __LL_RCC_CALC_PLLCLK_FREQ(pllinputfreq, LL_RCC_PLL_GetDivider(),
 8006142:	f3c3 6341 	ubfx	r3, r3, #25, #2
  return (uint32_t)(READ_BIT(RCC->PLLCFGR, RCC_PLLCFGR_PLLN) >>  RCC_PLLCFGR_PLLN_Pos);
 8006146:	f3c0 2006 	ubfx	r0, r0, #8, #7
 800614a:	3301      	adds	r3, #1
      pllinputfreq = HSI_VALUE;
 800614c:	2d03      	cmp	r5, #3
 800614e:	bf08      	it	eq
 8006150:	4621      	moveq	r1, r4
  return __LL_RCC_CALC_PLLCLK_FREQ(pllinputfreq, LL_RCC_PLL_GetDivider(),
 8006152:	3201      	adds	r2, #1
 8006154:	005b      	lsls	r3, r3, #1
 8006156:	fb01 f000 	mul.w	r0, r1, r0
 800615a:	fbb0 f0f2 	udiv	r0, r0, r2
 800615e:	fbb0 f0f3 	udiv	r0, r0, r3
      break;
 8006162:	e76a      	b.n	800603a <LL_RCC_GetUSARTClockFreq+0x46>
  return (uint32_t)(READ_BIT(RCC->PLLCFGR, RCC_PLLCFGR_PLLSRC));
 8006164:	68d5      	ldr	r5, [r2, #12]
  return (uint32_t)(READ_BIT(RCC->PLLCFGR, RCC_PLLCFGR_PLLN) >>  RCC_PLLCFGR_PLLN_Pos);
 8006166:	68d0      	ldr	r0, [r2, #12]
  return (uint32_t)(READ_BIT(RCC->PLLCFGR, RCC_PLLCFGR_PLLM));
 8006168:	68d1      	ldr	r1, [r2, #12]
  return (uint32_t)(READ_BIT(RCC->PLLCFGR, RCC_PLLCFGR_PLLR));
 800616a:	68d3      	ldr	r3, [r2, #12]
      pllinputfreq = HSI_VALUE;
 800616c:	4c14      	ldr	r4, [pc, #80]	@ (80061c0 <LL_RCC_GetUSARTClockFreq+0x1cc>)
  return __LL_RCC_CALC_PLLCLK_FREQ(pllinputfreq, LL_RCC_PLL_GetDivider(),
 800616e:	f3c1 1203 	ubfx	r2, r1, #4, #4
      pllinputfreq = HSI_VALUE;
 8006172:	490e      	ldr	r1, [pc, #56]	@ (80061ac <LL_RCC_GetUSARTClockFreq+0x1b8>)
  return (uint32_t)(READ_BIT(RCC->PLLCFGR, RCC_PLLCFGR_PLLSRC));
 8006174:	f005 0c03 	and.w	ip, r5, #3
  return __LL_RCC_CALC_PLLCLK_FREQ(pllinputfreq, LL_RCC_PLL_GetDivider(),
 8006178:	f3c3 6341 	ubfx	r3, r3, #25, #2
  return (uint32_t)(READ_BIT(RCC->PLLCFGR, RCC_PLLCFGR_PLLN) >>  RCC_PLLCFGR_PLLN_Pos);
 800617c:	f3c0 2006 	ubfx	r0, r0, #8, #7
 8006180:	3301      	adds	r3, #1
      pllinputfreq = HSI_VALUE;
 8006182:	f1bc 0f03 	cmp.w	ip, #3
 8006186:	bf08      	it	eq
 8006188:	4621      	moveq	r1, r4
  return __LL_RCC_CALC_PLLCLK_FREQ(pllinputfreq, LL_RCC_PLL_GetDivider(),
 800618a:	3201      	adds	r2, #1
 800618c:	005b      	lsls	r3, r3, #1
 800618e:	fb01 f000 	mul.w	r0, r1, r0
 8006192:	fbb0 f0f2 	udiv	r0, r0, r2
 8006196:	fbb0 f0f3 	udiv	r0, r0, r3
      break;
 800619a:	e77a      	b.n	8006092 <LL_RCC_GetUSARTClockFreq+0x9e>
  switch (LL_RCC_GetSysClkSource())
 800619c:	4808      	ldr	r0, [pc, #32]	@ (80061c0 <LL_RCC_GetUSARTClockFreq+0x1cc>)
 800619e:	e778      	b.n	8006092 <LL_RCC_GetUSARTClockFreq+0x9e>
 80061a0:	4807      	ldr	r0, [pc, #28]	@ (80061c0 <LL_RCC_GetUSARTClockFreq+0x1cc>)
 80061a2:	e74a      	b.n	800603a <LL_RCC_GetUSARTClockFreq+0x46>
 80061a4:	40021000 	.word	0x40021000
 80061a8:	000c0008 	.word	0x000c0008
 80061ac:	00f42400 	.word	0x00f42400
 80061b0:	0805bc40 	.word	0x0805bc40
 80061b4:	0805bc38 	.word	0x0805bc38
 80061b8:	00030002 	.word	0x00030002
 80061bc:	00300020 	.word	0x00300020
 80061c0:	007a1200 	.word	0x007a1200

080061c4 <LL_RCC_GetUARTClockFreq>:
  if (UARTxSource == LL_RCC_UART4_CLKSOURCE)
 80061c4:	28c0      	cmp	r0, #192	@ 0xc0
{
 80061c6:	b430      	push	{r4, r5}
  if (UARTxSource == LL_RCC_UART4_CLKSOURCE)
 80061c8:	d031      	beq.n	800622e <LL_RCC_GetUARTClockFreq+0x6a>
  if (UARTxSource == LL_RCC_UART5_CLKSOURCE)
 80061ca:	f5b0 7f40 	cmp.w	r0, #768	@ 0x300
 80061ce:	d12b      	bne.n	8006228 <LL_RCC_GetUARTClockFreq+0x64>
  return (uint32_t)(READ_BIT(RCC->CCIPR, UARTx) | (UARTx << 16U));
 80061d0:	4a58      	ldr	r2, [pc, #352]	@ (8006334 <LL_RCC_GetUARTClockFreq+0x170>)
    switch (LL_RCC_GetUARTClockSource(UARTxSource))
 80061d2:	4959      	ldr	r1, [pc, #356]	@ (8006338 <LL_RCC_GetUARTClockFreq+0x174>)
 80061d4:	f8d2 3088 	ldr.w	r3, [r2, #136]	@ 0x88
 80061d8:	f403 7340 	and.w	r3, r3, #768	@ 0x300
 80061dc:	f043 7340 	orr.w	r3, r3, #50331648	@ 0x3000000
 80061e0:	428b      	cmp	r3, r1
 80061e2:	d07e      	beq.n	80062e2 <LL_RCC_GetUARTClockFreq+0x11e>
 80061e4:	f1b3 2f03 	cmp.w	r3, #50332416	@ 0x3000300
 80061e8:	d074      	beq.n	80062d4 <LL_RCC_GetUARTClockFreq+0x110>
 80061ea:	f5a1 7180 	sub.w	r1, r1, #256	@ 0x100
 80061ee:	428b      	cmp	r3, r1
  return (uint32_t)(READ_BIT(RCC->CFGR, RCC_CFGR_SWS));
 80061f0:	6893      	ldr	r3, [r2, #8]
 80061f2:	f003 030c 	and.w	r3, r3, #12
 80061f6:	d04e      	beq.n	8006296 <LL_RCC_GetUARTClockFreq+0xd2>
  switch (LL_RCC_GetSysClkSource())
 80061f8:	2b08      	cmp	r3, #8
 80061fa:	d04a      	beq.n	8006292 <LL_RCC_GetUARTClockFreq+0xce>
 80061fc:	2b0c      	cmp	r3, #12
 80061fe:	d07c      	beq.n	80062fa <LL_RCC_GetUARTClockFreq+0x136>
      frequency = HSI_VALUE;
 8006200:	484e      	ldr	r0, [pc, #312]	@ (800633c <LL_RCC_GetUARTClockFreq+0x178>)
  return (uint32_t)(READ_BIT(RCC->CFGR, RCC_CFGR_HPRE));
 8006202:	4b4c      	ldr	r3, [pc, #304]	@ (8006334 <LL_RCC_GetUARTClockFreq+0x170>)
  return __LL_RCC_CALC_HCLK_FREQ(SYSCLK_Frequency, LL_RCC_GetAHBPrescaler());
 8006204:	494e      	ldr	r1, [pc, #312]	@ (8006340 <LL_RCC_GetUARTClockFreq+0x17c>)
 8006206:	689a      	ldr	r2, [r3, #8]
  return (uint32_t)(READ_BIT(RCC->CFGR, RCC_CFGR_PPRE1));
 8006208:	689b      	ldr	r3, [r3, #8]
 800620a:	f3c2 1203 	ubfx	r2, r2, #4, #4
  return __LL_RCC_CALC_PCLK1_FREQ(HCLK_Frequency, LL_RCC_GetAPB1Prescaler());
 800620e:	f3c3 2302 	ubfx	r3, r3, #8, #3
  return __LL_RCC_CALC_HCLK_FREQ(SYSCLK_Frequency, LL_RCC_GetAHBPrescaler());
 8006212:	5c8a      	ldrb	r2, [r1, r2]
  return __LL_RCC_CALC_PCLK1_FREQ(HCLK_Frequency, LL_RCC_GetAPB1Prescaler());
 8006214:	494b      	ldr	r1, [pc, #300]	@ (8006344 <LL_RCC_GetUARTClockFreq+0x180>)
 8006216:	5ccb      	ldrb	r3, [r1, r3]
  return __LL_RCC_CALC_HCLK_FREQ(SYSCLK_Frequency, LL_RCC_GetAHBPrescaler());
 8006218:	f002 021f 	and.w	r2, r2, #31
 800621c:	40d0      	lsrs	r0, r2
  return __LL_RCC_CALC_PCLK1_FREQ(HCLK_Frequency, LL_RCC_GetAPB1Prescaler());
 800621e:	f003 031f 	and.w	r3, r3, #31
 8006222:	40d8      	lsrs	r0, r3
}
 8006224:	bc30      	pop	{r4, r5}
 8006226:	4770      	bx	lr
  uint32_t uart_frequency = LL_RCC_PERIPH_FREQUENCY_NO;
 8006228:	2000      	movs	r0, #0
}
 800622a:	bc30      	pop	{r4, r5}
 800622c:	4770      	bx	lr
  return (uint32_t)(READ_BIT(RCC->CCIPR, UARTx) | (UARTx << 16U));
 800622e:	4a41      	ldr	r2, [pc, #260]	@ (8006334 <LL_RCC_GetUARTClockFreq+0x170>)
    switch (LL_RCC_GetUARTClockSource(UARTxSource))
 8006230:	4945      	ldr	r1, [pc, #276]	@ (8006348 <LL_RCC_GetUARTClockFreq+0x184>)
 8006232:	f8d2 3088 	ldr.w	r3, [r2, #136]	@ 0x88
 8006236:	f003 03c0 	and.w	r3, r3, #192	@ 0xc0
 800623a:	f443 0340 	orr.w	r3, r3, #12582912	@ 0xc00000
 800623e:	428b      	cmp	r3, r1
 8006240:	d04f      	beq.n	80062e2 <LL_RCC_GetUARTClockFreq+0x11e>
 8006242:	f1b3 1fc0 	cmp.w	r3, #12583104	@ 0xc000c0
 8006246:	d045      	beq.n	80062d4 <LL_RCC_GetUARTClockFreq+0x110>
 8006248:	3940      	subs	r1, #64	@ 0x40
 800624a:	428b      	cmp	r3, r1
  return (uint32_t)(READ_BIT(RCC->CFGR, RCC_CFGR_SWS));
 800624c:	6893      	ldr	r3, [r2, #8]
 800624e:	f003 030c 	and.w	r3, r3, #12
 8006252:	d020      	beq.n	8006296 <LL_RCC_GetUARTClockFreq+0xd2>
  switch (LL_RCC_GetSysClkSource())
 8006254:	2b08      	cmp	r3, #8
 8006256:	d01c      	beq.n	8006292 <LL_RCC_GetUARTClockFreq+0xce>
 8006258:	2b0c      	cmp	r3, #12
 800625a:	d1d1      	bne.n	8006200 <LL_RCC_GetUARTClockFreq+0x3c>
  return (uint32_t)(READ_BIT(RCC->PLLCFGR, RCC_PLLCFGR_PLLSRC));
 800625c:	68d5      	ldr	r5, [r2, #12]
  return (uint32_t)(READ_BIT(RCC->PLLCFGR, RCC_PLLCFGR_PLLN) >>  RCC_PLLCFGR_PLLN_Pos);
 800625e:	68d0      	ldr	r0, [r2, #12]
  return (uint32_t)(READ_BIT(RCC->PLLCFGR, RCC_PLLCFGR_PLLM));
 8006260:	68d1      	ldr	r1, [r2, #12]
  return (uint32_t)(READ_BIT(RCC->PLLCFGR, RCC_PLLCFGR_PLLR));
 8006262:	68d3      	ldr	r3, [r2, #12]
      pllinputfreq = HSI_VALUE;
 8006264:	4c39      	ldr	r4, [pc, #228]	@ (800634c <LL_RCC_GetUARTClockFreq+0x188>)
  return __LL_RCC_CALC_PLLCLK_FREQ(pllinputfreq, LL_RCC_PLL_GetDivider(),
 8006266:	f3c1 1203 	ubfx	r2, r1, #4, #4
      pllinputfreq = HSI_VALUE;
 800626a:	4934      	ldr	r1, [pc, #208]	@ (800633c <LL_RCC_GetUARTClockFreq+0x178>)
  return (uint32_t)(READ_BIT(RCC->PLLCFGR, RCC_PLLCFGR_PLLSRC));
 800626c:	f005 0503 	and.w	r5, r5, #3
  return __LL_RCC_CALC_PLLCLK_FREQ(pllinputfreq, LL_RCC_PLL_GetDivider(),
 8006270:	f3c3 6341 	ubfx	r3, r3, #25, #2
  return (uint32_t)(READ_BIT(RCC->PLLCFGR, RCC_PLLCFGR_PLLN) >>  RCC_PLLCFGR_PLLN_Pos);
 8006274:	f3c0 2006 	ubfx	r0, r0, #8, #7
 8006278:	3301      	adds	r3, #1
      pllinputfreq = HSI_VALUE;
 800627a:	2d03      	cmp	r5, #3
 800627c:	bf08      	it	eq
 800627e:	4621      	moveq	r1, r4
  return __LL_RCC_CALC_PLLCLK_FREQ(pllinputfreq, LL_RCC_PLL_GetDivider(),
 8006280:	3201      	adds	r2, #1
 8006282:	005b      	lsls	r3, r3, #1
 8006284:	fb01 f000 	mul.w	r0, r1, r0
 8006288:	fbb0 f0f2 	udiv	r0, r0, r2
 800628c:	fbb0 f0f3 	udiv	r0, r0, r3
      break;
 8006290:	e7b7      	b.n	8006202 <LL_RCC_GetUARTClockFreq+0x3e>
  switch (LL_RCC_GetSysClkSource())
 8006292:	482e      	ldr	r0, [pc, #184]	@ (800634c <LL_RCC_GetUARTClockFreq+0x188>)
 8006294:	e7b5      	b.n	8006202 <LL_RCC_GetUARTClockFreq+0x3e>
 8006296:	2b08      	cmp	r3, #8
 8006298:	d02d      	beq.n	80062f6 <LL_RCC_GetUARTClockFreq+0x132>
 800629a:	2b0c      	cmp	r3, #12
 800629c:	d129      	bne.n	80062f2 <LL_RCC_GetUARTClockFreq+0x12e>
  return (uint32_t)(READ_BIT(RCC->PLLCFGR, RCC_PLLCFGR_PLLSRC));
 800629e:	68d5      	ldr	r5, [r2, #12]
  return (uint32_t)(READ_BIT(RCC->PLLCFGR, RCC_PLLCFGR_PLLN) >>  RCC_PLLCFGR_PLLN_Pos);
 80062a0:	68d0      	ldr	r0, [r2, #12]
  return (uint32_t)(READ_BIT(RCC->PLLCFGR, RCC_PLLCFGR_PLLM));
 80062a2:	68d1      	ldr	r1, [r2, #12]
  return (uint32_t)(READ_BIT(RCC->PLLCFGR, RCC_PLLCFGR_PLLR));
 80062a4:	68d3      	ldr	r3, [r2, #12]
      pllinputfreq = HSI_VALUE;
 80062a6:	4c29      	ldr	r4, [pc, #164]	@ (800634c <LL_RCC_GetUARTClockFreq+0x188>)
  return __LL_RCC_CALC_PLLCLK_FREQ(pllinputfreq, LL_RCC_PLL_GetDivider(),
 80062a8:	f3c1 1203 	ubfx	r2, r1, #4, #4
      pllinputfreq = HSI_VALUE;
 80062ac:	4923      	ldr	r1, [pc, #140]	@ (800633c <LL_RCC_GetUARTClockFreq+0x178>)
  return (uint32_t)(READ_BIT(RCC->PLLCFGR, RCC_PLLCFGR_PLLSRC));
 80062ae:	f005 0503 	and.w	r5, r5, #3
  return __LL_RCC_CALC_PLLCLK_FREQ(pllinputfreq, LL_RCC_PLL_GetDivider(),
 80062b2:	f3c3 6341 	ubfx	r3, r3, #25, #2
  return (uint32_t)(READ_BIT(RCC->PLLCFGR, RCC_PLLCFGR_PLLN) >>  RCC_PLLCFGR_PLLN_Pos);
 80062b6:	f3c0 2006 	ubfx	r0, r0, #8, #7
 80062ba:	3301      	adds	r3, #1
      pllinputfreq = HSI_VALUE;
 80062bc:	2d03      	cmp	r5, #3
 80062be:	bf08      	it	eq
 80062c0:	4621      	moveq	r1, r4
  return __LL_RCC_CALC_PLLCLK_FREQ(pllinputfreq, LL_RCC_PLL_GetDivider(),
 80062c2:	3201      	adds	r2, #1
 80062c4:	005b      	lsls	r3, r3, #1
 80062c6:	fb01 f000 	mul.w	r0, r1, r0
 80062ca:	fbb0 f0f2 	udiv	r0, r0, r2
 80062ce:	fbb0 f0f3 	udiv	r0, r0, r3
      break;
 80062d2:	e7aa      	b.n	800622a <LL_RCC_GetUARTClockFreq+0x66>
  return ((READ_BIT(RCC->BDCR, RCC_BDCR_LSERDY) == (RCC_BDCR_LSERDY)) ? 1UL : 0UL);
 80062d4:	f8d2 0090 	ldr.w	r0, [r2, #144]	@ 0x90
 80062d8:	f3c0 0040 	ubfx	r0, r0, #1, #1
 80062dc:	03c0      	lsls	r0, r0, #15
}
 80062de:	bc30      	pop	{r4, r5}
 80062e0:	4770      	bx	lr
  return ((READ_BIT(RCC->CR, RCC_CR_HSIRDY) == (RCC_CR_HSIRDY)) ? 1UL : 0UL);
 80062e2:	6810      	ldr	r0, [r2, #0]
 80062e4:	4b15      	ldr	r3, [pc, #84]	@ (800633c <LL_RCC_GetUARTClockFreq+0x178>)
 80062e6:	f410 6080 	ands.w	r0, r0, #1024	@ 0x400
 80062ea:	bf18      	it	ne
 80062ec:	4618      	movne	r0, r3
 80062ee:	bc30      	pop	{r4, r5}
 80062f0:	4770      	bx	lr
  switch (LL_RCC_GetSysClkSource())
 80062f2:	4812      	ldr	r0, [pc, #72]	@ (800633c <LL_RCC_GetUARTClockFreq+0x178>)
  return uart_frequency;
 80062f4:	e799      	b.n	800622a <LL_RCC_GetUARTClockFreq+0x66>
      frequency = HSE_VALUE;
 80062f6:	4815      	ldr	r0, [pc, #84]	@ (800634c <LL_RCC_GetUARTClockFreq+0x188>)
 80062f8:	e797      	b.n	800622a <LL_RCC_GetUARTClockFreq+0x66>
  return (uint32_t)(READ_BIT(RCC->PLLCFGR, RCC_PLLCFGR_PLLSRC));
 80062fa:	68d5      	ldr	r5, [r2, #12]
  return (uint32_t)(READ_BIT(RCC->PLLCFGR, RCC_PLLCFGR_PLLN) >>  RCC_PLLCFGR_PLLN_Pos);
 80062fc:	68d0      	ldr	r0, [r2, #12]
  return (uint32_t)(READ_BIT(RCC->PLLCFGR, RCC_PLLCFGR_PLLM));
 80062fe:	68d1      	ldr	r1, [r2, #12]
  return (uint32_t)(READ_BIT(RCC->PLLCFGR, RCC_PLLCFGR_PLLR));
 8006300:	68d3      	ldr	r3, [r2, #12]
      pllinputfreq = HSI_VALUE;
 8006302:	4c12      	ldr	r4, [pc, #72]	@ (800634c <LL_RCC_GetUARTClockFreq+0x188>)
  return __LL_RCC_CALC_PLLCLK_FREQ(pllinputfreq, LL_RCC_PLL_GetDivider(),
 8006304:	f3c1 1203 	ubfx	r2, r1, #4, #4
      pllinputfreq = HSI_VALUE;
 8006308:	490c      	ldr	r1, [pc, #48]	@ (800633c <LL_RCC_GetUARTClockFreq+0x178>)
  return (uint32_t)(READ_BIT(RCC->PLLCFGR, RCC_PLLCFGR_PLLSRC));
 800630a:	f005 0c03 	and.w	ip, r5, #3
  return __LL_RCC_CALC_PLLCLK_FREQ(pllinputfreq, LL_RCC_PLL_GetDivider(),
 800630e:	f3c3 6341 	ubfx	r3, r3, #25, #2
  return (uint32_t)(READ_BIT(RCC->PLLCFGR, RCC_PLLCFGR_PLLN) >>  RCC_PLLCFGR_PLLN_Pos);
 8006312:	f3c0 2006 	ubfx	r0, r0, #8, #7
 8006316:	3301      	adds	r3, #1
      pllinputfreq = HSI_VALUE;
 8006318:	f1bc 0f03 	cmp.w	ip, #3
 800631c:	bf08      	it	eq
 800631e:	4621      	moveq	r1, r4
  return __LL_RCC_CALC_PLLCLK_FREQ(pllinputfreq, LL_RCC_PLL_GetDivider(),
 8006320:	3201      	adds	r2, #1
 8006322:	005b      	lsls	r3, r3, #1
 8006324:	fb01 f000 	mul.w	r0, r1, r0
 8006328:	fbb0 f0f2 	udiv	r0, r0, r2
 800632c:	fbb0 f0f3 	udiv	r0, r0, r3
      break;
 8006330:	e767      	b.n	8006202 <LL_RCC_GetUARTClockFreq+0x3e>
 8006332:	bf00      	nop
 8006334:	40021000 	.word	0x40021000
 8006338:	03000200 	.word	0x03000200
 800633c:	00f42400 	.word	0x00f42400
 8006340:	0805bc40 	.word	0x0805bc40
 8006344:	0805bc38 	.word	0x0805bc38
 8006348:	00c00080 	.word	0x00c00080
 800634c:	007a1200 	.word	0x007a1200

08006350 <LL_TIM_Init>:
  * @retval An ErrorStatus enumeration value:
  *          - SUCCESS: TIMx registers are de-initialized
  *          - ERROR: not applicable
  */
ErrorStatus LL_TIM_Init(TIM_TypeDef *TIMx, const LL_TIM_InitTypeDef *TIM_InitStruct)
{
 8006350:	b430      	push	{r4, r5}
  assert_param(IS_LL_TIM_COUNTERMODE(TIM_InitStruct->CounterMode));
  assert_param(IS_LL_TIM_CLOCKDIVISION(TIM_InitStruct->ClockDivision));

  tmpcr1 = LL_TIM_ReadReg(TIMx, CR1);

  if (IS_TIM_COUNTER_MODE_SELECT_INSTANCE(TIMx))
 8006352:	4d32      	ldr	r5, [pc, #200]	@ (800641c <LL_TIM_Init+0xcc>)

  /* Write to TIMx CR1 */
  LL_TIM_WriteReg(TIMx, CR1, tmpcr1);

  /* Set the Autoreload value */
  LL_TIM_SetAutoReload(TIMx, TIM_InitStruct->Autoreload);
 8006354:	688c      	ldr	r4, [r1, #8]
  tmpcr1 = LL_TIM_ReadReg(TIMx, CR1);
 8006356:	6803      	ldr	r3, [r0, #0]

  /* Set the Prescaler value */
  LL_TIM_SetPrescaler(TIMx, TIM_InitStruct->Prescaler);
 8006358:	880a      	ldrh	r2, [r1, #0]
  if (IS_TIM_COUNTER_MODE_SELECT_INSTANCE(TIMx))
 800635a:	42a8      	cmp	r0, r5
 800635c:	d049      	beq.n	80063f2 <LL_TIM_Init+0xa2>
 800635e:	f1b0 4f80 	cmp.w	r0, #1073741824	@ 0x40000000
 8006362:	d023      	beq.n	80063ac <LL_TIM_Init+0x5c>
 8006364:	f5a5 3594 	sub.w	r5, r5, #75776	@ 0x12800
 8006368:	42a8      	cmp	r0, r5
 800636a:	d01f      	beq.n	80063ac <LL_TIM_Init+0x5c>
 800636c:	f505 6580 	add.w	r5, r5, #1024	@ 0x400
 8006370:	42a8      	cmp	r0, r5
 8006372:	d01b      	beq.n	80063ac <LL_TIM_Init+0x5c>
 8006374:	f505 6580 	add.w	r5, r5, #1024	@ 0x400
 8006378:	42a8      	cmp	r0, r5
 800637a:	d017      	beq.n	80063ac <LL_TIM_Init+0x5c>
 800637c:	f505 3594 	add.w	r5, r5, #75776	@ 0x12800
 8006380:	42a8      	cmp	r0, r5
 8006382:	d036      	beq.n	80063f2 <LL_TIM_Init+0xa2>
 8006384:	f505 55e0 	add.w	r5, r5, #7168	@ 0x1c00
 8006388:	42a8      	cmp	r0, r5
 800638a:	d032      	beq.n	80063f2 <LL_TIM_Init+0xa2>
  if (IS_TIM_CLOCK_DIVISION_INSTANCE(TIMx))
 800638c:	f5a5 5580 	sub.w	r5, r5, #4096	@ 0x1000
 8006390:	42a8      	cmp	r0, r5
 8006392:	d032      	beq.n	80063fa <LL_TIM_Init+0xaa>
 8006394:	f505 6580 	add.w	r5, r5, #1024	@ 0x400
 8006398:	42a8      	cmp	r0, r5
 800639a:	d02e      	beq.n	80063fa <LL_TIM_Init+0xaa>
 800639c:	f505 6580 	add.w	r5, r5, #1024	@ 0x400
 80063a0:	42a8      	cmp	r0, r5
 80063a2:	d032      	beq.n	800640a <LL_TIM_Init+0xba>
  LL_TIM_WriteReg(TIMx, CR1, tmpcr1);
 80063a4:	6003      	str	r3, [r0, #0]
  WRITE_REG(TIMx->ARR, AutoReload);
 80063a6:	62c4      	str	r4, [r0, #44]	@ 0x2c
  WRITE_REG(TIMx->PSC, Prescaler);
 80063a8:	6282      	str	r2, [r0, #40]	@ 0x28

  if (IS_TIM_REPETITION_COUNTER_INSTANCE(TIMx))
 80063aa:	e01b      	b.n	80063e4 <LL_TIM_Init+0x94>
    MODIFY_REG(tmpcr1, (TIM_CR1_DIR | TIM_CR1_CMS), TIM_InitStruct->CounterMode);
 80063ac:	684d      	ldr	r5, [r1, #4]
 80063ae:	f023 0370 	bic.w	r3, r3, #112	@ 0x70
 80063b2:	432b      	orrs	r3, r5
    MODIFY_REG(tmpcr1, TIM_CR1_CKD, TIM_InitStruct->ClockDivision);
 80063b4:	68cd      	ldr	r5, [r1, #12]
 80063b6:	f423 7340 	bic.w	r3, r3, #768	@ 0x300
 80063ba:	432b      	orrs	r3, r5
  LL_TIM_WriteReg(TIMx, CR1, tmpcr1);
 80063bc:	6003      	str	r3, [r0, #0]
  if (IS_TIM_REPETITION_COUNTER_INSTANCE(TIMx))
 80063be:	4b18      	ldr	r3, [pc, #96]	@ (8006420 <LL_TIM_Init+0xd0>)
  WRITE_REG(TIMx->ARR, AutoReload);
 80063c0:	62c4      	str	r4, [r0, #44]	@ 0x2c
 80063c2:	4298      	cmp	r0, r3
  WRITE_REG(TIMx->PSC, Prescaler);
 80063c4:	6282      	str	r2, [r0, #40]	@ 0x28
 80063c6:	d00b      	beq.n	80063e0 <LL_TIM_Init+0x90>
 80063c8:	f503 6380 	add.w	r3, r3, #1024	@ 0x400
 80063cc:	4298      	cmp	r0, r3
 80063ce:	d007      	beq.n	80063e0 <LL_TIM_Init+0x90>
 80063d0:	f503 6380 	add.w	r3, r3, #1024	@ 0x400
 80063d4:	4298      	cmp	r0, r3
 80063d6:	d003      	beq.n	80063e0 <LL_TIM_Init+0x90>
 80063d8:	f503 6300 	add.w	r3, r3, #2048	@ 0x800
 80063dc:	4298      	cmp	r0, r3
 80063de:	d101      	bne.n	80063e4 <LL_TIM_Init+0x94>
  {
    /* Set the Repetition Counter value */
    LL_TIM_SetRepetitionCounter(TIMx, TIM_InitStruct->RepetitionCounter);
 80063e0:	690b      	ldr	r3, [r1, #16]
  WRITE_REG(TIMx->RCR, RepetitionCounter);
 80063e2:	6303      	str	r3, [r0, #48]	@ 0x30
  * @param  TIMx Timer instance
  * @retval None
  */
__STATIC_INLINE void LL_TIM_GenerateEvent_UPDATE(TIM_TypeDef *TIMx)
{
  SET_BIT(TIMx->EGR, TIM_EGR_UG);
 80063e4:	6943      	ldr	r3, [r0, #20]
 80063e6:	f043 0301 	orr.w	r3, r3, #1
 80063ea:	6143      	str	r3, [r0, #20]
  /* Generate an update event to reload the Prescaler
     and the repetition counter value (if applicable) immediately */
  LL_TIM_GenerateEvent_UPDATE(TIMx);

  return SUCCESS;
}
 80063ec:	bc30      	pop	{r4, r5}
 80063ee:	2000      	movs	r0, #0
 80063f0:	4770      	bx	lr
    MODIFY_REG(tmpcr1, (TIM_CR1_DIR | TIM_CR1_CMS), TIM_InitStruct->CounterMode);
 80063f2:	684d      	ldr	r5, [r1, #4]
 80063f4:	f023 0370 	bic.w	r3, r3, #112	@ 0x70
 80063f8:	432b      	orrs	r3, r5
    MODIFY_REG(tmpcr1, TIM_CR1_CKD, TIM_InitStruct->ClockDivision);
 80063fa:	68cd      	ldr	r5, [r1, #12]
 80063fc:	f423 7340 	bic.w	r3, r3, #768	@ 0x300
 8006400:	432b      	orrs	r3, r5
  LL_TIM_WriteReg(TIMx, CR1, tmpcr1);
 8006402:	6003      	str	r3, [r0, #0]
  WRITE_REG(TIMx->ARR, AutoReload);
 8006404:	62c4      	str	r4, [r0, #44]	@ 0x2c
  WRITE_REG(TIMx->PSC, Prescaler);
 8006406:	6282      	str	r2, [r0, #40]	@ 0x28
  if (IS_TIM_REPETITION_COUNTER_INSTANCE(TIMx))
 8006408:	e7ea      	b.n	80063e0 <LL_TIM_Init+0x90>
    MODIFY_REG(tmpcr1, TIM_CR1_CKD, TIM_InitStruct->ClockDivision);
 800640a:	68cd      	ldr	r5, [r1, #12]
 800640c:	f423 7340 	bic.w	r3, r3, #768	@ 0x300
 8006410:	432b      	orrs	r3, r5
  LL_TIM_WriteReg(TIMx, CR1, tmpcr1);
 8006412:	4d04      	ldr	r5, [pc, #16]	@ (8006424 <LL_TIM_Init+0xd4>)
 8006414:	602b      	str	r3, [r5, #0]
  WRITE_REG(TIMx->ARR, AutoReload);
 8006416:	62ec      	str	r4, [r5, #44]	@ 0x2c
  WRITE_REG(TIMx->PSC, Prescaler);
 8006418:	62aa      	str	r2, [r5, #40]	@ 0x28
  if (IS_TIM_REPETITION_COUNTER_INSTANCE(TIMx))
 800641a:	e7e1      	b.n	80063e0 <LL_TIM_Init+0x90>
 800641c:	40012c00 	.word	0x40012c00
 8006420:	40014000 	.word	0x40014000
 8006424:	40014800 	.word	0x40014800

08006428 <LL_TIM_OC_Init>:
  */
ErrorStatus LL_TIM_OC_Init(TIM_TypeDef *TIMx, uint32_t Channel, const LL_TIM_OC_InitTypeDef *TIM_OC_InitStruct)
{
  ErrorStatus result = ERROR;

  switch (Channel)
 8006428:	f5b1 5f80 	cmp.w	r1, #4096	@ 0x1000
{
 800642c:	b430      	push	{r4, r5}
  switch (Channel)
 800642e:	f000 8118 	beq.w	8006662 <LL_TIM_OC_Init+0x23a>
 8006432:	d84e      	bhi.n	80064d2 <LL_TIM_OC_Init+0xaa>
 8006434:	2910      	cmp	r1, #16
 8006436:	f000 815f 	beq.w	80066f8 <LL_TIM_OC_Init+0x2d0>
 800643a:	f5b1 7f80 	cmp.w	r1, #256	@ 0x100
 800643e:	f040 808a 	bne.w	8006556 <LL_TIM_OC_Init+0x12e>
  assert_param(IS_LL_TIM_OCMODE(TIM_OCInitStruct->OCMode));
  assert_param(IS_LL_TIM_OCSTATE(TIM_OCInitStruct->OCState));
  assert_param(IS_LL_TIM_OCPOLARITY(TIM_OCInitStruct->OCPolarity));

  /* Disable the Channel 3: Reset the CC3E Bit */
  CLEAR_BIT(TIMx->CCER, TIM_CCER_CC3E);
 8006442:	6a03      	ldr	r3, [r0, #32]

  /* Select the Output Compare Mode */
  MODIFY_REG(tmpccmr2, TIM_CCMR2_OC3M, TIM_OCInitStruct->OCMode);

  /* Set the Output Compare Polarity */
  MODIFY_REG(tmpccer, TIM_CCER_CC3P, TIM_OCInitStruct->OCPolarity << 8U);
 8006444:	6915      	ldr	r5, [r2, #16]
  CLEAR_BIT(TIMx->CCER, TIM_CCER_CC3E);
 8006446:	f423 7380 	bic.w	r3, r3, #256	@ 0x100
 800644a:	6203      	str	r3, [r0, #32]
  tmpccer =  LL_TIM_ReadReg(TIMx, CCER);
 800644c:	6a03      	ldr	r3, [r0, #32]
  tmpcr2 = LL_TIM_ReadReg(TIMx, CR2);
 800644e:	6841      	ldr	r1, [r0, #4]
  tmpccmr2 = LL_TIM_ReadReg(TIMx, CCMR2);
 8006450:	69c4      	ldr	r4, [r0, #28]
  MODIFY_REG(tmpccer, TIM_CCER_CC3P, TIM_OCInitStruct->OCPolarity << 8U);
 8006452:	f423 7300 	bic.w	r3, r3, #512	@ 0x200
 8006456:	ea43 2305 	orr.w	r3, r3, r5, lsl #8
  MODIFY_REG(tmpccmr2, TIM_CCMR2_OC3M, TIM_OCInitStruct->OCMode);
 800645a:	f424 3480 	bic.w	r4, r4, #65536	@ 0x10000
 800645e:	6815      	ldr	r5, [r2, #0]
 8006460:	f024 0473 	bic.w	r4, r4, #115	@ 0x73
 8006464:	432c      	orrs	r4, r5

  /* Set the Output State */
  MODIFY_REG(tmpccer, TIM_CCER_CC3E, TIM_OCInitStruct->OCState << 8U);
 8006466:	6855      	ldr	r5, [r2, #4]
 8006468:	f423 7380 	bic.w	r3, r3, #256	@ 0x100
 800646c:	ea43 2305 	orr.w	r3, r3, r5, lsl #8

  if (IS_TIM_BREAK_INSTANCE(TIMx))
 8006470:	4da0      	ldr	r5, [pc, #640]	@ (80066f4 <LL_TIM_OC_Init+0x2cc>)
 8006472:	42a8      	cmp	r0, r5
 8006474:	d013      	beq.n	800649e <LL_TIM_OC_Init+0x76>
 8006476:	f505 6500 	add.w	r5, r5, #2048	@ 0x800
 800647a:	42a8      	cmp	r0, r5
 800647c:	d00f      	beq.n	800649e <LL_TIM_OC_Init+0x76>
 800647e:	f505 6540 	add.w	r5, r5, #3072	@ 0xc00
 8006482:	42a8      	cmp	r0, r5
 8006484:	d00b      	beq.n	800649e <LL_TIM_OC_Init+0x76>
 8006486:	f505 6580 	add.w	r5, r5, #1024	@ 0x400
 800648a:	42a8      	cmp	r0, r5
 800648c:	d007      	beq.n	800649e <LL_TIM_OC_Init+0x76>
 800648e:	f505 6580 	add.w	r5, r5, #1024	@ 0x400
 8006492:	42a8      	cmp	r0, r5
 8006494:	d003      	beq.n	800649e <LL_TIM_OC_Init+0x76>
 8006496:	f505 6500 	add.w	r5, r5, #2048	@ 0x800
 800649a:	42a8      	cmp	r0, r5
 800649c:	d113      	bne.n	80064c6 <LL_TIM_OC_Init+0x9e>
    assert_param(IS_LL_TIM_OCSTATE(TIM_OCInitStruct->OCNState));
    assert_param(IS_LL_TIM_OCPOLARITY(TIM_OCInitStruct->OCNPolarity));
    assert_param(IS_LL_TIM_OCIDLESTATE(TIM_OCInitStruct->OCNIdleState));

    /* Set the complementary output Polarity */
    MODIFY_REG(tmpccer, TIM_CCER_CC3NP, TIM_OCInitStruct->OCNPolarity << 10U);
 800649e:	6955      	ldr	r5, [r2, #20]
 80064a0:	f423 6300 	bic.w	r3, r3, #2048	@ 0x800
 80064a4:	ea43 2385 	orr.w	r3, r3, r5, lsl #10

    /* Set the complementary output State */
    MODIFY_REG(tmpccer, TIM_CCER_CC3NE, TIM_OCInitStruct->OCNState << 10U);

    /* Set the Output Idle state */
    MODIFY_REG(tmpcr2, TIM_CR2_OIS3, TIM_OCInitStruct->OCIdleState << 4U);
 80064a8:	6995      	ldr	r5, [r2, #24]
 80064aa:	f421 5180 	bic.w	r1, r1, #4096	@ 0x1000
 80064ae:	ea41 1105 	orr.w	r1, r1, r5, lsl #4
    MODIFY_REG(tmpccer, TIM_CCER_CC3NE, TIM_OCInitStruct->OCNState << 10U);
 80064b2:	6895      	ldr	r5, [r2, #8]
 80064b4:	f423 6380 	bic.w	r3, r3, #1024	@ 0x400
 80064b8:	ea43 2385 	orr.w	r3, r3, r5, lsl #10

    /* Set the complementary output Idle state */
    MODIFY_REG(tmpcr2, TIM_CR2_OIS3N, TIM_OCInitStruct->OCNIdleState << 5U);
 80064bc:	69d5      	ldr	r5, [r2, #28]
 80064be:	f421 5100 	bic.w	r1, r1, #8192	@ 0x2000
 80064c2:	ea41 1145 	orr.w	r1, r1, r5, lsl #5

  /* Write to TIMx CCMR2 */
  LL_TIM_WriteReg(TIMx, CCMR2, tmpccmr2);

  /* Set the Capture Compare Register value */
  LL_TIM_OC_SetCompareCH3(TIMx, TIM_OCInitStruct->CompareValue);
 80064c6:	68d2      	ldr	r2, [r2, #12]
  LL_TIM_WriteReg(TIMx, CR2, tmpcr2);
 80064c8:	6041      	str	r1, [r0, #4]
  LL_TIM_WriteReg(TIMx, CCMR2, tmpccmr2);
 80064ca:	61c4      	str	r4, [r0, #28]
  WRITE_REG(TIMx->CCR3, CompareValue);
 80064cc:	63c2      	str	r2, [r0, #60]	@ 0x3c

  /* Write to TIMx CCER */
  LL_TIM_WriteReg(TIMx, CCER, tmpccer);
 80064ce:	6203      	str	r3, [r0, #32]
      break;
 80064d0:	e087      	b.n	80065e2 <LL_TIM_OC_Init+0x1ba>
  switch (Channel)
 80064d2:	f5b1 3f80 	cmp.w	r1, #65536	@ 0x10000
 80064d6:	f000 808a 	beq.w	80065ee <LL_TIM_OC_Init+0x1c6>
 80064da:	f5b1 1f80 	cmp.w	r1, #1048576	@ 0x100000
 80064de:	f040 8083 	bne.w	80065e8 <LL_TIM_OC_Init+0x1c0>
  assert_param(IS_LL_TIM_OCPOLARITY(TIM_OCInitStruct->OCPolarity));
  assert_param(IS_LL_TIM_OCPOLARITY(TIM_OCInitStruct->OCNPolarity));
  assert_param(IS_LL_TIM_OCSTATE(TIM_OCInitStruct->OCNState));

  /* Disable the Channel 5: Reset the CC6E Bit */
  CLEAR_BIT(TIMx->CCER, TIM_CCER_CC6E);
 80064e2:	6a03      	ldr	r3, [r0, #32]

  /* Get the TIMx CCMR3 register value */
  tmpccmr3 = LL_TIM_ReadReg(TIMx, CCMR3);

  /* Select the Output Compare Mode */
  MODIFY_REG(tmpccmr3, TIM_CCMR3_OC6M, TIM_OCInitStruct->OCMode << 8U);
 80064e4:	6814      	ldr	r4, [r2, #0]
  CLEAR_BIT(TIMx->CCER, TIM_CCER_CC6E);
 80064e6:	f423 1380 	bic.w	r3, r3, #1048576	@ 0x100000
 80064ea:	6203      	str	r3, [r0, #32]
  tmpccer = LL_TIM_ReadReg(TIMx, CCER);
 80064ec:	6a03      	ldr	r3, [r0, #32]
  tmpccmr3 = LL_TIM_ReadReg(TIMx, CCMR3);
 80064ee:	6d01      	ldr	r1, [r0, #80]	@ 0x50
  MODIFY_REG(tmpccmr3, TIM_CCMR3_OC6M, TIM_OCInitStruct->OCMode << 8U);
 80064f0:	f021 7180 	bic.w	r1, r1, #16777216	@ 0x1000000
 80064f4:	f421 41e0 	bic.w	r1, r1, #28672	@ 0x7000
 80064f8:	ea41 2104 	orr.w	r1, r1, r4, lsl #8

  /* Set the Output Compare Polarity */
  MODIFY_REG(tmpccer, TIM_CCER_CC6P, TIM_OCInitStruct->OCPolarity << 20U);
 80064fc:	6914      	ldr	r4, [r2, #16]
 80064fe:	f423 1300 	bic.w	r3, r3, #2097152	@ 0x200000
 8006502:	ea43 5304 	orr.w	r3, r3, r4, lsl #20

  /* Set the Output State */
  MODIFY_REG(tmpccer, TIM_CCER_CC6E, TIM_OCInitStruct->OCState << 20U);
 8006506:	6854      	ldr	r4, [r2, #4]
 8006508:	f423 1380 	bic.w	r3, r3, #1048576	@ 0x100000
 800650c:	ea43 5304 	orr.w	r3, r3, r4, lsl #20

  if (IS_TIM_BREAK_INSTANCE(TIMx))
 8006510:	4c78      	ldr	r4, [pc, #480]	@ (80066f4 <LL_TIM_OC_Init+0x2cc>)
 8006512:	42a0      	cmp	r0, r4
 8006514:	d013      	beq.n	800653e <LL_TIM_OC_Init+0x116>
 8006516:	f504 6400 	add.w	r4, r4, #2048	@ 0x800
 800651a:	42a0      	cmp	r0, r4
 800651c:	d00f      	beq.n	800653e <LL_TIM_OC_Init+0x116>
 800651e:	f504 6440 	add.w	r4, r4, #3072	@ 0xc00
 8006522:	42a0      	cmp	r0, r4
 8006524:	d00b      	beq.n	800653e <LL_TIM_OC_Init+0x116>
 8006526:	f504 6480 	add.w	r4, r4, #1024	@ 0x400
 800652a:	42a0      	cmp	r0, r4
 800652c:	d007      	beq.n	800653e <LL_TIM_OC_Init+0x116>
 800652e:	f504 6480 	add.w	r4, r4, #1024	@ 0x400
 8006532:	42a0      	cmp	r0, r4
 8006534:	d003      	beq.n	800653e <LL_TIM_OC_Init+0x116>
 8006536:	f504 6400 	add.w	r4, r4, #2048	@ 0x800
 800653a:	42a0      	cmp	r0, r4
 800653c:	d106      	bne.n	800654c <LL_TIM_OC_Init+0x124>
  {
    assert_param(IS_LL_TIM_OCIDLESTATE(TIM_OCInitStruct->OCNIdleState));
    assert_param(IS_LL_TIM_OCIDLESTATE(TIM_OCInitStruct->OCIdleState));

    /* Set the Output Idle state */
    MODIFY_REG(TIMx->CR2, TIM_CR2_OIS6, TIM_OCInitStruct->OCIdleState << 10U);
 800653e:	6844      	ldr	r4, [r0, #4]
 8006540:	6995      	ldr	r5, [r2, #24]
 8006542:	f424 2480 	bic.w	r4, r4, #262144	@ 0x40000
 8006546:	ea44 2485 	orr.w	r4, r4, r5, lsl #10
 800654a:	6044      	str	r4, [r0, #4]

  /* Write to TIMx CCMR3 */
  LL_TIM_WriteReg(TIMx, CCMR3, tmpccmr3);

  /* Set the Capture Compare Register value */
  LL_TIM_OC_SetCompareCH6(TIMx, TIM_OCInitStruct->CompareValue);
 800654c:	68d2      	ldr	r2, [r2, #12]
  LL_TIM_WriteReg(TIMx, CCMR3, tmpccmr3);
 800654e:	6501      	str	r1, [r0, #80]	@ 0x50
  WRITE_REG(TIMx->CCR6, CompareValue);
 8006550:	64c2      	str	r2, [r0, #76]	@ 0x4c

  /* Write to TIMx CCER */
  LL_TIM_WriteReg(TIMx, CCER, tmpccer);
 8006552:	6203      	str	r3, [r0, #32]
      break;
 8006554:	e045      	b.n	80065e2 <LL_TIM_OC_Init+0x1ba>
  switch (Channel)
 8006556:	2901      	cmp	r1, #1
 8006558:	d146      	bne.n	80065e8 <LL_TIM_OC_Init+0x1c0>
  CLEAR_BIT(TIMx->CCER, TIM_CCER_CC1E);
 800655a:	6a03      	ldr	r3, [r0, #32]
  MODIFY_REG(tmpccer, TIM_CCER_CC1P, TIM_OCInitStruct->OCPolarity);
 800655c:	6915      	ldr	r5, [r2, #16]
  CLEAR_BIT(TIMx->CCER, TIM_CCER_CC1E);
 800655e:	f023 0301 	bic.w	r3, r3, #1
 8006562:	6203      	str	r3, [r0, #32]
  tmpccer = LL_TIM_ReadReg(TIMx, CCER);
 8006564:	6a03      	ldr	r3, [r0, #32]
  tmpcr2 = LL_TIM_ReadReg(TIMx, CR2);
 8006566:	6841      	ldr	r1, [r0, #4]
  tmpccmr1 = LL_TIM_ReadReg(TIMx, CCMR1);
 8006568:	6984      	ldr	r4, [r0, #24]
  MODIFY_REG(tmpccer, TIM_CCER_CC1P, TIM_OCInitStruct->OCPolarity);
 800656a:	f023 0302 	bic.w	r3, r3, #2
 800656e:	432b      	orrs	r3, r5
  MODIFY_REG(tmpccmr1, TIM_CCMR1_OC1M, TIM_OCInitStruct->OCMode);
 8006570:	f424 3480 	bic.w	r4, r4, #65536	@ 0x10000
 8006574:	6815      	ldr	r5, [r2, #0]
 8006576:	f024 0473 	bic.w	r4, r4, #115	@ 0x73
 800657a:	432c      	orrs	r4, r5
  MODIFY_REG(tmpccer, TIM_CCER_CC1E, TIM_OCInitStruct->OCState);
 800657c:	6855      	ldr	r5, [r2, #4]
 800657e:	f023 0301 	bic.w	r3, r3, #1
 8006582:	432b      	orrs	r3, r5
  if (IS_TIM_BREAK_INSTANCE(TIMx))
 8006584:	4d5b      	ldr	r5, [pc, #364]	@ (80066f4 <LL_TIM_OC_Init+0x2cc>)
 8006586:	42a8      	cmp	r0, r5
 8006588:	d013      	beq.n	80065b2 <LL_TIM_OC_Init+0x18a>
 800658a:	f505 6500 	add.w	r5, r5, #2048	@ 0x800
 800658e:	42a8      	cmp	r0, r5
 8006590:	d00f      	beq.n	80065b2 <LL_TIM_OC_Init+0x18a>
 8006592:	f505 6540 	add.w	r5, r5, #3072	@ 0xc00
 8006596:	42a8      	cmp	r0, r5
 8006598:	d00b      	beq.n	80065b2 <LL_TIM_OC_Init+0x18a>
 800659a:	f505 6580 	add.w	r5, r5, #1024	@ 0x400
 800659e:	42a8      	cmp	r0, r5
 80065a0:	d007      	beq.n	80065b2 <LL_TIM_OC_Init+0x18a>
 80065a2:	f505 6580 	add.w	r5, r5, #1024	@ 0x400
 80065a6:	42a8      	cmp	r0, r5
 80065a8:	d003      	beq.n	80065b2 <LL_TIM_OC_Init+0x18a>
 80065aa:	f505 6500 	add.w	r5, r5, #2048	@ 0x800
 80065ae:	42a8      	cmp	r0, r5
 80065b0:	d112      	bne.n	80065d8 <LL_TIM_OC_Init+0x1b0>
    MODIFY_REG(tmpccer, TIM_CCER_CC1NP, TIM_OCInitStruct->OCNPolarity << 2U);
 80065b2:	6955      	ldr	r5, [r2, #20]
 80065b4:	f023 0308 	bic.w	r3, r3, #8
 80065b8:	ea43 0385 	orr.w	r3, r3, r5, lsl #2
    MODIFY_REG(tmpcr2, TIM_CR2_OIS1, TIM_OCInitStruct->OCIdleState);
 80065bc:	6995      	ldr	r5, [r2, #24]
 80065be:	f421 7180 	bic.w	r1, r1, #256	@ 0x100
 80065c2:	4329      	orrs	r1, r5
    MODIFY_REG(tmpccer, TIM_CCER_CC1NE, TIM_OCInitStruct->OCNState << 2U);
 80065c4:	6895      	ldr	r5, [r2, #8]
 80065c6:	f023 0304 	bic.w	r3, r3, #4
 80065ca:	ea43 0385 	orr.w	r3, r3, r5, lsl #2
    MODIFY_REG(tmpcr2, TIM_CR2_OIS1N, TIM_OCInitStruct->OCNIdleState << 1U);
 80065ce:	69d5      	ldr	r5, [r2, #28]
 80065d0:	f421 7100 	bic.w	r1, r1, #512	@ 0x200
 80065d4:	ea41 0145 	orr.w	r1, r1, r5, lsl #1
  LL_TIM_OC_SetCompareCH1(TIMx, TIM_OCInitStruct->CompareValue);
 80065d8:	68d2      	ldr	r2, [r2, #12]
  LL_TIM_WriteReg(TIMx, CR2, tmpcr2);
 80065da:	6041      	str	r1, [r0, #4]
  LL_TIM_WriteReg(TIMx, CCMR1, tmpccmr1);
 80065dc:	6184      	str	r4, [r0, #24]
  WRITE_REG(TIMx->CCR1, CompareValue);
 80065de:	6342      	str	r2, [r0, #52]	@ 0x34
  LL_TIM_WriteReg(TIMx, CCER, tmpccer);
 80065e0:	6203      	str	r3, [r0, #32]
      result = OC1Config(TIMx, TIM_OC_InitStruct);
 80065e2:	2000      	movs	r0, #0
}
 80065e4:	bc30      	pop	{r4, r5}
 80065e6:	4770      	bx	lr
  switch (Channel)
 80065e8:	2001      	movs	r0, #1
}
 80065ea:	bc30      	pop	{r4, r5}
 80065ec:	4770      	bx	lr
  CLEAR_BIT(TIMx->CCER, TIM_CCER_CC5E);
 80065ee:	6a03      	ldr	r3, [r0, #32]
  MODIFY_REG(tmpccmr3, TIM_CCMR3_OC5M, TIM_OCInitStruct->OCMode);
 80065f0:	6814      	ldr	r4, [r2, #0]
  CLEAR_BIT(TIMx->CCER, TIM_CCER_CC5E);
 80065f2:	f423 3380 	bic.w	r3, r3, #65536	@ 0x10000
 80065f6:	6203      	str	r3, [r0, #32]
  tmpccer = LL_TIM_ReadReg(TIMx, CCER);
 80065f8:	6a03      	ldr	r3, [r0, #32]
  tmpccmr3 = LL_TIM_ReadReg(TIMx, CCMR3);
 80065fa:	6d01      	ldr	r1, [r0, #80]	@ 0x50
  MODIFY_REG(tmpccmr3, TIM_CCMR3_OC5M, TIM_OCInitStruct->OCMode);
 80065fc:	f421 3180 	bic.w	r1, r1, #65536	@ 0x10000
 8006600:	f021 0170 	bic.w	r1, r1, #112	@ 0x70
 8006604:	4321      	orrs	r1, r4
  MODIFY_REG(tmpccer, TIM_CCER_CC5P, TIM_OCInitStruct->OCPolarity << 16U);
 8006606:	6914      	ldr	r4, [r2, #16]
 8006608:	f423 3300 	bic.w	r3, r3, #131072	@ 0x20000
 800660c:	ea43 4304 	orr.w	r3, r3, r4, lsl #16
  MODIFY_REG(tmpccer, TIM_CCER_CC5E, TIM_OCInitStruct->OCState << 16U);
 8006610:	6854      	ldr	r4, [r2, #4]
 8006612:	f423 3380 	bic.w	r3, r3, #65536	@ 0x10000
 8006616:	ea43 4304 	orr.w	r3, r3, r4, lsl #16
  if (IS_TIM_BREAK_INSTANCE(TIMx))
 800661a:	4c36      	ldr	r4, [pc, #216]	@ (80066f4 <LL_TIM_OC_Init+0x2cc>)
 800661c:	42a0      	cmp	r0, r4
 800661e:	d013      	beq.n	8006648 <LL_TIM_OC_Init+0x220>
 8006620:	f504 6400 	add.w	r4, r4, #2048	@ 0x800
 8006624:	42a0      	cmp	r0, r4
 8006626:	d00f      	beq.n	8006648 <LL_TIM_OC_Init+0x220>
 8006628:	f504 6440 	add.w	r4, r4, #3072	@ 0xc00
 800662c:	42a0      	cmp	r0, r4
 800662e:	d00b      	beq.n	8006648 <LL_TIM_OC_Init+0x220>
 8006630:	f504 6480 	add.w	r4, r4, #1024	@ 0x400
 8006634:	42a0      	cmp	r0, r4
 8006636:	d007      	beq.n	8006648 <LL_TIM_OC_Init+0x220>
 8006638:	f504 6480 	add.w	r4, r4, #1024	@ 0x400
 800663c:	42a0      	cmp	r0, r4
 800663e:	d003      	beq.n	8006648 <LL_TIM_OC_Init+0x220>
 8006640:	f504 6400 	add.w	r4, r4, #2048	@ 0x800
 8006644:	42a0      	cmp	r0, r4
 8006646:	d106      	bne.n	8006656 <LL_TIM_OC_Init+0x22e>
    MODIFY_REG(TIMx->CR2, TIM_CR2_OIS5, TIM_OCInitStruct->OCIdleState << 8U);
 8006648:	6844      	ldr	r4, [r0, #4]
 800664a:	6995      	ldr	r5, [r2, #24]
 800664c:	f424 3480 	bic.w	r4, r4, #65536	@ 0x10000
 8006650:	ea44 2405 	orr.w	r4, r4, r5, lsl #8
 8006654:	6044      	str	r4, [r0, #4]
  LL_TIM_WriteReg(TIMx, CCMR3, tmpccmr3);
 8006656:	6501      	str	r1, [r0, #80]	@ 0x50
  LL_TIM_OC_SetCompareCH5(TIMx, TIM_OCInitStruct->CompareValue);
 8006658:	68d2      	ldr	r2, [r2, #12]
  MODIFY_REG(TIMx->CCR5, TIM_CCR5_CCR5, CompareValue);
 800665a:	6c81      	ldr	r1, [r0, #72]	@ 0x48
 800665c:	6482      	str	r2, [r0, #72]	@ 0x48
  LL_TIM_WriteReg(TIMx, CCER, tmpccer);
 800665e:	6203      	str	r3, [r0, #32]
      break;
 8006660:	e7bf      	b.n	80065e2 <LL_TIM_OC_Init+0x1ba>
  CLEAR_BIT(TIMx->CCER, TIM_CCER_CC4E);
 8006662:	6a03      	ldr	r3, [r0, #32]
  MODIFY_REG(tmpccer, TIM_CCER_CC4E, TIM_OCInitStruct->OCState << 12U);
 8006664:	6855      	ldr	r5, [r2, #4]
  CLEAR_BIT(TIMx->CCER, TIM_CCER_CC4E);
 8006666:	f423 5380 	bic.w	r3, r3, #4096	@ 0x1000
 800666a:	6203      	str	r3, [r0, #32]
  tmpccer = LL_TIM_ReadReg(TIMx, CCER);
 800666c:	6a03      	ldr	r3, [r0, #32]
  tmpcr2 =  LL_TIM_ReadReg(TIMx, CR2);
 800666e:	6841      	ldr	r1, [r0, #4]
  tmpccmr2 = LL_TIM_ReadReg(TIMx, CCMR2);
 8006670:	69c4      	ldr	r4, [r0, #28]
  MODIFY_REG(tmpccmr2, TIM_CCMR2_OC4M, TIM_OCInitStruct->OCMode << 8U);
 8006672:	f024 7c80 	bic.w	ip, r4, #16777216	@ 0x1000000
  MODIFY_REG(tmpccer, TIM_CCER_CC4P, TIM_OCInitStruct->OCPolarity << 12U);
 8006676:	6914      	ldr	r4, [r2, #16]
 8006678:	f423 5300 	bic.w	r3, r3, #8192	@ 0x2000
 800667c:	ea43 3304 	orr.w	r3, r3, r4, lsl #12
  MODIFY_REG(tmpccer, TIM_CCER_CC4E, TIM_OCInitStruct->OCState << 12U);
 8006680:	f423 5380 	bic.w	r3, r3, #4096	@ 0x1000
 8006684:	ea43 3305 	orr.w	r3, r3, r5, lsl #12
  if (IS_TIM_BREAK_INSTANCE(TIMx))
 8006688:	4d1a      	ldr	r5, [pc, #104]	@ (80066f4 <LL_TIM_OC_Init+0x2cc>)
  MODIFY_REG(tmpccmr2, TIM_CCMR2_OC4M, TIM_OCInitStruct->OCMode << 8U);
 800668a:	6814      	ldr	r4, [r2, #0]
 800668c:	f42c 4ce6 	bic.w	ip, ip, #29440	@ 0x7300
  if (IS_TIM_BREAK_INSTANCE(TIMx))
 8006690:	42a8      	cmp	r0, r5
  MODIFY_REG(tmpccmr2, TIM_CCMR2_OC4M, TIM_OCInitStruct->OCMode << 8U);
 8006692:	ea4c 2404 	orr.w	r4, ip, r4, lsl #8
  if (IS_TIM_BREAK_INSTANCE(TIMx))
 8006696:	d013      	beq.n	80066c0 <LL_TIM_OC_Init+0x298>
 8006698:	f505 6500 	add.w	r5, r5, #2048	@ 0x800
 800669c:	42a8      	cmp	r0, r5
 800669e:	d00f      	beq.n	80066c0 <LL_TIM_OC_Init+0x298>
 80066a0:	f505 6540 	add.w	r5, r5, #3072	@ 0xc00
 80066a4:	42a8      	cmp	r0, r5
 80066a6:	d00b      	beq.n	80066c0 <LL_TIM_OC_Init+0x298>
 80066a8:	f505 6580 	add.w	r5, r5, #1024	@ 0x400
 80066ac:	42a8      	cmp	r0, r5
 80066ae:	d007      	beq.n	80066c0 <LL_TIM_OC_Init+0x298>
 80066b0:	f505 6580 	add.w	r5, r5, #1024	@ 0x400
 80066b4:	42a8      	cmp	r0, r5
 80066b6:	d003      	beq.n	80066c0 <LL_TIM_OC_Init+0x298>
 80066b8:	f505 6500 	add.w	r5, r5, #2048	@ 0x800
 80066bc:	42a8      	cmp	r0, r5
 80066be:	d113      	bne.n	80066e8 <LL_TIM_OC_Init+0x2c0>
    MODIFY_REG(tmpccer, TIM_CCER_CC4NP, TIM_OCInitStruct->OCNPolarity << 14U);
 80066c0:	6955      	ldr	r5, [r2, #20]
 80066c2:	f423 4300 	bic.w	r3, r3, #32768	@ 0x8000
 80066c6:	ea43 3385 	orr.w	r3, r3, r5, lsl #14
    MODIFY_REG(tmpcr2, TIM_CR2_OIS4, TIM_OCInitStruct->OCIdleState << 6U);
 80066ca:	6995      	ldr	r5, [r2, #24]
 80066cc:	f421 4180 	bic.w	r1, r1, #16384	@ 0x4000
 80066d0:	ea41 1185 	orr.w	r1, r1, r5, lsl #6
    MODIFY_REG(tmpccer, TIM_CCER_CC4NE, TIM_OCInitStruct->OCNState << 14U);
 80066d4:	6895      	ldr	r5, [r2, #8]
 80066d6:	f423 4380 	bic.w	r3, r3, #16384	@ 0x4000
 80066da:	ea43 3385 	orr.w	r3, r3, r5, lsl #14
    MODIFY_REG(tmpcr2, TIM_CR2_OIS4N, TIM_OCInitStruct->OCNIdleState << 7U);
 80066de:	69d5      	ldr	r5, [r2, #28]
 80066e0:	f421 4100 	bic.w	r1, r1, #32768	@ 0x8000
 80066e4:	ea41 11c5 	orr.w	r1, r1, r5, lsl #7
  LL_TIM_OC_SetCompareCH4(TIMx, TIM_OCInitStruct->CompareValue);
 80066e8:	68d2      	ldr	r2, [r2, #12]
  LL_TIM_WriteReg(TIMx, CR2, tmpcr2);
 80066ea:	6041      	str	r1, [r0, #4]
  LL_TIM_WriteReg(TIMx, CCMR2, tmpccmr2);
 80066ec:	61c4      	str	r4, [r0, #28]
  WRITE_REG(TIMx->CCR4, CompareValue);
 80066ee:	6402      	str	r2, [r0, #64]	@ 0x40
  LL_TIM_WriteReg(TIMx, CCER, tmpccer);
 80066f0:	6203      	str	r3, [r0, #32]
      break;
 80066f2:	e776      	b.n	80065e2 <LL_TIM_OC_Init+0x1ba>
 80066f4:	40012c00 	.word	0x40012c00
  CLEAR_BIT(TIMx->CCER, TIM_CCER_CC2E);
 80066f8:	6a03      	ldr	r3, [r0, #32]
  MODIFY_REG(tmpccer, TIM_CCER_CC2P, TIM_OCInitStruct->OCPolarity << 4U);
 80066fa:	6915      	ldr	r5, [r2, #16]
  CLEAR_BIT(TIMx->CCER, TIM_CCER_CC2E);
 80066fc:	f023 0310 	bic.w	r3, r3, #16
 8006700:	6203      	str	r3, [r0, #32]
  tmpccer =  LL_TIM_ReadReg(TIMx, CCER);
 8006702:	6a03      	ldr	r3, [r0, #32]
  tmpcr2 = LL_TIM_ReadReg(TIMx, CR2);
 8006704:	6841      	ldr	r1, [r0, #4]
  tmpccmr1 = LL_TIM_ReadReg(TIMx, CCMR1);
 8006706:	6984      	ldr	r4, [r0, #24]
  MODIFY_REG(tmpccer, TIM_CCER_CC2P, TIM_OCInitStruct->OCPolarity << 4U);
 8006708:	f023 0320 	bic.w	r3, r3, #32
 800670c:	ea43 1305 	orr.w	r3, r3, r5, lsl #4
  MODIFY_REG(tmpccmr1, TIM_CCMR1_OC2M, TIM_OCInitStruct->OCMode << 8U);
 8006710:	f024 7480 	bic.w	r4, r4, #16777216	@ 0x1000000
 8006714:	6815      	ldr	r5, [r2, #0]
 8006716:	f424 44e6 	bic.w	r4, r4, #29440	@ 0x7300
 800671a:	ea44 2405 	orr.w	r4, r4, r5, lsl #8
  MODIFY_REG(tmpccer, TIM_CCER_CC2E, TIM_OCInitStruct->OCState << 4U);
 800671e:	6855      	ldr	r5, [r2, #4]
 8006720:	f023 0310 	bic.w	r3, r3, #16
 8006724:	ea43 1305 	orr.w	r3, r3, r5, lsl #4
  if (IS_TIM_BREAK_INSTANCE(TIMx))
 8006728:	4d18      	ldr	r5, [pc, #96]	@ (800678c <LL_TIM_OC_Init+0x364>)
 800672a:	42a8      	cmp	r0, r5
 800672c:	d013      	beq.n	8006756 <LL_TIM_OC_Init+0x32e>
 800672e:	f505 6500 	add.w	r5, r5, #2048	@ 0x800
 8006732:	42a8      	cmp	r0, r5
 8006734:	d00f      	beq.n	8006756 <LL_TIM_OC_Init+0x32e>
 8006736:	f505 6540 	add.w	r5, r5, #3072	@ 0xc00
 800673a:	42a8      	cmp	r0, r5
 800673c:	d00b      	beq.n	8006756 <LL_TIM_OC_Init+0x32e>
 800673e:	f505 6580 	add.w	r5, r5, #1024	@ 0x400
 8006742:	42a8      	cmp	r0, r5
 8006744:	d007      	beq.n	8006756 <LL_TIM_OC_Init+0x32e>
 8006746:	f505 6580 	add.w	r5, r5, #1024	@ 0x400
 800674a:	42a8      	cmp	r0, r5
 800674c:	d003      	beq.n	8006756 <LL_TIM_OC_Init+0x32e>
 800674e:	f505 6500 	add.w	r5, r5, #2048	@ 0x800
 8006752:	42a8      	cmp	r0, r5
 8006754:	d113      	bne.n	800677e <LL_TIM_OC_Init+0x356>
    MODIFY_REG(tmpccer, TIM_CCER_CC2NP, TIM_OCInitStruct->OCNPolarity << 6U);
 8006756:	6955      	ldr	r5, [r2, #20]
 8006758:	f023 0380 	bic.w	r3, r3, #128	@ 0x80
 800675c:	ea43 1385 	orr.w	r3, r3, r5, lsl #6
    MODIFY_REG(tmpcr2, TIM_CR2_OIS2, TIM_OCInitStruct->OCIdleState << 2U);
 8006760:	6995      	ldr	r5, [r2, #24]
 8006762:	f421 6180 	bic.w	r1, r1, #1024	@ 0x400
 8006766:	ea41 0185 	orr.w	r1, r1, r5, lsl #2
    MODIFY_REG(tmpccer, TIM_CCER_CC2NE, TIM_OCInitStruct->OCNState << 6U);
 800676a:	6895      	ldr	r5, [r2, #8]
 800676c:	f023 0340 	bic.w	r3, r3, #64	@ 0x40
 8006770:	ea43 1385 	orr.w	r3, r3, r5, lsl #6
    MODIFY_REG(tmpcr2, TIM_CR2_OIS2N, TIM_OCInitStruct->OCNIdleState << 3U);
 8006774:	69d5      	ldr	r5, [r2, #28]
 8006776:	f421 6100 	bic.w	r1, r1, #2048	@ 0x800
 800677a:	ea41 01c5 	orr.w	r1, r1, r5, lsl #3
  LL_TIM_OC_SetCompareCH2(TIMx, TIM_OCInitStruct->CompareValue);
 800677e:	68d2      	ldr	r2, [r2, #12]
  LL_TIM_WriteReg(TIMx, CR2, tmpcr2);
 8006780:	6041      	str	r1, [r0, #4]
  LL_TIM_WriteReg(TIMx, CCMR1, tmpccmr1);
 8006782:	6184      	str	r4, [r0, #24]
  WRITE_REG(TIMx->CCR2, CompareValue);
 8006784:	6382      	str	r2, [r0, #56]	@ 0x38
  LL_TIM_WriteReg(TIMx, CCER, tmpccer);
 8006786:	6203      	str	r3, [r0, #32]
      break;
 8006788:	e72b      	b.n	80065e2 <LL_TIM_OC_Init+0x1ba>
 800678a:	bf00      	nop
 800678c:	40012c00 	.word	0x40012c00

08006790 <LL_USART_Init>:
  * @retval An ErrorStatus enumeration value:
  *          - SUCCESS: USART registers are initialized according to USART_InitStruct content
  *          - ERROR: Problem occurred during USART Registers initialization
  */
ErrorStatus LL_USART_Init(USART_TypeDef *USARTx, const LL_USART_InitTypeDef *USART_InitStruct)
{
 8006790:	b538      	push	{r3, r4, r5, lr}
  return ((READ_BIT(USARTx->CR1, USART_CR1_UE) == (USART_CR1_UE)) ? 1UL : 0UL);
 8006792:	6803      	ldr	r3, [r0, #0]
 8006794:	07db      	lsls	r3, r3, #31
 8006796:	d431      	bmi.n	80067fc <LL_USART_Init+0x6c>
     * - DataWidth:          USART_CR1_M bits according to USART_InitStruct->DataWidth value
     * - Parity:             USART_CR1_PCE, USART_CR1_PS bits according to USART_InitStruct->Parity value
     * - TransferDirection:  USART_CR1_TE, USART_CR1_RE bits according to USART_InitStruct->TransferDirection value
     * - Oversampling:       USART_CR1_OVER8 bit according to USART_InitStruct->OverSampling value.
     */
    MODIFY_REG(USARTx->CR1,
 8006798:	4604      	mov	r4, r0
 800679a:	e9d1 0204 	ldrd	r0, r2, [r1, #16]
 800679e:	688b      	ldr	r3, [r1, #8]
 80067a0:	460d      	mov	r5, r1
 80067a2:	4303      	orrs	r3, r0
 80067a4:	4313      	orrs	r3, r2
 80067a6:	69ea      	ldr	r2, [r5, #28]
 80067a8:	6821      	ldr	r1, [r4, #0]
 80067aa:	4313      	orrs	r3, r2
 80067ac:	4a32      	ldr	r2, [pc, #200]	@ (8006878 <LL_USART_Init+0xe8>)
 80067ae:	400a      	ands	r2, r1
 80067b0:	4313      	orrs	r3, r2
 80067b2:	6023      	str	r3, [r4, #0]
  MODIFY_REG(USARTx->CR2, USART_CR2_STOP, StopBits);
 80067b4:	6863      	ldr	r3, [r4, #4]
 80067b6:	68ea      	ldr	r2, [r5, #12]
  MODIFY_REG(USARTx->CR3, USART_CR3_RTSE | USART_CR3_CTSE, HardwareFlowControl);
 80067b8:	69a9      	ldr	r1, [r5, #24]
  MODIFY_REG(USARTx->CR2, USART_CR2_STOP, StopBits);
 80067ba:	f423 5340 	bic.w	r3, r3, #12288	@ 0x3000
 80067be:	4313      	orrs	r3, r2
 80067c0:	6063      	str	r3, [r4, #4]
  MODIFY_REG(USARTx->CR3, USART_CR3_RTSE | USART_CR3_CTSE, HardwareFlowControl);
 80067c2:	68a3      	ldr	r3, [r4, #8]
    LL_USART_SetHWFlowCtrl(USARTx, USART_InitStruct->HardwareFlowControl);

    /*---------------------------- USART BRR Configuration ---------------------
     * Retrieve Clock frequency used for USART Peripheral
     */
    if (USARTx == USART1)
 80067c4:	4a2d      	ldr	r2, [pc, #180]	@ (800687c <LL_USART_Init+0xec>)
 80067c6:	f423 7340 	bic.w	r3, r3, #768	@ 0x300
 80067ca:	430b      	orrs	r3, r1
 80067cc:	4294      	cmp	r4, r2
 80067ce:	60a3      	str	r3, [r4, #8]
 80067d0:	d016      	beq.n	8006800 <LL_USART_Init+0x70>
    {
      periphclk = LL_RCC_GetUSARTClockFreq(LL_RCC_USART1_CLKSOURCE);
    }
    else if (USARTx == USART2)
 80067d2:	4b2b      	ldr	r3, [pc, #172]	@ (8006880 <LL_USART_Init+0xf0>)
 80067d4:	429c      	cmp	r4, r3
 80067d6:	d01c      	beq.n	8006812 <LL_USART_Init+0x82>
    {
      periphclk = LL_RCC_GetUSARTClockFreq(LL_RCC_USART2_CLKSOURCE);
    }
#if defined(USART3)
    else if (USARTx == USART3)
 80067d8:	4b2a      	ldr	r3, [pc, #168]	@ (8006884 <LL_USART_Init+0xf4>)
 80067da:	429c      	cmp	r4, r3
 80067dc:	d01d      	beq.n	800681a <LL_USART_Init+0x8a>
    {
      periphclk = LL_RCC_GetUSARTClockFreq(LL_RCC_USART3_CLKSOURCE);
    }
#endif /* USART3 */
#if defined(UART4)
    else if (USARTx == UART4)
 80067de:	4b2a      	ldr	r3, [pc, #168]	@ (8006888 <LL_USART_Init+0xf8>)
 80067e0:	429c      	cmp	r4, r3
 80067e2:	d037      	beq.n	8006854 <LL_USART_Init+0xc4>
    {
      periphclk = LL_RCC_GetUARTClockFreq(LL_RCC_UART4_CLKSOURCE);
    }
#endif /* UART4 */
#if defined(UART5)
    else if (USARTx == UART5)
 80067e4:	4b29      	ldr	r3, [pc, #164]	@ (800688c <LL_USART_Init+0xfc>)
 80067e6:	429c      	cmp	r4, r3
 80067e8:	d02f      	beq.n	800684a <LL_USART_Init+0xba>

    /*---------------------------- USART PRESC Configuration -----------------------
     * Configure USARTx PRESC (Prescaler) with parameters:
     * - PrescalerValue: USART_PRESC_PRESCALER bits according to USART_InitStruct->PrescalerValue value.
     */
    LL_USART_SetPrescaler(USARTx, USART_InitStruct->PrescalerValue);
 80067ea:	682a      	ldr	r2, [r5, #0]
  ErrorStatus status = ERROR;
 80067ec:	2001      	movs	r0, #1
  MODIFY_REG(USARTx->PRESC, USART_PRESC_PRESCALER, (uint16_t)PrescalerValue);
 80067ee:	6ae3      	ldr	r3, [r4, #44]	@ 0x2c
 80067f0:	b292      	uxth	r2, r2
 80067f2:	f023 030f 	bic.w	r3, r3, #15
 80067f6:	4313      	orrs	r3, r2
 80067f8:	62e3      	str	r3, [r4, #44]	@ 0x2c
  }
  /* Endif (=> USART not in Disabled state => return ERROR) */

  return (status);
}
 80067fa:	bd38      	pop	{r3, r4, r5, pc}
  ErrorStatus status = ERROR;
 80067fc:	2001      	movs	r0, #1
}
 80067fe:	bd38      	pop	{r3, r4, r5, pc}
      periphclk = LL_RCC_GetUSARTClockFreq(LL_RCC_USART1_CLKSOURCE);
 8006800:	2003      	movs	r0, #3
 8006802:	f7ff fbf7 	bl	8005ff4 <LL_RCC_GetUSARTClockFreq>
                           USART_InitStruct->PrescalerValue,
 8006806:	682a      	ldr	r2, [r5, #0]
    if ((periphclk != LL_RCC_PERIPH_FREQUENCY_NO)
 8006808:	b108      	cbz	r0, 800680e <LL_USART_Init+0x7e>
        && (USART_InitStruct->BaudRate != 0U))
 800680a:	6869      	ldr	r1, [r5, #4]
 800680c:	b949      	cbnz	r1, 8006822 <LL_USART_Init+0x92>
  ErrorStatus status = ERROR;
 800680e:	2001      	movs	r0, #1
 8006810:	e7ed      	b.n	80067ee <LL_USART_Init+0x5e>
      periphclk = LL_RCC_GetUSARTClockFreq(LL_RCC_USART2_CLKSOURCE);
 8006812:	200c      	movs	r0, #12
 8006814:	f7ff fbee 	bl	8005ff4 <LL_RCC_GetUSARTClockFreq>
 8006818:	e7f5      	b.n	8006806 <LL_USART_Init+0x76>
      periphclk = LL_RCC_GetUSARTClockFreq(LL_RCC_USART3_CLKSOURCE);
 800681a:	2030      	movs	r0, #48	@ 0x30
 800681c:	f7ff fbea 	bl	8005ff4 <LL_RCC_GetUSARTClockFreq>
 8006820:	e7f1      	b.n	8006806 <LL_USART_Init+0x76>
  if (PrescalerValue > LL_USART_PRESCALER_DIV256)
 8006822:	2a0b      	cmp	r2, #11
 8006824:	d80f      	bhi.n	8006846 <LL_USART_Init+0xb6>
  else if (OverSampling == LL_USART_OVERSAMPLING_8)
 8006826:	69ed      	ldr	r5, [r5, #28]
    usartdiv = (uint16_t)(__LL_USART_DIV_SAMPLING8(PeriphClk, (uint8_t)PrescalerValue, BaudRate));
 8006828:	4b19      	ldr	r3, [pc, #100]	@ (8006890 <LL_USART_Init+0x100>)
  else if (OverSampling == LL_USART_OVERSAMPLING_8)
 800682a:	f5b5 4f00 	cmp.w	r5, #32768	@ 0x8000
    usartdiv = (uint16_t)(__LL_USART_DIV_SAMPLING8(PeriphClk, (uint8_t)PrescalerValue, BaudRate));
 800682e:	f853 3022 	ldr.w	r3, [r3, r2, lsl #2]
 8006832:	fbb0 f0f3 	udiv	r0, r0, r3
 8006836:	ea4f 0351 	mov.w	r3, r1, lsr #1
  else if (OverSampling == LL_USART_OVERSAMPLING_8)
 800683a:	d00f      	beq.n	800685c <LL_USART_Init+0xcc>
    USARTx->BRR = (uint16_t)(__LL_USART_DIV_SAMPLING16(PeriphClk, (uint8_t)PrescalerValue, BaudRate));
 800683c:	4403      	add	r3, r0
 800683e:	fbb3 f3f1 	udiv	r3, r3, r1
 8006842:	b29b      	uxth	r3, r3
 8006844:	60e3      	str	r3, [r4, #12]
      status = SUCCESS;
 8006846:	2000      	movs	r0, #0
 8006848:	e7d1      	b.n	80067ee <LL_USART_Init+0x5e>
      periphclk = LL_RCC_GetUARTClockFreq(LL_RCC_UART5_CLKSOURCE);
 800684a:	f44f 7040 	mov.w	r0, #768	@ 0x300
 800684e:	f7ff fcb9 	bl	80061c4 <LL_RCC_GetUARTClockFreq>
 8006852:	e7d8      	b.n	8006806 <LL_USART_Init+0x76>
      periphclk = LL_RCC_GetUARTClockFreq(LL_RCC_UART4_CLKSOURCE);
 8006854:	20c0      	movs	r0, #192	@ 0xc0
 8006856:	f7ff fcb5 	bl	80061c4 <LL_RCC_GetUARTClockFreq>
 800685a:	e7d4      	b.n	8006806 <LL_USART_Init+0x76>
    usartdiv = (uint16_t)(__LL_USART_DIV_SAMPLING8(PeriphClk, (uint8_t)PrescalerValue, BaudRate));
 800685c:	eb03 0340 	add.w	r3, r3, r0, lsl #1
    brrtemp = usartdiv & 0xFFF0U;
 8006860:	f64f 70f0 	movw	r0, #65520	@ 0xfff0
    usartdiv = (uint16_t)(__LL_USART_DIV_SAMPLING8(PeriphClk, (uint8_t)PrescalerValue, BaudRate));
 8006864:	fbb3 f3f1 	udiv	r3, r3, r1
    brrtemp = usartdiv & 0xFFF0U;
 8006868:	ea03 0100 	and.w	r1, r3, r0
    brrtemp |= (uint16_t)((usartdiv & (uint16_t)0x000FU) >> 1U);
 800686c:	f3c3 0342 	ubfx	r3, r3, #1, #3
 8006870:	430b      	orrs	r3, r1
    USARTx->BRR = brrtemp;
 8006872:	60e3      	str	r3, [r4, #12]
 8006874:	e7e7      	b.n	8006846 <LL_USART_Init+0xb6>
 8006876:	bf00      	nop
 8006878:	efff69f3 	.word	0xefff69f3
 800687c:	40013800 	.word	0x40013800
 8006880:	40004400 	.word	0x40004400
 8006884:	40004800 	.word	0x40004800
 8006888:	40004c00 	.word	0x40004c00
 800688c:	40005000 	.word	0x40005000
 8006890:	0805bc50 	.word	0x0805bc50

08006894 <LED_init>:

// -------------- Public function implementations --------------

void LED_init(void)
{
		LED_group.LEDs[LED0].pin = LL_GPIO_PIN_2;
 8006894:	4b11      	ldr	r3, [pc, #68]	@ (80068dc <LED_init+0x48>)
		LED_group.LEDs[LED0].port = GPIOF;
 8006896:	4912      	ldr	r1, [pc, #72]	@ (80068e0 <LED_init+0x4c>)
{
 8006898:	b430      	push	{r4, r5}

		LED_group.LEDs[LED1].pin = LL_GPIO_PIN_3;
 800689a:	2008      	movs	r0, #8
		LED_group.LEDs[LED0].pin = LL_GPIO_PIN_2;
 800689c:	2404      	movs	r4, #4
		LED_group.LEDs[LED1].port = GPIOF;

		LED_group.LEDs[LED2].pin = LL_GPIO_PIN_4;
 800689e:	2210      	movs	r2, #16
		LED_group.LEDs[LED0].pin = LL_GPIO_PIN_2;
 80068a0:	e9c3 1400 	strd	r1, r4, [r3]
  WRITE_REG(GPIOx->BRR, PinMask);
 80068a4:	628c      	str	r4, [r1, #40]	@ 0x28
		LED_group.LEDs[LED1].pin = LL_GPIO_PIN_3;
 80068a6:	60d8      	str	r0, [r3, #12]
 80068a8:	6288      	str	r0, [r1, #40]	@ 0x28
		LED_group.LEDs[LED1].port = GPIOF;
 80068aa:	6099      	str	r1, [r3, #8]
 80068ac:	628a      	str	r2, [r1, #40]	@ 0x28
		LED_group.LEDs[LED2].pin = LL_GPIO_PIN_4;
 80068ae:	615a      	str	r2, [r3, #20]
		LED_group.LEDs[LED2].port = GPIOF;

		LED_group.LEDs[LED3].pin = LL_GPIO_PIN_5;
 80068b0:	2220      	movs	r2, #32
 80068b2:	628a      	str	r2, [r1, #40]	@ 0x28
 80068b4:	61da      	str	r2, [r3, #28]
		LED_group.LEDs[LED3].port = GPIOF;

		LED_group.LEDs[LED4].pin = LL_GPIO_PIN_0;
		LED_group.LEDs[LED4].port = GPIOC;
 80068b6:	4a0b      	ldr	r2, [pc, #44]	@ (80068e4 <LED_init+0x50>)
		LED_group.LEDs[LED2].port = GPIOF;
 80068b8:	6119      	str	r1, [r3, #16]
		LED_group.LEDs[LED4].pin = LL_GPIO_PIN_0;
 80068ba:	2501      	movs	r5, #1
 80068bc:	6295      	str	r5, [r2, #40]	@ 0x28
		LED_group.LEDs[LED3].port = GPIOF;
 80068be:	6199      	str	r1, [r3, #24]

		LED_group.LEDs[LED5].pin = LL_GPIO_PIN_1;
 80068c0:	2102      	movs	r1, #2
		LED_group.LEDs[LED5].port = GPIOC;

		LED_group.LEDs[LED6].pin = LL_GPIO_PIN_2;
		LED_group.LEDs[LED6].port = GPIOC;
 80068c2:	e9c3 240c 	strd	r2, r4, [r3, #48]	@ 0x30
		LED_group.LEDs[LED4].pin = LL_GPIO_PIN_0;
 80068c6:	625d      	str	r5, [r3, #36]	@ 0x24

		LED_group.LEDs[LED7].pin = LL_GPIO_PIN_3;
		LED_group.LEDs[LED7].port = GPIOC;
 80068c8:	e9c3 200e 	strd	r2, r0, [r3, #56]	@ 0x38
		LED_group.LEDs[LED4].port = GPIOC;
 80068cc:	621a      	str	r2, [r3, #32]
		LED_group.LEDs[LED5].port = GPIOC;
 80068ce:	629a      	str	r2, [r3, #40]	@ 0x28
 80068d0:	6291      	str	r1, [r2, #40]	@ 0x28
		LED_group.LEDs[LED5].pin = LL_GPIO_PIN_1;
 80068d2:	62d9      	str	r1, [r3, #44]	@ 0x2c
 80068d4:	6294      	str	r4, [r2, #40]	@ 0x28

		LEDs_write(0x00);
}
 80068d6:	bc30      	pop	{r4, r5}
 80068d8:	6290      	str	r0, [r2, #40]	@ 0x28
 80068da:	4770      	bx	lr
 80068dc:	20000d3c 	.word	0x20000d3c
 80068e0:	48001400 	.word	0x48001400
 80068e4:	48000800 	.word	0x48000800

080068e8 <LEDs_off>:
{
	uint8_t bitmask = 0x01;

	for(uint8_t i=0; i < NUM_OF_LEDS; i++)
	{
		if ( LED_bitmask & bitmask )
 80068e8:	07c2      	lsls	r2, r0, #31
 80068ea:	d503      	bpl.n	80068f4 <LEDs_off+0xc>
		{
			LL_GPIO_ResetOutputPin( LED_group.LEDs[i].port, LED_group.LEDs[i].pin );
 80068ec:	4b17      	ldr	r3, [pc, #92]	@ (800694c <LEDs_off+0x64>)
 80068ee:	e9d3 2300 	ldrd	r2, r3, [r3]
 80068f2:	6293      	str	r3, [r2, #40]	@ 0x28
		if ( LED_bitmask & bitmask )
 80068f4:	0783      	lsls	r3, r0, #30
 80068f6:	d503      	bpl.n	8006900 <LEDs_off+0x18>
			LL_GPIO_ResetOutputPin( LED_group.LEDs[i].port, LED_group.LEDs[i].pin );
 80068f8:	4b14      	ldr	r3, [pc, #80]	@ (800694c <LEDs_off+0x64>)
 80068fa:	e9d3 2302 	ldrd	r2, r3, [r3, #8]
 80068fe:	6293      	str	r3, [r2, #40]	@ 0x28
		if ( LED_bitmask & bitmask )
 8006900:	0741      	lsls	r1, r0, #29
 8006902:	d503      	bpl.n	800690c <LEDs_off+0x24>
			LL_GPIO_ResetOutputPin( LED_group.LEDs[i].port, LED_group.LEDs[i].pin );
 8006904:	4b11      	ldr	r3, [pc, #68]	@ (800694c <LEDs_off+0x64>)
 8006906:	e9d3 2304 	ldrd	r2, r3, [r3, #16]
 800690a:	6293      	str	r3, [r2, #40]	@ 0x28
		if ( LED_bitmask & bitmask )
 800690c:	0702      	lsls	r2, r0, #28
 800690e:	d503      	bpl.n	8006918 <LEDs_off+0x30>
			LL_GPIO_ResetOutputPin( LED_group.LEDs[i].port, LED_group.LEDs[i].pin );
 8006910:	4b0e      	ldr	r3, [pc, #56]	@ (800694c <LEDs_off+0x64>)
 8006912:	e9d3 2306 	ldrd	r2, r3, [r3, #24]
 8006916:	6293      	str	r3, [r2, #40]	@ 0x28
		if ( LED_bitmask & bitmask )
 8006918:	06c3      	lsls	r3, r0, #27
 800691a:	d503      	bpl.n	8006924 <LEDs_off+0x3c>
			LL_GPIO_ResetOutputPin( LED_group.LEDs[i].port, LED_group.LEDs[i].pin );
 800691c:	4b0b      	ldr	r3, [pc, #44]	@ (800694c <LEDs_off+0x64>)
 800691e:	e9d3 2308 	ldrd	r2, r3, [r3, #32]
 8006922:	6293      	str	r3, [r2, #40]	@ 0x28
		if ( LED_bitmask & bitmask )
 8006924:	0681      	lsls	r1, r0, #26
 8006926:	d503      	bpl.n	8006930 <LEDs_off+0x48>
			LL_GPIO_ResetOutputPin( LED_group.LEDs[i].port, LED_group.LEDs[i].pin );
 8006928:	4b08      	ldr	r3, [pc, #32]	@ (800694c <LEDs_off+0x64>)
 800692a:	e9d3 230a 	ldrd	r2, r3, [r3, #40]	@ 0x28
 800692e:	6293      	str	r3, [r2, #40]	@ 0x28
		if ( LED_bitmask & bitmask )
 8006930:	0642      	lsls	r2, r0, #25
 8006932:	d503      	bpl.n	800693c <LEDs_off+0x54>
			LL_GPIO_ResetOutputPin( LED_group.LEDs[i].port, LED_group.LEDs[i].pin );
 8006934:	4b05      	ldr	r3, [pc, #20]	@ (800694c <LEDs_off+0x64>)
 8006936:	e9d3 230c 	ldrd	r2, r3, [r3, #48]	@ 0x30
 800693a:	6293      	str	r3, [r2, #40]	@ 0x28
		if ( LED_bitmask & bitmask )
 800693c:	0603      	lsls	r3, r0, #24
 800693e:	d503      	bpl.n	8006948 <LEDs_off+0x60>
			LL_GPIO_ResetOutputPin( LED_group.LEDs[i].port, LED_group.LEDs[i].pin );
 8006940:	4b02      	ldr	r3, [pc, #8]	@ (800694c <LEDs_off+0x64>)
 8006942:	e9d3 230e 	ldrd	r2, r3, [r3, #56]	@ 0x38
 8006946:	6293      	str	r3, [r2, #40]	@ 0x28
		}

		bitmask <<= 1;
	}
}
 8006948:	4770      	bx	lr
 800694a:	bf00      	nop
 800694c:	20000d3c 	.word	0x20000d3c

08006950 <LEDs_write>:

	for(uint8_t i=0; i < NUM_OF_LEDS; i++)
	{
		if (value & bitmask)
		{
			LL_GPIO_SetOutputPin( LED_group.LEDs[i].port, LED_group.LEDs[i].pin );
 8006950:	4b1c      	ldr	r3, [pc, #112]	@ (80069c4 <LEDs_write+0x74>)
 8006952:	e9d3 2100 	ldrd	r2, r1, [r3]
		if (value & bitmask)
 8006956:	f010 0f01 	tst.w	r0, #1
 800695a:	bf0c      	ite	eq
 800695c:	6291      	streq	r1, [r2, #40]	@ 0x28
  WRITE_REG(GPIOx->BSRR, PinMask);
 800695e:	6191      	strne	r1, [r2, #24]
			LL_GPIO_SetOutputPin( LED_group.LEDs[i].port, LED_group.LEDs[i].pin );
 8006960:	e9d3 2102 	ldrd	r2, r1, [r3, #8]
		if (value & bitmask)
 8006964:	f010 0f02 	tst.w	r0, #2
  WRITE_REG(GPIOx->BRR, PinMask);
 8006968:	bf0c      	ite	eq
 800696a:	6291      	streq	r1, [r2, #40]	@ 0x28
  WRITE_REG(GPIOx->BSRR, PinMask);
 800696c:	6191      	strne	r1, [r2, #24]
			LL_GPIO_SetOutputPin( LED_group.LEDs[i].port, LED_group.LEDs[i].pin );
 800696e:	e9d3 2104 	ldrd	r2, r1, [r3, #16]
		if (value & bitmask)
 8006972:	f010 0f04 	tst.w	r0, #4
  WRITE_REG(GPIOx->BRR, PinMask);
 8006976:	bf0c      	ite	eq
 8006978:	6291      	streq	r1, [r2, #40]	@ 0x28
  WRITE_REG(GPIOx->BSRR, PinMask);
 800697a:	6191      	strne	r1, [r2, #24]
			LL_GPIO_SetOutputPin( LED_group.LEDs[i].port, LED_group.LEDs[i].pin );
 800697c:	e9d3 2106 	ldrd	r2, r1, [r3, #24]
		if (value & bitmask)
 8006980:	f010 0f08 	tst.w	r0, #8
  WRITE_REG(GPIOx->BRR, PinMask);
 8006984:	bf0c      	ite	eq
 8006986:	6291      	streq	r1, [r2, #40]	@ 0x28
  WRITE_REG(GPIOx->BSRR, PinMask);
 8006988:	6191      	strne	r1, [r2, #24]
			LL_GPIO_SetOutputPin( LED_group.LEDs[i].port, LED_group.LEDs[i].pin );
 800698a:	e9d3 2108 	ldrd	r2, r1, [r3, #32]
		if (value & bitmask)
 800698e:	f010 0f10 	tst.w	r0, #16
  WRITE_REG(GPIOx->BRR, PinMask);
 8006992:	bf0c      	ite	eq
 8006994:	6291      	streq	r1, [r2, #40]	@ 0x28
  WRITE_REG(GPIOx->BSRR, PinMask);
 8006996:	6191      	strne	r1, [r2, #24]
			LL_GPIO_SetOutputPin( LED_group.LEDs[i].port, LED_group.LEDs[i].pin );
 8006998:	e9d3 210a 	ldrd	r2, r1, [r3, #40]	@ 0x28
		if (value & bitmask)
 800699c:	f010 0f20 	tst.w	r0, #32
  WRITE_REG(GPIOx->BRR, PinMask);
 80069a0:	bf0c      	ite	eq
 80069a2:	6291      	streq	r1, [r2, #40]	@ 0x28
  WRITE_REG(GPIOx->BSRR, PinMask);
 80069a4:	6191      	strne	r1, [r2, #24]
			LL_GPIO_SetOutputPin( LED_group.LEDs[i].port, LED_group.LEDs[i].pin );
 80069a6:	e9d3 210c 	ldrd	r2, r1, [r3, #48]	@ 0x30
		if (value & bitmask)
 80069aa:	f010 0f40 	tst.w	r0, #64	@ 0x40
  WRITE_REG(GPIOx->BRR, PinMask);
 80069ae:	bf0c      	ite	eq
 80069b0:	6291      	streq	r1, [r2, #40]	@ 0x28
  WRITE_REG(GPIOx->BSRR, PinMask);
 80069b2:	6191      	strne	r1, [r2, #24]
			LL_GPIO_SetOutputPin( LED_group.LEDs[i].port, LED_group.LEDs[i].pin );
 80069b4:	e9d3 230e 	ldrd	r2, r3, [r3, #56]	@ 0x38
		if (value & bitmask)
 80069b8:	0601      	lsls	r1, r0, #24
 80069ba:	bf4c      	ite	mi
 80069bc:	6193      	strmi	r3, [r2, #24]
  WRITE_REG(GPIOx->BRR, PinMask);
 80069be:	6293      	strpl	r3, [r2, #40]	@ 0x28
			LL_GPIO_ResetOutputPin( LED_group.LEDs[i].port, LED_group.LEDs[i].pin );
		}

		bitmask <<= 1;
	}
}
 80069c0:	4770      	bx	lr
 80069c2:	bf00      	nop
 80069c4:	20000d3c 	.word	0x20000d3c

080069c8 <SCI_init>:
// -------------- Public function implementations --------------
void SCI_init(void)
{

	SCI.USART = USART3;
	setvbuf(stdout, NULL, _IONBF, 0);
 80069c8:	4a10      	ldr	r2, [pc, #64]	@ (8006a0c <SCI_init+0x44>)
 80069ca:	6810      	ldr	r0, [r2, #0]
{
 80069cc:	b538      	push	{r3, r4, r5, lr}
	setvbuf(stdout, NULL, _IONBF, 0);
 80069ce:	2300      	movs	r3, #0
	SCI.USART = USART3;
 80069d0:	4c0f      	ldr	r4, [pc, #60]	@ (8006a10 <SCI_init+0x48>)
 80069d2:	4d10      	ldr	r5, [pc, #64]	@ (8006a14 <SCI_init+0x4c>)
	setvbuf(stdout, NULL, _IONBF, 0);
 80069d4:	6880      	ldr	r0, [r0, #8]
	SCI.USART = USART3;
 80069d6:	6025      	str	r5, [r4, #0]
	setvbuf(stdout, NULL, _IONBF, 0);
 80069d8:	4619      	mov	r1, r3
 80069da:	2202      	movs	r2, #2
 80069dc:	f000 ffd0 	bl	8007980 <setvbuf>

	BUF_init( &SCI_RX_buf_handle, SCI_RX_buffer, SCI_RX_BUF_LEN);	
 80069e0:	490d      	ldr	r1, [pc, #52]	@ (8006a18 <SCI_init+0x50>)
 80069e2:	480e      	ldr	r0, [pc, #56]	@ (8006a1c <SCI_init+0x54>)
 80069e4:	f44f 7200 	mov.w	r2, #512	@ 0x200
 80069e8:	f000 f862 	bl	8006ab0 <BUF_init>
	BUF_init( &SCI_TX_buf_handle, SCI_TX_buffer, SCI_TX_BUF_LEN);	
 80069ec:	f44f 7200 	mov.w	r2, #512	@ 0x200
 80069f0:	490b      	ldr	r1, [pc, #44]	@ (8006a20 <SCI_init+0x58>)
 80069f2:	480c      	ldr	r0, [pc, #48]	@ (8006a24 <SCI_init+0x5c>)
 80069f4:	f000 f85c 	bl	8006ab0 <BUF_init>
  ATOMIC_SET_BIT(USARTx->CR1, USART_CR1_RXNEIE_RXFNEIE);
 80069f8:	6822      	ldr	r2, [r4, #0]
   __ASM volatile ("ldrex %0, %1" : "=r" (result) : "Q" (*addr) );
 80069fa:	e852 3f00 	ldrex	r3, [r2]
 80069fe:	f043 0320 	orr.w	r3, r3, #32
   __ASM volatile ("strex %0, %2, %1" : "=&r" (result), "=Q" (*addr) : "r" (value) );
 8006a02:	e842 3100 	strex	r1, r3, [r2]
 8006a06:	2900      	cmp	r1, #0
 8006a08:	d1f7      	bne.n	80069fa <SCI_init+0x32>

	LL_USART_EnableIT_RXNE_RXFNE (SCI.USART);
}
 8006a0a:	bd38      	pop	{r3, r4, r5, pc}
 8006a0c:	20000060 	.word	0x20000060
 8006a10:	200011ac 	.word	0x200011ac
 8006a14:	40004800 	.word	0x40004800
 8006a18:	20000fac 	.word	0x20000fac
 8006a1c:	20000f94 	.word	0x20000f94
 8006a20:	20000d94 	.word	0x20000d94
 8006a24:	20000d7c 	.word	0x20000d7c

08006a28 <_write>:
	}
}

void SCI_send_bytes(uint8_t *data, uint32_t size)
{
	for( int i = 0 ; i < size ; i++ )
 8006a28:	4610      	mov	r0, r2
 8006a2a:	b182      	cbz	r2, 8006a4e <_write+0x26>
	while( ! (LL_USART_IsActiveFlag_TXE_TXFNF (SCI.USART)))
 8006a2c:	4b08      	ldr	r3, [pc, #32]	@ (8006a50 <_write+0x28>)
 8006a2e:	f101 3cff 	add.w	ip, r1, #4294967295
 8006a32:	6819      	ldr	r1, [r3, #0]
	}
}

// -------------- Private function implementations -------------
int _write(int file, char *ptr, int len)
{
 8006a34:	b500      	push	{lr}
 8006a36:	eb0c 0e02 	add.w	lr, ip, r2
		SCI_send_byte(data[i]);
 8006a3a:	f81c 2f01 	ldrb.w	r2, [ip, #1]!
  return ((READ_BIT(USARTx->ISR, USART_ISR_TXE_TXFNF) == (USART_ISR_TXE_TXFNF)) ? 1UL : 0UL);
 8006a3e:	69cb      	ldr	r3, [r1, #28]
 8006a40:	061b      	lsls	r3, r3, #24
 8006a42:	d5fc      	bpl.n	8006a3e <_write+0x16>
	for( int i = 0 ; i < size ; i++ )
 8006a44:	45f4      	cmp	ip, lr
  * @param  Value between Min_Data=0x00 and Max_Data=0xFF
  * @retval None
  */
__STATIC_INLINE void LL_USART_TransmitData8(USART_TypeDef *USARTx, uint8_t Value)
{
  USARTx->TDR = Value;
 8006a46:	628a      	str	r2, [r1, #40]	@ 0x28
 8006a48:	d1f7      	bne.n	8006a3a <_write+0x12>
	SCI_send_bytes( (uint8_t*) ptr, (uint32_t) len );
	return len;
}
 8006a4a:	f85d fb04 	ldr.w	pc, [sp], #4
 8006a4e:	4770      	bx	lr
 8006a50:	200011ac 	.word	0x200011ac

08006a54 <SCI_receive_char_Callback>:
}

void SCI_receive_char_Callback(void)
{
	uint8_t received_data;
	received_data = LL_USART_ReceiveData8 (SCI.USART);
 8006a54:	4b03      	ldr	r3, [pc, #12]	@ (8006a64 <SCI_receive_char_Callback+0x10>)
	BUF_store_byte( &SCI_RX_buf_handle, received_data );
 8006a56:	4804      	ldr	r0, [pc, #16]	@ (8006a68 <SCI_receive_char_Callback+0x14>)
	received_data = LL_USART_ReceiveData8 (SCI.USART);
 8006a58:	681b      	ldr	r3, [r3, #0]
  return (uint8_t)(READ_BIT(USARTx->RDR, USART_RDR_RDR) & 0xFFU);
 8006a5a:	6a59      	ldr	r1, [r3, #36]	@ 0x24
	BUF_store_byte( &SCI_RX_buf_handle, received_data );
 8006a5c:	b2c9      	uxtb	r1, r1
 8006a5e:	f000 b837 	b.w	8006ad0 <BUF_store_byte>
 8006a62:	bf00      	nop
 8006a64:	200011ac 	.word	0x200011ac
 8006a68:	20000f94 	.word	0x20000f94

08006a6c <SCI_transmit_char_Callback>:
}

void SCI_transmit_char_Callback(void)
{
 8006a6c:	b500      	push	{lr}
 8006a6e:	b083      	sub	sp, #12
	uint8_t 			data_to_transmit;	
	buf_rtrn_codes_t	return_code;			

	return_code = BUF_get_byte( &SCI_TX_buf_handle, &data_to_transmit );
 8006a70:	480d      	ldr	r0, [pc, #52]	@ (8006aa8 <SCI_transmit_char_Callback+0x3c>)
 8006a72:	f10d 0107 	add.w	r1, sp, #7
 8006a76:	f000 f84d 	bl	8006b14 <BUF_get_byte>

	if ( return_code == BUFFER_OK )
 8006a7a:	b920      	cbnz	r0, 8006a86 <SCI_transmit_char_Callback+0x1a>
	{
		LL_USART_TransmitData8 (SCI.USART, data_to_transmit);
 8006a7c:	4b0b      	ldr	r3, [pc, #44]	@ (8006aac <SCI_transmit_char_Callback+0x40>)
  USARTx->TDR = Value;
 8006a7e:	f89d 2007 	ldrb.w	r2, [sp, #7]
 8006a82:	681b      	ldr	r3, [r3, #0]
 8006a84:	629a      	str	r2, [r3, #40]	@ 0x28
	}

	if ( BUF_get_data_size( &SCI_TX_buf_handle ) == 0)
 8006a86:	4808      	ldr	r0, [pc, #32]	@ (8006aa8 <SCI_transmit_char_Callback+0x3c>)
 8006a88:	f000 f85c 	bl	8006b44 <BUF_get_data_size>
 8006a8c:	b948      	cbnz	r0, 8006aa2 <SCI_transmit_char_Callback+0x36>
	{
		LL_USART_EnableIT_TXE_TXFNF (SCI.USART);
 8006a8e:	4b07      	ldr	r3, [pc, #28]	@ (8006aac <SCI_transmit_char_Callback+0x40>)
  ATOMIC_SET_BIT(USARTx->CR1, USART_CR1_TXEIE_TXFNFIE);
 8006a90:	681a      	ldr	r2, [r3, #0]
   __ASM volatile ("ldrex %0, %1" : "=r" (result) : "Q" (*addr) );
 8006a92:	e852 3f00 	ldrex	r3, [r2]
 8006a96:	f043 0380 	orr.w	r3, r3, #128	@ 0x80
   __ASM volatile ("strex %0, %2, %1" : "=&r" (result), "=Q" (*addr) : "r" (value) );
 8006a9a:	e842 3100 	strex	r1, r3, [r2]
 8006a9e:	2900      	cmp	r1, #0
 8006aa0:	d1f7      	bne.n	8006a92 <SCI_transmit_char_Callback+0x26>
	}

}
 8006aa2:	b003      	add	sp, #12
 8006aa4:	f85d fb04 	ldr.w	pc, [sp], #4
 8006aa8:	20000d7c 	.word	0x20000d7c
 8006aac:	200011ac 	.word	0x200011ac

08006ab0 <BUF_init>:
}


buf_rtrn_codes_t BUF_flush(buf_handle_t *buf_handle)
{
	buf_handle->front = 0;
 8006ab0:	2300      	movs	r3, #0
	buf_handle->length = buf_length;
 8006ab2:	e9c0 1200 	strd	r1, r2, [r0]
	buf_handle->rear = 0;
 8006ab6:	e9c0 3302 	strd	r3, r3, [r0, #8]
	buf_handle->data_size = 0;
	buf_handle->free_size = buf_handle->length;
 8006aba:	e9c0 3204 	strd	r3, r2, [r0, #16]
}
 8006abe:	4770      	bx	lr

08006ac0 <BUF_flush>:
{
 8006ac0:	4603      	mov	r3, r0
	buf_handle->rear = 0;
 8006ac2:	2000      	movs	r0, #0
	buf_handle->free_size = buf_handle->length;
 8006ac4:	685a      	ldr	r2, [r3, #4]
	buf_handle->rear = 0;
 8006ac6:	e9c3 0002 	strd	r0, r0, [r3, #8]
	buf_handle->free_size = buf_handle->length;
 8006aca:	e9c3 0204 	strd	r0, r2, [r3, #16]

	return BUFFER_OK;
}
 8006ace:	4770      	bx	lr

08006ad0 <BUF_store_byte>:

buf_rtrn_codes_t BUF_store_byte(buf_handle_t *buf_handle, uint8_t data)
{
	if (buf_handle->data_size >= buf_handle->length)
 8006ad0:	6902      	ldr	r2, [r0, #16]
{
 8006ad2:	4603      	mov	r3, r0
	if (buf_handle->data_size >= buf_handle->length)
 8006ad4:	6840      	ldr	r0, [r0, #4]
 8006ad6:	4282      	cmp	r2, r0
 8006ad8:	d210      	bcs.n	8006afc <BUF_store_byte+0x2c>
{
 8006ada:	b410      	push	{r4}
	{
		return BUFFER_FULL;	
	}
	else
	{
		if (buf_handle->data_size == 0)
 8006adc:	b982      	cbnz	r2, 8006b00 <BUF_store_byte+0x30>
		{
			buf_handle->front = 0;
			buf_handle->rear = 0;
 8006ade:	e9c3 2202 	strd	r2, r2, [r3, #8]
{
 8006ae2:	2200      	movs	r2, #0
			{
				buf_handle->rear = 0;
			}
		}

		buf_handle->buffer[buf_handle->rear] = data;
 8006ae4:	681c      	ldr	r4, [r3, #0]
 8006ae6:	54a1      	strb	r1, [r4, r2]

		buf_handle->data_size++;
		buf_handle->free_size--;
 8006ae8:	e9d3 1204 	ldrd	r1, r2, [r3, #16]
		buf_handle->data_size++;
 8006aec:	3101      	adds	r1, #1
		buf_handle->free_size--;
 8006aee:	3a01      	subs	r2, #1
 8006af0:	2000      	movs	r0, #0
 8006af2:	e9c3 1204 	strd	r1, r2, [r3, #16]

		return BUFFER_OK;
	}

}
 8006af6:	f85d 4b04 	ldr.w	r4, [sp], #4
 8006afa:	4770      	bx	lr
		return BUFFER_FULL;	
 8006afc:	2001      	movs	r0, #1
}
 8006afe:	4770      	bx	lr
			buf_handle->rear++;
 8006b00:	689a      	ldr	r2, [r3, #8]
 8006b02:	3201      	adds	r2, #1
			if (buf_handle->rear >= buf_handle->length)
 8006b04:	4290      	cmp	r0, r2
 8006b06:	d802      	bhi.n	8006b0e <BUF_store_byte+0x3e>
				buf_handle->rear = 0;
 8006b08:	2200      	movs	r2, #0
 8006b0a:	609a      	str	r2, [r3, #8]
 8006b0c:	e7e9      	b.n	8006ae2 <BUF_store_byte+0x12>
			buf_handle->rear++;
 8006b0e:	609a      	str	r2, [r3, #8]
 8006b10:	e7e8      	b.n	8006ae4 <BUF_store_byte+0x14>
 8006b12:	bf00      	nop

08006b14 <BUF_get_byte>:
	}
}

buf_rtrn_codes_t BUF_get_byte(buf_handle_t *buf_handle, uint8_t *data)
{
	if (buf_handle->data_size == 0)
 8006b14:	6903      	ldr	r3, [r0, #16]
 8006b16:	b19b      	cbz	r3, 8006b40 <BUF_get_byte+0x2c>
	{
		return BUFFER_EMPTY;	
	}

	*data = buf_handle->buffer[buf_handle->front];	
 8006b18:	68c3      	ldr	r3, [r0, #12]
 8006b1a:	6802      	ldr	r2, [r0, #0]
 8006b1c:	5cd3      	ldrb	r3, [r2, r3]
 8006b1e:	700b      	strb	r3, [r1, #0]
	buf_handle->data_size--;
	buf_handle->free_size++;
 8006b20:	e9d0 1204 	ldrd	r1, r2, [r0, #16]

	buf_handle->front++;
 8006b24:	68c3      	ldr	r3, [r0, #12]
	buf_handle->free_size++;
 8006b26:	3201      	adds	r2, #1
	buf_handle->data_size--;
 8006b28:	3901      	subs	r1, #1
	buf_handle->free_size++;
 8006b2a:	e9c0 1204 	strd	r1, r2, [r0, #16]

	if (buf_handle->front >= buf_handle->length)
 8006b2e:	6842      	ldr	r2, [r0, #4]
	buf_handle->front++;
 8006b30:	3301      	adds	r3, #1
	if (buf_handle->front >= buf_handle->length)
 8006b32:	4293      	cmp	r3, r2
	buf_handle->front++;
 8006b34:	60c3      	str	r3, [r0, #12]
	if (buf_handle->front >= buf_handle->length)
 8006b36:	d301      	bcc.n	8006b3c <BUF_get_byte+0x28>
	{
		buf_handle->front = 0;
 8006b38:	2300      	movs	r3, #0
 8006b3a:	60c3      	str	r3, [r0, #12]
	}

	return BUFFER_OK;	
 8006b3c:	2000      	movs	r0, #0
 8006b3e:	4770      	bx	lr
		return BUFFER_EMPTY;	
 8006b40:	2002      	movs	r0, #2
}
 8006b42:	4770      	bx	lr

08006b44 <BUF_get_data_size>:
}

uint32_t BUF_get_data_size(buf_handle_t *buf_handle)
{
	return buf_handle->data_size;
}
 8006b44:	6900      	ldr	r0, [r0, #16]
 8006b46:	4770      	bx	lr

08006b48 <JOY_init>:
uint8_t 		joy_btn_buffer[JOY_BTN_BUF_LEN];			
buf_handle_t 	joy_btn_buf_handle;					

// ------------- Public function implementations --------------
void JOY_init(ADC_HandleTypeDef *ADC_handle, TIM_HandleTypeDef *timer_handle)
{
 8006b48:	b570      	push	{r4, r5, r6, lr}

	joystick.button.pin = LL_GPIO_PIN_13;
 8006b4a:	4c14      	ldr	r4, [pc, #80]	@ (8006b9c <JOY_init+0x54>)
	joystick.button.port = GPIOC;
 8006b4c:	4e14      	ldr	r6, [pc, #80]	@ (8006ba0 <JOY_init+0x58>)
 8006b4e:	6026      	str	r6, [r4, #0]
{
 8006b50:	4605      	mov	r5, r0
 8006b52:	460b      	mov	r3, r1
	joystick.position_raw_min[X] = 820;
	joystick.position_raw_min[Y] = 739;
	joystick.position_raw_max[X] = 3101;
	joystick.position_raw_max[Y] = 3100;

	joystick.ADC = ADC_handle;
 8006b54:	6225      	str	r5, [r4, #32]
	joystick.button.pin = LL_GPIO_PIN_13;
 8006b56:	f44f 5500 	mov.w	r5, #8192	@ 0x2000
 8006b5a:	6065      	str	r5, [r4, #4]
	joystick.timer = timer_handle;
 8006b5c:	61e3      	str	r3, [r4, #28]
	joystick.position_raw_min[X] = 820;
 8006b5e:	4d11      	ldr	r5, [pc, #68]	@ (8006ba4 <JOY_init+0x5c>)
 8006b60:	4b11      	ldr	r3, [pc, #68]	@ (8006ba8 <JOY_init+0x60>)

	BUF_init( &joy_btn_buf_handle, joy_btn_buffer, JOY_BTN_BUF_LEN);
 8006b62:	4812      	ldr	r0, [pc, #72]	@ (8006bac <JOY_init+0x64>)
 8006b64:	4912      	ldr	r1, [pc, #72]	@ (8006bb0 <JOY_init+0x68>)
	joystick.position_raw_min[X] = 820;
 8006b66:	e9c4 5304 	strd	r5, r3, [r4, #16]
	BUF_init( &joy_btn_buf_handle, joy_btn_buffer, JOY_BTN_BUF_LEN);
 8006b6a:	2210      	movs	r2, #16
	joystick.button.state_new = JOY_BTN_SIG_VALUE_RELEASED;
 8006b6c:	f240 1301 	movw	r3, #257	@ 0x101
 8006b70:	8123      	strh	r3, [r4, #8]
	BUF_init( &joy_btn_buf_handle, joy_btn_buffer, JOY_BTN_BUF_LEN);
 8006b72:	f7ff ff9d 	bl	8006ab0 <BUF_init>

	HAL_ADCEx_Calibration_Start( joystick.ADC, ADC_SINGLE_ENDED );
 8006b76:	6a20      	ldr	r0, [r4, #32]
 8006b78:	217f      	movs	r1, #127	@ 0x7f
 8006b7a:	f7fd fb69 	bl	8004250 <HAL_ADCEx_Calibration_Start>
	HAL_ADC_Start_DMA( joystick.ADC, (uint32_t *) joystick.position_raw , 2);
 8006b7e:	f104 010c 	add.w	r1, r4, #12
 8006b82:	6a20      	ldr	r0, [r4, #32]
 8006b84:	2202      	movs	r2, #2
 8006b86:	f7fd fa9f 	bl	80040c8 <HAL_ADC_Start_DMA>
	HAL_TIM_Base_Start( joystick.timer);
 8006b8a:	69e0      	ldr	r0, [r4, #28]
 8006b8c:	f7fe ff3c 	bl	8005a08 <HAL_TIM_Base_Start>
	HAL_Delay(11);
}
 8006b90:	e8bd 4070 	ldmia.w	sp!, {r4, r5, r6, lr}
	HAL_Delay(11);
 8006b94:	200b      	movs	r0, #11
 8006b96:	f7fc be29 	b.w	80037ec <HAL_Delay>
 8006b9a:	bf00      	nop
 8006b9c:	200011d8 	.word	0x200011d8
 8006ba0:	48000800 	.word	0x48000800
 8006ba4:	02e30334 	.word	0x02e30334
 8006ba8:	0c1c0c1d 	.word	0x0c1c0c1d
 8006bac:	200011b0 	.word	0x200011b0
 8006bb0:	200011c8 	.word	0x200011c8

08006bb4 <KBD_init>:
buf_handle_t 	kbd_buf_handle;				

// -------------- Public function implementations --------------
void KBD_init(void)
{
	keyboard.buttons[ BTN_ESC ].pin = LL_GPIO_PIN_14 ;
 8006bb4:	4b16      	ldr	r3, [pc, #88]	@ (8006c10 <KBD_init+0x5c>)

	keyboard.buttons[ BTN_OK ].pin = LL_GPIO_PIN_15 ;
	keyboard.buttons[ BTN_OK ].port = GPIOC;

	keyboard.buttons[ BTN_RIGHT ].pin = LL_GPIO_PIN_8 ;
	keyboard.buttons[ BTN_RIGHT ].port = GPIOG;
 8006bb6:	4817      	ldr	r0, [pc, #92]	@ (8006c14 <KBD_init+0x60>)
	keyboard.buttons[ BTN_ESC ].port = GPIOC;
 8006bb8:	4a17      	ldr	r2, [pc, #92]	@ (8006c18 <KBD_init+0x64>)
	keyboard.buttons[ BTN_ESC ].pin = LL_GPIO_PIN_14 ;
 8006bba:	f44f 4180 	mov.w	r1, #16384	@ 0x4000
{
 8006bbe:	b410      	push	{r4}
	keyboard.buttons[ BTN_ESC ].pin = LL_GPIO_PIN_14 ;
 8006bc0:	6419      	str	r1, [r3, #64]	@ 0x40
	keyboard.buttons[ BTN_OK ].pin = LL_GPIO_PIN_15 ;
 8006bc2:	f44f 4100 	mov.w	r1, #32768	@ 0x8000
	keyboard.buttons[ BTN_UP ].port = GPIOG;

	for(int i=0; i < BTN_NUM; i++)
	{
		keyboard.buttons[i].state_new = BTN_SIG_VALUE_RELEASED;
		keyboard.buttons[i].state_old = BTN_SIG_VALUE_RELEASED;
 8006bc6:	f240 1c01 	movw	ip, #257	@ 0x101
	keyboard.buttons[ BTN_OK ].pin = LL_GPIO_PIN_15 ;
 8006bca:	6359      	str	r1, [r3, #52]	@ 0x34
	keyboard.buttons[ BTN_RIGHT ].pin = LL_GPIO_PIN_8 ;
 8006bcc:	f44f 7180 	mov.w	r1, #256	@ 0x100
	keyboard.buttons[ BTN_UP ].pin = LL_GPIO_PIN_0 ;
 8006bd0:	2401      	movs	r4, #1
	keyboard.buttons[ BTN_ESC ].port = GPIOC;
 8006bd2:	63da      	str	r2, [r3, #60]	@ 0x3c
	keyboard.buttons[ BTN_OK ].port = GPIOC;
 8006bd4:	631a      	str	r2, [r3, #48]	@ 0x30
	keyboard.buttons[ BTN_RIGHT ].pin = LL_GPIO_PIN_8 ;
 8006bd6:	6299      	str	r1, [r3, #40]	@ 0x28
	keyboard.buttons[ BTN_DOWN ].pin = LL_GPIO_PIN_1 ;
 8006bd8:	2202      	movs	r2, #2
	keyboard.buttons[ BTN_LEFT ].pin = LL_GPIO_PIN_6 ;
 8006bda:	2140      	movs	r1, #64	@ 0x40
		keyboard.buttons[i].state_old = BTN_SIG_VALUE_RELEASED;
 8006bdc:	f8a3 c008 	strh.w	ip, [r3, #8]
 8006be0:	f8a3 c014 	strh.w	ip, [r3, #20]
 8006be4:	f8a3 c020 	strh.w	ip, [r3, #32]
 8006be8:	f8a3 c02c 	strh.w	ip, [r3, #44]	@ 0x2c
 8006bec:	f8a3 c038 	strh.w	ip, [r3, #56]	@ 0x38
 8006bf0:	f8a3 c044 	strh.w	ip, [r3, #68]	@ 0x44
	keyboard.buttons[ BTN_LEFT ].port = GPIOG;
 8006bf4:	e9c3 0106 	strd	r0, r1, [r3, #24]
	keyboard.buttons[ BTN_UP ].port = GPIOG;
 8006bf8:	e9c3 0400 	strd	r0, r4, [r3]
	keyboard.buttons[ BTN_RIGHT ].port = GPIOG;
 8006bfc:	6258      	str	r0, [r3, #36]	@ 0x24
	keyboard.buttons[ BTN_DOWN ].pin = LL_GPIO_PIN_1 ;
 8006bfe:	611a      	str	r2, [r3, #16]
	keyboard.buttons[ BTN_DOWN ].port = GPIOG;
 8006c00:	60d8      	str	r0, [r3, #12]
	}

	BUF_init( &kbd_buf_handle, kbd_buffer, KBD_BUF_LEN);
 8006c02:	4906      	ldr	r1, [pc, #24]	@ (8006c1c <KBD_init+0x68>)
 8006c04:	4806      	ldr	r0, [pc, #24]	@ (8006c20 <KBD_init+0x6c>)
}
 8006c06:	f85d 4b04 	ldr.w	r4, [sp], #4
	BUF_init( &kbd_buf_handle, kbd_buffer, KBD_BUF_LEN);
 8006c0a:	2220      	movs	r2, #32
 8006c0c:	f7ff bf50 	b.w	8006ab0 <BUF_init>
 8006c10:	20001234 	.word	0x20001234
 8006c14:	48001800 	.word	0x48001800
 8006c18:	48000800 	.word	0x48000800
 8006c1c:	20001214 	.word	0x20001214
 8006c20:	200011fc 	.word	0x200011fc

08006c24 <KBD_scan>:

void KBD_scan(void)
{
 8006c24:	e92d 41f0 	stmdb	sp!, {r4, r5, r6, r7, r8, lr}
	for(int i=0; i < BTN_NUM; i++)
 8006c28:	2500      	movs	r5, #0
 8006c2a:	4c11      	ldr	r4, [pc, #68]	@ (8006c70 <KBD_scan+0x4c>)
		keyboard.buttons[i].state_old = keyboard.buttons[i].state_new ;
		keyboard.buttons[i].state_new = LL_GPIO_IsInputPinSet( keyboard.buttons[i].port, keyboard.buttons[i].pin);

		if ((keyboard.buttons[i].state_new != keyboard.buttons[i].state_old) && (keyboard.buttons[i].state_new==BTN_SIG_VALUE_PRESSED ))
		{
			BUF_store_byte( &kbd_buf_handle, i);
 8006c2c:	4e11      	ldr	r6, [pc, #68]	@ (8006c74 <KBD_scan+0x50>)
		keyboard.buttons[i].state_new = LL_GPIO_IsInputPinSet( keyboard.buttons[i].port, keyboard.buttons[i].pin);
 8006c2e:	462f      	mov	r7, r5
 8006c30:	f04f 0801 	mov.w	r8, #1
 8006c34:	e008      	b.n	8006c48 <KBD_scan+0x24>
 8006c36:	7267      	strb	r7, [r4, #9]
		if ((keyboard.buttons[i].state_new != keyboard.buttons[i].state_old) && (keyboard.buttons[i].state_new==BTN_SIG_VALUE_PRESSED ))
 8006c38:	b10a      	cbz	r2, 8006c3e <KBD_scan+0x1a>
			BUF_store_byte( &kbd_buf_handle, i);
 8006c3a:	f7ff ff49 	bl	8006ad0 <BUF_store_byte>
	for(int i=0; i < BTN_NUM; i++)
 8006c3e:	3501      	adds	r5, #1
 8006c40:	2d06      	cmp	r5, #6
 8006c42:	f104 040c 	add.w	r4, r4, #12
 8006c46:	d010      	beq.n	8006c6a <KBD_scan+0x46>
		keyboard.buttons[i].state_old = keyboard.buttons[i].state_new ;
 8006c48:	7a62      	ldrb	r2, [r4, #9]
		keyboard.buttons[i].state_new = LL_GPIO_IsInputPinSet( keyboard.buttons[i].port, keyboard.buttons[i].pin);
 8006c4a:	6823      	ldr	r3, [r4, #0]
		keyboard.buttons[i].state_old = keyboard.buttons[i].state_new ;
 8006c4c:	7222      	strb	r2, [r4, #8]
		keyboard.buttons[i].state_new = LL_GPIO_IsInputPinSet( keyboard.buttons[i].port, keyboard.buttons[i].pin);
 8006c4e:	6860      	ldr	r0, [r4, #4]
  return ((READ_BIT(GPIOx->IDR, PinMask) == (PinMask)) ? 1UL : 0UL);
 8006c50:	691b      	ldr	r3, [r3, #16]
 8006c52:	ea30 0303 	bics.w	r3, r0, r3
			BUF_store_byte( &kbd_buf_handle, i);
 8006c56:	b2e9      	uxtb	r1, r5
 8006c58:	4630      	mov	r0, r6
 8006c5a:	d1ec      	bne.n	8006c36 <KBD_scan+0x12>
	for(int i=0; i < BTN_NUM; i++)
 8006c5c:	3501      	adds	r5, #1
 8006c5e:	2d06      	cmp	r5, #6
		keyboard.buttons[i].state_new = LL_GPIO_IsInputPinSet( keyboard.buttons[i].port, keyboard.buttons[i].pin);
 8006c60:	f884 8009 	strb.w	r8, [r4, #9]
	for(int i=0; i < BTN_NUM; i++)
 8006c64:	f104 040c 	add.w	r4, r4, #12
 8006c68:	d1ee      	bne.n	8006c48 <KBD_scan+0x24>
		}
	}
}
 8006c6a:	e8bd 81f0 	ldmia.w	sp!, {r4, r5, r6, r7, r8, pc}
 8006c6e:	bf00      	nop
 8006c70:	20001234 	.word	0x20001234
 8006c74:	200011fc 	.word	0x200011fc

08006c78 <KBD_get_pressed_key>:

buttons_enum_t KBD_get_pressed_key(void)
{
 8006c78:	b500      	push	{lr}
 8006c7a:	b083      	sub	sp, #12
	buttons_enum_t pressed_button;
	if ( BUF_get_byte( &kbd_buf_handle, &pressed_button ) == BUFFER_OK )
 8006c7c:	4807      	ldr	r0, [pc, #28]	@ (8006c9c <KBD_get_pressed_key+0x24>)
 8006c7e:	f10d 0107 	add.w	r1, sp, #7
 8006c82:	f7ff ff47 	bl	8006b14 <BUF_get_byte>
 8006c86:	b920      	cbnz	r0, 8006c92 <KBD_get_pressed_key+0x1a>
	{
		return pressed_button;
 8006c88:	f89d 0007 	ldrb.w	r0, [sp, #7]
	else
	{
		return BTN_NONE;
	}

}
 8006c8c:	b003      	add	sp, #12
 8006c8e:	f85d fb04 	ldr.w	pc, [sp], #4
		return BTN_NONE;
 8006c92:	2007      	movs	r0, #7
}
 8006c94:	b003      	add	sp, #12
 8006c96:	f85d fb04 	ldr.w	pc, [sp], #4
 8006c9a:	bf00      	nop
 8006c9c:	200011fc 	.word	0x200011fc

08006ca0 <KBD_flush>:
}


void KBD_flush(void){ 

	BUF_flush(&kbd_buf_handle);
 8006ca0:	4801      	ldr	r0, [pc, #4]	@ (8006ca8 <KBD_flush+0x8>)
 8006ca2:	f7ff bf0d 	b.w	8006ac0 <BUF_flush>
 8006ca6:	bf00      	nop
 8006ca8:	200011fc 	.word	0x200011fc

08006cac <UserPixelSetFunction>:

// ------ Definicija dveh temeljnih funkcij za risanje na zaslon -------

// Implementacija funkcije za izris enega samega piksla na zaslon.
void UserPixelSetFunction(UG_S16 x, UG_S16 y, UG_COLOR c)
{
 8006cac:	b500      	push	{lr}
 8006cae:	b083      	sub	sp, #12
	ILI9341_SetDisplayWindow(x, y, 1, 1);
 8006cb0:	2301      	movs	r3, #1
{
 8006cb2:	9201      	str	r2, [sp, #4]
	ILI9341_SetDisplayWindow(x, y, 1, 1);
 8006cb4:	461a      	mov	r2, r3
 8006cb6:	f000 f89f 	bl	8006df8 <ILI9341_SetDisplayWindow>
	ILI9341_SendData((LCD_IO_Data_t *)&c, 1);
 8006cba:	2101      	movs	r1, #1
 8006cbc:	a801      	add	r0, sp, #4
 8006cbe:	f000 f87b 	bl	8006db8 <ILI9341_SendData>
}
 8006cc2:	b003      	add	sp, #12
 8006cc4:	f85d fb04 	ldr.w	pc, [sp], #4

08006cc8 <LCD_Init>:
{
 8006cc8:	b570      	push	{r4, r5, r6, lr}
	LCD_RST_LOW();
 8006cca:	4c19      	ldr	r4, [pc, #100]	@ (8006d30 <LCD_Init+0x68>)
 8006ccc:	2508      	movs	r5, #8
 8006cce:	62a5      	str	r5, [r4, #40]	@ 0x28
	HAL_Delay(120);
 8006cd0:	2078      	movs	r0, #120	@ 0x78
 8006cd2:	f7fc fd8b 	bl	80037ec <HAL_Delay>
	LCD_RST_HIGH();
 8006cd6:	61a5      	str	r5, [r4, #24]
	HAL_Delay(120);
 8006cd8:	2078      	movs	r0, #120	@ 0x78
 8006cda:	f7fc fd87 	bl	80037ec <HAL_Delay>
	ILI9341_Init(ILI9341_COLORSPACE_RBG565, ILI9341_MISKO_ROTATE_0);
 8006cde:	2103      	movs	r1, #3
 8006ce0:	2055      	movs	r0, #85	@ 0x55
 8006ce2:	f000 f8f5 	bl	8006ed0 <ILI9341_Init>
	ILI9341_DisplayOn();
 8006ce6:	f000 f96b 	bl	8006fc0 <ILI9341_DisplayOn>
    LCD_FillRect(0, 0, ILI9341_GetParam(LCD_WIDTH), ILI9341_GetParam(LCD_HEIGHT), 0);
 8006cea:	2000      	movs	r0, #0
 8006cec:	f000 f970 	bl	8006fd0 <ILI9341_GetParam>
 8006cf0:	4605      	mov	r5, r0
 8006cf2:	2001      	movs	r0, #1
 8006cf4:	f000 f96c 	bl	8006fd0 <ILI9341_GetParam>
 8006cf8:	4606      	mov	r6, r0
	uint32_t max_count   = ILI9341_GetParam(LCD_AREA);     /* t. vseh pikslov     */
 8006cfa:	2002      	movs	r0, #2
 8006cfc:	f000 f968 	bl	8006fd0 <ILI9341_GetParam>
	uint32_t pixel_count = ((w + 1) - x) * ((h + 1) - y);  /* Dejansko t. pikslov */
 8006d00:	f106 0c01 	add.w	ip, r6, #1
 8006d04:	fb05 c40c 	mla	r4, r5, ip, ip
 8006d08:	4284      	cmp	r4, r0
	ILI9341_SetDisplayWindow(x, y, w, h);
 8006d0a:	f04f 0100 	mov.w	r1, #0
 8006d0e:	bf28      	it	cs
 8006d10:	4604      	movcs	r4, r0
 8006d12:	4633      	mov	r3, r6
 8006d14:	462a      	mov	r2, r5
 8006d16:	4608      	mov	r0, r1
 8006d18:	f000 f86e 	bl	8006df8 <ILI9341_SetDisplayWindow>
	ILI9341_SendRepeatedData(c, pixel_count);
 8006d1c:	4621      	mov	r1, r4
 8006d1e:	2000      	movs	r0, #0
 8006d20:	f000 f85e 	bl	8006de0 <ILI9341_SendRepeatedData>
	ILI9341_WaitTransfer();
 8006d24:	f000 f948 	bl	8006fb8 <ILI9341_WaitTransfer>
}
 8006d28:	e8bd 4070 	ldmia.w	sp!, {r4, r5, r6, lr}
	LCD_BKLT_init();
 8006d2c:	f000 b826 	b.w	8006d7c <LCD_BKLT_init>
 8006d30:	48000c00 	.word	0x48000c00

08006d34 <LCD_uGUI_init>:

// ------------ Inicializacija uGUI za delo z naim zaslonom -------------------

// Inicializacija uGUI knjinice za delo z naim LCD zaslonom.
void LCD_uGUI_init(void)
{
 8006d34:	b510      	push	{r4, lr}
	// Inicializacija uGUI knjinice: registracija funkcije za izris enega piksla na zaslon,
	// specifikacija resolucije zaslona.
	UG_Init(&gui, UserPixelSetFunction, ILI9341_GetParam(LCD_WIDTH), ILI9341_GetParam(LCD_HEIGHT));
 8006d36:	2000      	movs	r0, #0
 8006d38:	f000 f94a 	bl	8006fd0 <ILI9341_GetParam>
 8006d3c:	4604      	mov	r4, r0
 8006d3e:	2001      	movs	r0, #1
 8006d40:	f000 f946 	bl	8006fd0 <ILI9341_GetParam>
 8006d44:	4622      	mov	r2, r4
 8006d46:	4603      	mov	r3, r0
 8006d48:	4907      	ldr	r1, [pc, #28]	@ (8006d68 <LCD_uGUI_init+0x34>)
 8006d4a:	4808      	ldr	r0, [pc, #32]	@ (8006d6c <LCD_uGUI_init+0x38>)
 8006d4c:	f000 f99a 	bl	8007084 <UG_Init>

	// Nastavitev "default" fontov in barv za besedilo in ozadje.
	UG_FontSelect(&FONT_8X12);
 8006d50:	4807      	ldr	r0, [pc, #28]	@ (8006d70 <LCD_uGUI_init+0x3c>)
 8006d52:	f000 f9cb 	bl	80070ec <UG_FontSelect>
	UG_SetForecolor(C_WHITE);
 8006d56:	f64f 70ff 	movw	r0, #65535	@ 0xffff
 8006d5a:	f000 f9d9 	bl	8007110 <UG_SetForecolor>
	UG_SetBackcolor(C_BLACK);

	// Registracija funkcij za izris pravokotnika.
	//UG_DriverRegister(DRIVER_FILL_FRAME, (void *)_HW_FillFrame_);
	//UG_DriverEnable(DRIVER_FILL_FRAME);
}
 8006d5e:	e8bd 4010 	ldmia.w	sp!, {r4, lr}
	UG_SetBackcolor(C_BLACK);
 8006d62:	2000      	movs	r0, #0
 8006d64:	f000 b9da 	b.w	800711c <UG_SetBackcolor>
 8006d68:	08006cad 	.word	0x08006cad
 8006d6c:	2000127c 	.word	0x2000127c
 8006d70:	0805bce4 	.word	0x0805bce4

08006d74 <LL_TIM_OC_SetCompareCH1>:
  WRITE_REG(TIMx->CCR1, CompareValue);
 8006d74:	6341      	str	r1, [r0, #52]	@ 0x34
}
 8006d76:	4770      	bx	lr

08006d78 <LL_TIM_OC_GetCompareCH1>:
  return (uint32_t)(READ_REG(TIMx->CCR1));
 8006d78:	6b40      	ldr	r0, [r0, #52]	@ 0x34
}
 8006d7a:	4770      	bx	lr

08006d7c <LCD_BKLT_init>:
LCD_BKLT_handle_t  LCD_backlight;

// -------------- Public function implementations --------------
void LCD_BKLT_init(void)
{
	LCD_backlight.timer = TIM4 ;
 8006d7c:	4b0a      	ldr	r3, [pc, #40]	@ (8006da8 <LCD_BKLT_init+0x2c>)
 8006d7e:	4a0b      	ldr	r2, [pc, #44]	@ (8006dac <LCD_BKLT_init+0x30>)
  SET_BIT(TIMx->CR1, TIM_CR1_CEN);
 8006d80:	6819      	ldr	r1, [r3, #0]
{
 8006d82:	b430      	push	{r4, r5}
	LCD_backlight.timer_channel = LL_TIM_CHANNEL_CH1 ;		

	LCD_backlight.SetCompare = LL_TIM_OC_SetCompareCH1;
	LCD_backlight.GetCompare = LL_TIM_OC_GetCompareCH1;

	LCD_backlight.default_brightness = 50;		
 8006d84:	2032      	movs	r0, #50	@ 0x32
 8006d86:	f041 0101 	orr.w	r1, r1, #1
	LCD_backlight.timer = TIM4 ;
 8006d8a:	6013      	str	r3, [r2, #0]
 8006d8c:	6019      	str	r1, [r3, #0]
  WRITE_REG(TIMx->CCR1, CompareValue);
 8006d8e:	6358      	str	r0, [r3, #52]	@ 0x34
  SET_BIT(TIMx->CCER, Channels);
 8006d90:	6a19      	ldr	r1, [r3, #32]
	LCD_backlight.SetCompare = LL_TIM_OC_SetCompareCH1;
 8006d92:	4c07      	ldr	r4, [pc, #28]	@ (8006db0 <LCD_BKLT_init+0x34>)
 8006d94:	6094      	str	r4, [r2, #8]
	LCD_backlight.timer_channel = LL_TIM_CHANNEL_CH1 ;		
 8006d96:	2501      	movs	r5, #1
	LCD_backlight.GetCompare = LL_TIM_OC_GetCompareCH1;
 8006d98:	4c06      	ldr	r4, [pc, #24]	@ (8006db4 <LCD_BKLT_init+0x38>)
	LCD_backlight.default_brightness = 50;		
 8006d9a:	7410      	strb	r0, [r2, #16]
 8006d9c:	4329      	orrs	r1, r5
	LCD_backlight.timer_channel = LL_TIM_CHANNEL_CH1 ;		
 8006d9e:	6055      	str	r5, [r2, #4]
	LCD_backlight.GetCompare = LL_TIM_OC_GetCompareCH1;
 8006da0:	60d4      	str	r4, [r2, #12]
	LL_TIM_EnableCounter (TIM4);

	LCD_BKLT_set_brightness( LCD_backlight.default_brightness);

    LL_TIM_CC_EnableChannel ( TIM4, LL_TIM_CHANNEL_CH1);
}
 8006da2:	bc30      	pop	{r4, r5}
 8006da4:	6219      	str	r1, [r3, #32]
 8006da6:	4770      	bx	lr
 8006da8:	40000800 	.word	0x40000800
 8006dac:	20001308 	.word	0x20001308
 8006db0:	08006d75 	.word	0x08006d75
 8006db4:	08006d79 	.word	0x08006d79

08006db8 <ILI9341_SendData>:
 */
void ILI9341_SendData(LCD_IO_Data_t *data, uint32_t length)
{
	uint8_t increment = LCD_IO_DATA_WRITE_CYCLES;

	for (uint32_t i = 0; i < (length/increment); i += increment)
 8006db8:	b171      	cbz	r1, 8006dd8 <ILI9341_SendData+0x20>
{
 8006dba:	b410      	push	{r4}
	*(LCD_IO_Data_t *)(FMC_BANK1_MEM) = data;
 8006dbc:	4c07      	ldr	r4, [pc, #28]	@ (8006ddc <ILI9341_SendData+0x24>)
 8006dbe:	3802      	subs	r0, #2
	for (uint32_t i = 0; i < (length/increment); i += increment)
 8006dc0:	2300      	movs	r3, #0
		FMC_BANK1_WriteData(data[i]);
 8006dc2:	f830 2f02 	ldrh.w	r2, [r0, #2]!
	*(LCD_IO_Data_t *)(FMC_BANK1_MEM) = data;
 8006dc6:	8022      	strh	r2, [r4, #0]
  __ASM volatile ("dsb 0xF":::"memory");
 8006dc8:	f3bf 8f4f 	dsb	sy
	for (uint32_t i = 0; i < (length/increment); i += increment)
 8006dcc:	3301      	adds	r3, #1
 8006dce:	4299      	cmp	r1, r3
 8006dd0:	d1f7      	bne.n	8006dc2 <ILI9341_SendData+0xa>
}
 8006dd2:	f85d 4b04 	ldr.w	r4, [sp], #4
 8006dd6:	4770      	bx	lr
 8006dd8:	4770      	bx	lr
 8006dda:	bf00      	nop
 8006ddc:	60010000 	.word	0x60010000

08006de0 <ILI9341_SendRepeatedData>:
 */
void ILI9341_SendRepeatedData(LCD_IO_Data_t data, uint32_t num_copies)
{
	uint8_t increment = LCD_IO_DATA_WRITE_CYCLES;

	for (uint32_t i = 0; i < (num_copies/increment); i += increment)
 8006de0:	b139      	cbz	r1, 8006df2 <ILI9341_SendRepeatedData+0x12>
	*(LCD_IO_Data_t *)(FMC_BANK1_MEM) = data;
 8006de2:	4a04      	ldr	r2, [pc, #16]	@ (8006df4 <ILI9341_SendRepeatedData+0x14>)
	for (uint32_t i = 0; i < (num_copies/increment); i += increment)
 8006de4:	2300      	movs	r3, #0
	*(LCD_IO_Data_t *)(FMC_BANK1_MEM) = data;
 8006de6:	8010      	strh	r0, [r2, #0]
 8006de8:	f3bf 8f4f 	dsb	sy
	for (uint32_t i = 0; i < (num_copies/increment); i += increment)
 8006dec:	3301      	adds	r3, #1
 8006dee:	4299      	cmp	r1, r3
 8006df0:	d1f9      	bne.n	8006de6 <ILI9341_SendRepeatedData+0x6>
		FMC_BANK1_WriteData(data);
}
 8006df2:	4770      	bx	lr
 8006df4:	60010000 	.word	0x60010000

08006df8 <ILI9341_SetDisplayWindow>:
  * @param  Ypos   y koordinata izhodia
  * @param  Height viina okna
  * @param  Width  irina okna
  */
void ILI9341_SetDisplayWindow(uint32_t Xpos, uint32_t Ypos, uint32_t Width, uint32_t Height)
{
 8006df8:	b530      	push	{r4, r5, lr}

	/* Column addr set, 4 args, no delay: XSTART = Xpos, XEND = (Xpos + Width - 1) */
	command = ILI9341_CASET;
	parameter[0] = (ILI9341_Data_t)(Xpos >> 8U);
	parameter[1] = (ILI9341_Data_t)(Xpos & 0xFFU);
	parameter[2] = (ILI9341_Data_t)((Xpos + Width - 1U) >> 8U);
 8006dfa:	3a01      	subs	r2, #1
 8006dfc:	eb02 0c00 	add.w	ip, r2, r0
	parameter[0] = (ILI9341_Data_t)(Xpos >> 8U);
 8006e00:	2400      	movs	r4, #0
	parameter[2] = (ILI9341_Data_t)((Xpos + Width - 1U) >> 8U);
 8006e02:	ea4f 2c1c 	mov.w	ip, ip, lsr #8
	parameter[3] = (ILI9341_Data_t)((Xpos + Width - 1U) & 0xFFU);
 8006e06:	fa12 f280 	uxtah	r2, r2, r0
	parameter[0] = (ILI9341_Data_t)(Xpos >> 8U);
 8006e0a:	4625      	mov	r5, r4
	parameter[3] = (ILI9341_Data_t)((Xpos + Width - 1U) & 0xFFU);
 8006e0c:	b2d2      	uxtb	r2, r2
	parameter[0] = (ILI9341_Data_t)(Xpos >> 8U);
 8006e0e:	f36c 050f 	bfi	r5, ip, #0, #16
 8006e12:	f362 451f 	bfi	r5, r2, #16, #16
 8006e16:	0a02      	lsrs	r2, r0, #8
{
 8006e18:	b083      	sub	sp, #12
	*(LCD_IO_Data_t *)(FMC_BANK1_REG) = address;
 8006e1a:	f04f 4cc0 	mov.w	ip, #1610612736	@ 0x60000000
	parameter[0] = (ILI9341_Data_t)(Xpos >> 8U);
 8006e1e:	f362 040f 	bfi	r4, r2, #0, #16
	parameter[1] = (ILI9341_Data_t)(Xpos & 0xFFU);
 8006e22:	b2c0      	uxtb	r0, r0
	parameter[0] = (ILI9341_Data_t)(Xpos >> 8U);
 8006e24:	f360 441f 	bfi	r4, r0, #16, #16
	*(LCD_IO_Data_t *)(FMC_BANK1_REG) = address;
 8006e28:	222a      	movs	r2, #42	@ 0x2a
	parameter[0] = (ILI9341_Data_t)(Xpos >> 8U);
 8006e2a:	9501      	str	r5, [sp, #4]
 8006e2c:	9400      	str	r4, [sp, #0]
	*(LCD_IO_Data_t *)(FMC_BANK1_REG) = address;
 8006e2e:	f8ac 2000 	strh.w	r2, [ip]
 8006e32:	f3bf 8f4f 	dsb	sy
	*(LCD_IO_Data_t *)(FMC_BANK1_MEM) = data;
 8006e36:	4a25      	ldr	r2, [pc, #148]	@ (8006ecc <ILI9341_SetDisplayWindow+0xd4>)
		FMC_BANK1_WriteData(data[i]);
 8006e38:	f8bd 0000 	ldrh.w	r0, [sp]
	*(LCD_IO_Data_t *)(FMC_BANK1_MEM) = data;
 8006e3c:	8010      	strh	r0, [r2, #0]
 8006e3e:	f3bf 8f4f 	dsb	sy
		FMC_BANK1_WriteData(data[i]);
 8006e42:	f8bd 0002 	ldrh.w	r0, [sp, #2]
	*(LCD_IO_Data_t *)(FMC_BANK1_MEM) = data;
 8006e46:	8010      	strh	r0, [r2, #0]
 8006e48:	f3bf 8f4f 	dsb	sy
		FMC_BANK1_WriteData(data[i]);
 8006e4c:	f8bd 0004 	ldrh.w	r0, [sp, #4]
	*(LCD_IO_Data_t *)(FMC_BANK1_MEM) = data;
 8006e50:	8010      	strh	r0, [r2, #0]
 8006e52:	f3bf 8f4f 	dsb	sy
		FMC_BANK1_WriteData(data[i]);
 8006e56:	f8bd 0006 	ldrh.w	r0, [sp, #6]
	*(LCD_IO_Data_t *)(FMC_BANK1_MEM) = data;
 8006e5a:	8010      	strh	r0, [r2, #0]
 8006e5c:	f3bf 8f4f 	dsb	sy

	/* Row addr set, 4 args, no delay: YSTART = Ypos, YEND = (Ypos + Height - 1) */
	command = ILI9341_RASET;
	parameter [0] = (ILI9341_Data_t)(Ypos >> 8U);
	parameter [1] = (ILI9341_Data_t)(Ypos & 0xFFU);
	parameter [2] = (ILI9341_Data_t)((Ypos + Height - 1U) >> 8U);
 8006e60:	3b01      	subs	r3, #1
 8006e62:	eb03 0e01 	add.w	lr, r3, r1
	parameter [0] = (ILI9341_Data_t)(Ypos >> 8U);
 8006e66:	2000      	movs	r0, #0
	parameter [2] = (ILI9341_Data_t)((Ypos + Height - 1U) >> 8U);
 8006e68:	ea4f 2e1e 	mov.w	lr, lr, lsr #8
	parameter [3] = (ILI9341_Data_t)((Ypos + Height - 1U) & 0xFFU);
 8006e6c:	fa13 f381 	uxtah	r3, r3, r1
	parameter [0] = (ILI9341_Data_t)(Ypos >> 8U);
 8006e70:	4604      	mov	r4, r0
	parameter [3] = (ILI9341_Data_t)((Ypos + Height - 1U) & 0xFFU);
 8006e72:	b2db      	uxtb	r3, r3
	parameter [0] = (ILI9341_Data_t)(Ypos >> 8U);
 8006e74:	f36e 040f 	bfi	r4, lr, #0, #16
 8006e78:	f363 441f 	bfi	r4, r3, #16, #16
 8006e7c:	9401      	str	r4, [sp, #4]
 8006e7e:	0a0c      	lsrs	r4, r1, #8
 8006e80:	f364 000f 	bfi	r0, r4, #0, #16
	parameter [1] = (ILI9341_Data_t)(Ypos & 0xFFU);
 8006e84:	b2c9      	uxtb	r1, r1
	*(LCD_IO_Data_t *)(FMC_BANK1_REG) = address;
 8006e86:	232b      	movs	r3, #43	@ 0x2b
	parameter [0] = (ILI9341_Data_t)(Ypos >> 8U);
 8006e88:	f361 401f 	bfi	r0, r1, #16, #16
 8006e8c:	9000      	str	r0, [sp, #0]
	*(LCD_IO_Data_t *)(FMC_BANK1_REG) = address;
 8006e8e:	f8ac 3000 	strh.w	r3, [ip]
 8006e92:	f3bf 8f4f 	dsb	sy
		FMC_BANK1_WriteData(data[i]);
 8006e96:	f8bd 3000 	ldrh.w	r3, [sp]
	*(LCD_IO_Data_t *)(FMC_BANK1_MEM) = data;
 8006e9a:	8013      	strh	r3, [r2, #0]
 8006e9c:	f3bf 8f4f 	dsb	sy
		FMC_BANK1_WriteData(data[i]);
 8006ea0:	f8bd 3002 	ldrh.w	r3, [sp, #2]
	*(LCD_IO_Data_t *)(FMC_BANK1_MEM) = data;
 8006ea4:	8013      	strh	r3, [r2, #0]
 8006ea6:	f3bf 8f4f 	dsb	sy
		FMC_BANK1_WriteData(data[i]);
 8006eaa:	f8bd 3004 	ldrh.w	r3, [sp, #4]
	*(LCD_IO_Data_t *)(FMC_BANK1_MEM) = data;
 8006eae:	8013      	strh	r3, [r2, #0]
 8006eb0:	f3bf 8f4f 	dsb	sy
		FMC_BANK1_WriteData(data[i]);
 8006eb4:	f8bd 3006 	ldrh.w	r3, [sp, #6]
	*(LCD_IO_Data_t *)(FMC_BANK1_MEM) = data;
 8006eb8:	8013      	strh	r3, [r2, #0]
 8006eba:	f3bf 8f4f 	dsb	sy
	*(LCD_IO_Data_t *)(FMC_BANK1_REG) = address;
 8006ebe:	232c      	movs	r3, #44	@ 0x2c
 8006ec0:	f8ac 3000 	strh.w	r3, [ip]
 8006ec4:	f3bf 8f4f 	dsb	sy
	ILI9341_SendData(parameter, 4);

	// Zapusti nastavitev okna v nainu za vpis barve v GRAM
	command = ILI9341_GRAM;
	ILI9341_SetAddress(&command);
}
 8006ec8:	b003      	add	sp, #12
 8006eca:	bd30      	pop	{r4, r5, pc}
 8006ecc:	60010000 	.word	0x60010000

08006ed0 <ILI9341_Init>:
	*(LCD_IO_Data_t *)(FMC_BANK1_REG) = address;
 8006ed0:	f04f 43c0 	mov.w	r3, #1610612736	@ 0x60000000
	ILI9341_Data_t parameter = (ILI9341_Data_t)orientations[orientation];
 8006ed4:	4a35      	ldr	r2, [pc, #212]	@ (8006fac <ILI9341_Init+0xdc>)
  * @param  color_space elen barvni prostor (ILI9341_COLORSPACE_RBG{565,666})
  * @param  orientation orientacija zaslona
  * @internal
  */
void ILI9341_Init(uint32_t color_space, uint32_t orientation)
{
 8006ed6:	b570      	push	{r4, r5, r6, lr}
	*(LCD_IO_Data_t *)(FMC_BANK1_REG) = address;
 8006ed8:	2436      	movs	r4, #54	@ 0x36
	ILI9341_Data_t parameter = (ILI9341_Data_t)orientations[orientation];
 8006eda:	f832 2021 	ldrh.w	r2, [r2, r1, lsl #2]
	*(LCD_IO_Data_t *)(FMC_BANK1_REG) = address;
 8006ede:	801c      	strh	r4, [r3, #0]
{
 8006ee0:	4606      	mov	r6, r0
 8006ee2:	f3bf 8f4f 	dsb	sy
	*(LCD_IO_Data_t *)(FMC_BANK1_MEM) = data;
 8006ee6:	f503 3380 	add.w	r3, r3, #65536	@ 0x10000
 8006eea:	801a      	strh	r2, [r3, #0]
 8006eec:	f3bf 8f4f 	dsb	sy
	switch (orientation) {
 8006ef0:	2900      	cmp	r1, #0
 8006ef2:	d054      	beq.n	8006f9e <ILI9341_Init+0xce>
 8006ef4:	2903      	cmp	r1, #3
 8006ef6:	d052      	beq.n	8006f9e <ILI9341_Init+0xce>
 8006ef8:	24f0      	movs	r4, #240	@ 0xf0
 8006efa:	f44f 75a0 	mov.w	r5, #320	@ 0x140
 8006efe:	f44f 73a0 	mov.w	r3, #320	@ 0x140
 8006f02:	22f0      	movs	r2, #240	@ 0xf0
		LCD.width  = ILI9341_HEIGHT;
 8006f04:	482a      	ldr	r0, [pc, #168]	@ (8006fb0 <ILI9341_Init+0xe0>)
	LCD.orientation = orientation;
 8006f06:	6081      	str	r1, [r0, #8]
	ILI9341_Data_t command;
	ILI9341_Data_t parameter[5];

	ILI9341_SetOrientation(orientation);
	ILI9341_SetDisplayWindow(0U, 0U, LCD.width, LCD.height);
 8006f08:	2100      	movs	r1, #0
		LCD.width  = ILI9341_HEIGHT;
 8006f0a:	e9c0 4500 	strd	r4, r5, [r0]
	ILI9341_SetDisplayWindow(0U, 0U, LCD.width, LCD.height);
 8006f0e:	4608      	mov	r0, r1
	*(LCD_IO_Data_t *)(FMC_BANK1_REG) = address;
 8006f10:	f04f 45c0 	mov.w	r5, #1610612736	@ 0x60000000
	ILI9341_SetDisplayWindow(0U, 0U, LCD.width, LCD.height);
 8006f14:	f7ff ff70 	bl	8006df8 <ILI9341_SetDisplayWindow>
	*(LCD_IO_Data_t *)(FMC_BANK1_REG) = address;
 8006f18:	2311      	movs	r3, #17
 8006f1a:	802b      	strh	r3, [r5, #0]
 8006f1c:	f3bf 8f4f 	dsb	sy

	// Sleep out
	command = ILI9341_SLEEP_OUT;
	ILI9341_SetAddress(&command);
	HAL_Delay(200);
 8006f20:	20c8      	movs	r0, #200	@ 0xc8
 8006f22:	f7fc fc63 	bl	80037ec <HAL_Delay>
	*(LCD_IO_Data_t *)(FMC_BANK1_REG) = address;
 8006f26:	2313      	movs	r3, #19
 8006f28:	802b      	strh	r3, [r5, #0]
 8006f2a:	f3bf 8f4f 	dsb	sy

	// Display Normal mode
	command = ILI9341_NORMAL_MODE_ON;
	ILI9341_SetAddress(&command);
	HAL_Delay(100);
 8006f2e:	2064      	movs	r0, #100	@ 0x64
 8006f30:	f7fc fc5c 	bl	80037ec <HAL_Delay>
	*(LCD_IO_Data_t *)(FMC_BANK1_REG) = address;
 8006f34:	233a      	movs	r3, #58	@ 0x3a
 8006f36:	802b      	strh	r3, [r5, #0]
 8006f38:	f3bf 8f4f 	dsb	sy
	*(LCD_IO_Data_t *)(FMC_BANK1_MEM) = data;
 8006f3c:	4c1d      	ldr	r4, [pc, #116]	@ (8006fb4 <ILI9341_Init+0xe4>)

	// Pixel Format
	command = ILI9341_PIXEL_FORMAT;
	parameter[0] = color_space;
 8006f3e:	8026      	strh	r6, [r4, #0]
 8006f40:	f3bf 8f4f 	dsb	sy
	ILI9341_SetAddress(&command);
	ILI9341_SendData(parameter, 1);
	HAL_Delay(100);
 8006f44:	2064      	movs	r0, #100	@ 0x64
 8006f46:	f7fc fc51 	bl	80037ec <HAL_Delay>
	*(LCD_IO_Data_t *)(FMC_BANK1_REG) = address;
 8006f4a:	23f6      	movs	r3, #246	@ 0xf6
 8006f4c:	802b      	strh	r3, [r5, #0]
 8006f4e:	f3bf 8f4f 	dsb	sy
	*(LCD_IO_Data_t *)(FMC_BANK1_MEM) = data;
 8006f52:	2349      	movs	r3, #73	@ 0x49
 8006f54:	8023      	strh	r3, [r4, #0]
 8006f56:	f3bf 8f4f 	dsb	sy
 8006f5a:	2600      	movs	r6, #0
 8006f5c:	8026      	strh	r6, [r4, #0]
 8006f5e:	f3bf 8f4f 	dsb	sy
 8006f62:	2320      	movs	r3, #32
 8006f64:	8023      	strh	r3, [r4, #0]
 8006f66:	f3bf 8f4f 	dsb	sy
	*(LCD_IO_Data_t *)(FMC_BANK1_REG) = address;
 8006f6a:	2335      	movs	r3, #53	@ 0x35
 8006f6c:	802b      	strh	r3, [r5, #0]
 8006f6e:	f3bf 8f4f 	dsb	sy
	*(LCD_IO_Data_t *)(FMC_BANK1_MEM) = data;
 8006f72:	2301      	movs	r3, #1
 8006f74:	8023      	strh	r3, [r4, #0]
 8006f76:	f3bf 8f4f 	dsb	sy
	// Enable TE
	command = ILI9341_TEON;
	parameter[0] = 1; /* VSYNC + HSYNC */
	ILI9341_SetAddress(&command);
	ILI9341_SendData(parameter, 1);
	HAL_Delay(100);
 8006f7a:	2064      	movs	r0, #100	@ 0x64
 8006f7c:	f7fc fc36 	bl	80037ec <HAL_Delay>
	*(LCD_IO_Data_t *)(FMC_BANK1_REG) = address;
 8006f80:	2344      	movs	r3, #68	@ 0x44
 8006f82:	802b      	strh	r3, [r5, #0]
 8006f84:	f3bf 8f4f 	dsb	sy
	*(LCD_IO_Data_t *)(FMC_BANK1_MEM) = data;
 8006f88:	8026      	strh	r6, [r4, #0]
 8006f8a:	f3bf 8f4f 	dsb	sy
 8006f8e:	8026      	strh	r6, [r4, #0]
 8006f90:	f3bf 8f4f 	dsb	sy
	command = ILI9341_SET_TEAR_SCANLINE;
	parameter[0] = 0;
	parameter[1] = 0;
	ILI9341_SetAddress(&command);
	ILI9341_SendData(parameter, 2);
	HAL_Delay(100);
 8006f94:	2064      	movs	r0, #100	@ 0x64
}
 8006f96:	e8bd 4070 	ldmia.w	sp!, {r4, r5, r6, lr}
	HAL_Delay(100);
 8006f9a:	f7fc bc27 	b.w	80037ec <HAL_Delay>
	switch (orientation) {
 8006f9e:	f44f 74a0 	mov.w	r4, #320	@ 0x140
 8006fa2:	25f0      	movs	r5, #240	@ 0xf0
 8006fa4:	23f0      	movs	r3, #240	@ 0xf0
 8006fa6:	f44f 72a0 	mov.w	r2, #320	@ 0x140
 8006faa:	e7ab      	b.n	8006f04 <ILI9341_Init+0x34>
 8006fac:	0805bc80 	.word	0x0805bc80
 8006fb0:	20001320 	.word	0x20001320
 8006fb4:	60010000 	.word	0x60010000

08006fb8 <ILI9341_WaitTransfer>:
//! @brief Poakaj na prenos podatka FSMC->Ili9341. Mone dodelave.
void ILI9341_WaitTransfer()
{
	// AddresSetupTime + 1 + DataSetupTime + 1. Glej `fmc.c'.
	// naeloma 6 + 1 + 5 + 1 ms (13 ms), vendar ni zadosti
	HAL_Delay(50);
 8006fb8:	2032      	movs	r0, #50	@ 0x32
 8006fba:	f7fc bc17 	b.w	80037ec <HAL_Delay>
 8006fbe:	bf00      	nop

08006fc0 <ILI9341_DisplayOn>:
	*(LCD_IO_Data_t *)(FMC_BANK1_REG) = address;
 8006fc0:	f04f 43c0 	mov.w	r3, #1610612736	@ 0x60000000
 8006fc4:	2229      	movs	r2, #41	@ 0x29
 8006fc6:	801a      	strh	r2, [r3, #0]
 8006fc8:	f3bf 8f4f 	dsb	sy
//! @brief Strojno omogoi zaslon
void ILI9341_DisplayOn()
{
	ILI9341_Data_t command = ILI9341_DISPLAY_ON;
	ILI9341_SetAddress(&command);
}
 8006fcc:	4770      	bx	lr
 8006fce:	bf00      	nop

08006fd0 <ILI9341_GetParam>:
 */
uint32_t ILI9341_GetParam(LCD_Param_t param)
{
	uint32_t value = 0;

	switch (param) {
 8006fd0:	2803      	cmp	r0, #3
 8006fd2:	d80f      	bhi.n	8006ff4 <ILI9341_GetParam+0x24>
 8006fd4:	e8df f000 	tbb	[pc, r0]
 8006fd8:	0b020508 	.word	0x0b020508
 8006fdc:	f44f 3096 	mov.w	r0, #76800	@ 0x12c00
	default:
		break;
	}

	return value;
}
 8006fe0:	4770      	bx	lr
		value = LCD.height;
 8006fe2:	4b05      	ldr	r3, [pc, #20]	@ (8006ff8 <ILI9341_GetParam+0x28>)
 8006fe4:	6858      	ldr	r0, [r3, #4]
		break;
 8006fe6:	4770      	bx	lr
		value = LCD.width;
 8006fe8:	4b03      	ldr	r3, [pc, #12]	@ (8006ff8 <ILI9341_GetParam+0x28>)
 8006fea:	6818      	ldr	r0, [r3, #0]
		break;
 8006fec:	4770      	bx	lr
		value = LCD.orientation;
 8006fee:	4b02      	ldr	r3, [pc, #8]	@ (8006ff8 <ILI9341_GetParam+0x28>)
 8006ff0:	6898      	ldr	r0, [r3, #8]
		break;
 8006ff2:	4770      	bx	lr
	uint32_t value = 0;
 8006ff4:	2000      	movs	r0, #0
 8006ff6:	4770      	bx	lr
 8006ff8:	20001320 	.word	0x20001320

08006ffc <PSERV_init>:
periodic_services_handle_t periodic_services;


void PSERV_init(void)
{
	periodic_services.TIM = TIM6;
 8006ffc:	4b03      	ldr	r3, [pc, #12]	@ (800700c <PSERV_init+0x10>)
 8006ffe:	4a04      	ldr	r2, [pc, #16]	@ (8007010 <PSERV_init+0x14>)
 8007000:	6013      	str	r3, [r2, #0]
  SET_BIT(TIMx->CR1, TIM_CR1_CEN);
 8007002:	681a      	ldr	r2, [r3, #0]
 8007004:	f042 0201 	orr.w	r2, r2, #1
 8007008:	601a      	str	r2, [r3, #0]
	LL_TIM_EnableCounter(periodic_services.TIM);
}
 800700a:	4770      	bx	lr
 800700c:	40001000 	.word	0x40001000
 8007010:	2000132c 	.word	0x2000132c

08007014 <PSERV_enable>:

void PSERV_enable(void)
{
	LL_TIM_EnableIT_UPDATE(periodic_services.TIM);
 8007014:	4b03      	ldr	r3, [pc, #12]	@ (8007024 <PSERV_enable+0x10>)
 8007016:	681a      	ldr	r2, [r3, #0]
  SET_BIT(TIMx->DIER, TIM_DIER_UIE);
 8007018:	68d3      	ldr	r3, [r2, #12]
 800701a:	f043 0301 	orr.w	r3, r3, #1
 800701e:	60d3      	str	r3, [r2, #12]
}
 8007020:	4770      	bx	lr
 8007022:	bf00      	nop
 8007024:	2000132c 	.word	0x2000132c

08007028 <PSERV_run_services_Callback>:
	LL_TIM_DisableIT_UPDATE(periodic_services.TIM);
}

void PSERV_run_services_Callback(void)
{
	KBD_scan();
 8007028:	f7ff bdfc 	b.w	8006c24 <KBD_scan>

0800702c <TIMUT_stopwatch_set_time_mark>:
#include "stm32g4xx_hal.h"		
#include "LED.h"				

// ------------- Public function implementations --------------
void TIMUT_stopwatch_set_time_mark(stopwatch_handle_t *stopwatch)
{
 800702c:	b510      	push	{r4, lr}
 800702e:	4604      	mov	r4, r0
	stopwatch->time_mark = HAL_GetTick() ;
 8007030:	f7fc fbd6 	bl	80037e0 <HAL_GetTick>
 8007034:	6020      	str	r0, [r4, #0]
}
 8007036:	bd10      	pop	{r4, pc}

08007038 <TIMUT_stopwatch_has_X_ms_passed>:
{
	stopwatch->elapsed_time = HAL_GetTick() - stopwatch->time_mark ;
}

uint8_t TIMUT_stopwatch_has_X_ms_passed(stopwatch_handle_t *stopwatch, uint32_t x)
{
 8007038:	b538      	push	{r3, r4, r5, lr}
 800703a:	4604      	mov	r4, r0
 800703c:	460d      	mov	r5, r1
	stopwatch->elapsed_time = HAL_GetTick() - stopwatch->time_mark ;
 800703e:	f7fc fbcf 	bl	80037e0 <HAL_GetTick>
 8007042:	6823      	ldr	r3, [r4, #0]
 8007044:	1ac0      	subs	r0, r0, r3
	}
	else
	{
		return 0;	
	}
}
 8007046:	4285      	cmp	r5, r0
	stopwatch->elapsed_time = HAL_GetTick() - stopwatch->time_mark ;
 8007048:	6060      	str	r0, [r4, #4]
}
 800704a:	bf2c      	ite	cs
 800704c:	2000      	movcs	r0, #0
 800704e:	2001      	movcc	r0, #1
 8007050:	bd38      	pop	{r3, r4, r5, pc}
 8007052:	bf00      	nop

08007054 <TIMUT_stopwatch_has_another_X_ms_passed>:

uint8_t TIMUT_stopwatch_has_another_X_ms_passed(stopwatch_handle_t *stopwatch, uint32_t x)
{
 8007054:	b538      	push	{r3, r4, r5, lr}
 8007056:	4605      	mov	r5, r0
 8007058:	460c      	mov	r4, r1
	stopwatch->elapsed_time = HAL_GetTick() - stopwatch->time_mark ;
 800705a:	f7fc fbc1 	bl	80037e0 <HAL_GetTick>
 800705e:	682a      	ldr	r2, [r5, #0]
 8007060:	1a80      	subs	r0, r0, r2
	if ( x < stopwatch->elapsed_time )
 8007062:	4284      	cmp	r4, r0
	stopwatch->elapsed_time = HAL_GetTick() - stopwatch->time_mark ;
 8007064:	6068      	str	r0, [r5, #4]
	if ( x < stopwatch->elapsed_time )
 8007066:	d206      	bcs.n	8007076 <TIMUT_stopwatch_has_another_X_ms_passed+0x22>
	if ( TIMUT_stopwatch_has_X_ms_passed(stopwatch, x) )
	{
		if (stopwatch->elapsed_time > 2*x )
 8007068:	ebb0 0f44 	cmp.w	r0, r4, lsl #1
 800706c:	d805      	bhi.n	800707a <TIMUT_stopwatch_has_another_X_ms_passed+0x26>
			TIMUT_stopwatch_set_time_mark(stopwatch);
			return 1;
		}
		else
		{
			stopwatch->time_mark += x;
 800706e:	4414      	add	r4, r2
 8007070:	602c      	str	r4, [r5, #0]
			return 1;
 8007072:	2001      	movs	r0, #1

	else
	{
		return 0;
	}
}
 8007074:	bd38      	pop	{r3, r4, r5, pc}
		return 0;
 8007076:	2000      	movs	r0, #0
}
 8007078:	bd38      	pop	{r3, r4, r5, pc}
	stopwatch->time_mark = HAL_GetTick() ;
 800707a:	f7fc fbb1 	bl	80037e0 <HAL_GetTick>
 800707e:	4604      	mov	r4, r0
			return 1;
 8007080:	e7f6      	b.n	8007070 <TIMUT_stopwatch_has_another_X_ms_passed+0x1c>
 8007082:	bf00      	nop

08007084 <UG_Init>:
#endif



UG_S16 UG_Init( UG_GUI* g, void (*p)(UG_S16,UG_S16,UG_COLOR), UG_S16 x, UG_S16 y )
{
 8007084:	b430      	push	{r4, r5}
   UG_U8 i;

   g->pset = (void(*)(UG_S16,UG_S16,UG_COLOR))p;
   g->x_dim = x;
 8007086:	e9c0 1200 	strd	r1, r2, [r0]
   g->y_dim = y;
   g->console.x_start = 4;
 800708a:	2404      	movs	r4, #4
   g->console.y_start = 4;
   g->console.x_end = g->x_dim - g->console.x_start-1;
 800708c:	3a05      	subs	r2, #5
   g->y_dim = y;
 800708e:	6083      	str	r3, [r0, #8]
   g->console.y_end = g->y_dim - g->console.x_start-1;
 8007090:	3b05      	subs	r3, #5
   g->console.x_pos = g->console.x_end;
   g->console.y_pos = g->console.y_end;
   g->char_h_space = 1;
   g->char_v_space = 1;
   g->font.p = NULL;
 8007092:	2100      	movs	r1, #0
   g->console.x_end = g->x_dim - g->console.x_start-1;
 8007094:	e9c0 230d 	strd	r2, r3, [r0, #52]	@ 0x34
   g->console.y_start = 4;
 8007098:	e9c0 440b 	strd	r4, r4, [r0, #44]	@ 0x2c
   g->console.x_pos = g->console.x_end;
 800709c:	6242      	str	r2, [r0, #36]	@ 0x24
   g->char_h_space = 1;
 800709e:	f240 1401 	movw	r4, #257	@ 0x101
   {
      g->driver[i].driver = NULL;
      g->driver[i].state = 0;
   }

   gui = g;
 80070a2:	4a11      	ldr	r2, [pc, #68]	@ (80070e8 <UG_Init+0x64>)
   g->console.y_pos = g->console.y_end;
 80070a4:	6283      	str	r3, [r0, #40]	@ 0x28
   g->desktop_color = 0x5C5D;
 80070a6:	f645 455d 	movw	r5, #23645	@ 0x5c5d
   g->char_h_space = 1;
 80070aa:	f8a0 4060 	strh.w	r4, [r0, #96]	@ 0x60
      g->driver[i].state = 0;
 80070ae:	f880 1078 	strb.w	r1, [r0, #120]	@ 0x78
 80070b2:	f880 1080 	strb.w	r1, [r0, #128]	@ 0x80
 80070b6:	f880 1088 	strb.w	r1, [r0, #136]	@ 0x88
   g->fore_color = C_WHITE;
 80070ba:	f64f 73ff 	movw	r3, #65535	@ 0xffff
   g->desktop_color = 0x5C5D;
 80070be:	66c5      	str	r5, [r0, #108]	@ 0x6c
   g->font.char_width = 0;
 80070c0:	e9c0 1113 	strd	r1, r1, [r0, #76]	@ 0x4c
   g->font.end_char = 0;
 80070c4:	e9c0 1115 	strd	r1, r1, [r0, #84]	@ 0x54
   g->back_color = C_BLACK;
 80070c8:	e9c0 3119 	strd	r3, r1, [r0, #100]	@ 0x64
   g->active_window = NULL;
 80070cc:	e9c0 1106 	strd	r1, r1, [r0, #24]
   gui = g;
 80070d0:	6010      	str	r0, [r2, #0]
   g->font.p = NULL;
 80070d2:	6441      	str	r1, [r0, #68]	@ 0x44
   g->font.widths = NULL;
 80070d4:	65c1      	str	r1, [r0, #92]	@ 0x5c
   g->last_window = NULL;
 80070d6:	6201      	str	r1, [r0, #32]
      g->driver[i].driver = NULL;
 80070d8:	6741      	str	r1, [r0, #116]	@ 0x74
 80070da:	67c1      	str	r1, [r0, #124]	@ 0x7c
 80070dc:	f8c0 1084 	str.w	r1, [r0, #132]	@ 0x84
   return 1;
}
 80070e0:	bc30      	pop	{r4, r5}
 80070e2:	2001      	movs	r0, #1
 80070e4:	4770      	bx	lr
 80070e6:	bf00      	nop
 80070e8:	20001330 	.word	0x20001330

080070ec <UG_FontSelect>:
   return 1;
}

void UG_FontSelect( const UG_FONT* font )
{
   gui->font = *font;
 80070ec:	4b07      	ldr	r3, [pc, #28]	@ (800710c <UG_FontSelect+0x20>)
 80070ee:	681b      	ldr	r3, [r3, #0]
{
 80070f0:	b500      	push	{lr}
   gui->font = *font;
 80070f2:	4686      	mov	lr, r0
 80070f4:	f103 0c44 	add.w	ip, r3, #68	@ 0x44
 80070f8:	e8be 000f 	ldmia.w	lr!, {r0, r1, r2, r3}
 80070fc:	e8ac 000f 	stmia.w	ip!, {r0, r1, r2, r3}
 8007100:	e89e 0007 	ldmia.w	lr, {r0, r1, r2}
 8007104:	e88c 0007 	stmia.w	ip, {r0, r1, r2}
}
 8007108:	f85d fb04 	ldr.w	pc, [sp], #4
 800710c:	20001330 	.word	0x20001330

08007110 <UG_SetForecolor>:
   gui->console.back_color = c;
}

void UG_SetForecolor( UG_COLOR c )
{
   gui->fore_color = c;
 8007110:	4b01      	ldr	r3, [pc, #4]	@ (8007118 <UG_SetForecolor+0x8>)
 8007112:	681b      	ldr	r3, [r3, #0]
 8007114:	6658      	str	r0, [r3, #100]	@ 0x64
}
 8007116:	4770      	bx	lr
 8007118:	20001330 	.word	0x20001330

0800711c <UG_SetBackcolor>:

void UG_SetBackcolor( UG_COLOR c )
{
   gui->back_color = c;
 800711c:	4b01      	ldr	r3, [pc, #4]	@ (8007124 <UG_SetBackcolor+0x8>)
 800711e:	681b      	ldr	r3, [r3, #0]
 8007120:	6698      	str	r0, [r3, #104]	@ 0x68
}
 8007122:	4770      	bx	lr
 8007124:	20001330 	.word	0x20001330

08007128 <_UG_PutChar>:

/* -------------------------------------------------------------------------------- */
/* -- INTERNAL FUNCTIONS                                                         -- */
/* -------------------------------------------------------------------------------- */
void _UG_PutChar( char chr, UG_S16 x, UG_S16 y, UG_COLOR fc, UG_COLOR bc, const UG_FONT* font)
{
 8007128:	e92d 4ff0 	stmdb	sp!, {r4, r5, r6, r7, r8, r9, sl, fp, lr}
 800712c:	b08b      	sub	sp, #44	@ 0x2c
   UG_COLOR color;
   void(*push_pixel)(UG_COLOR);

   bt = (UG_U8)chr;

   switch ( bt )
 800712e:	28fc      	cmp	r0, #252	@ 0xfc
{
 8007130:	468c      	mov	ip, r1
 8007132:	f8dd a054 	ldr.w	sl, [sp, #84]	@ 0x54
 8007136:	4611      	mov	r1, r2
 8007138:	461f      	mov	r7, r3
   switch ( bt )
 800713a:	f200 80b0 	bhi.w	800729e <_UG_PutChar+0x176>
 800713e:	28d5      	cmp	r0, #213	@ 0xd5
 8007140:	d92d      	bls.n	800719e <_UG_PutChar+0x76>
 8007142:	f1a0 03d6 	sub.w	r3, r0, #214	@ 0xd6
 8007146:	2b26      	cmp	r3, #38	@ 0x26
 8007148:	f200 80a9 	bhi.w	800729e <_UG_PutChar+0x176>
 800714c:	e8df f013 	tbh	[pc, r3, lsl #1]
 8007150:	00a701d1 	.word	0x00a701d1
 8007154:	00a700a7 	.word	0x00a700a7
 8007158:	00a700a7 	.word	0x00a700a7
 800715c:	00a700fe 	.word	0x00a700fe
 8007160:	00a700a7 	.word	0x00a700a7
 8007164:	00a700a7 	.word	0x00a700a7
 8007168:	00a700a7 	.word	0x00a700a7
 800716c:	00a70100 	.word	0x00a70100
 8007170:	00a700a7 	.word	0x00a700a7
 8007174:	00a700a7 	.word	0x00a700a7
 8007178:	00a700a7 	.word	0x00a700a7
 800717c:	00a700a7 	.word	0x00a700a7
 8007180:	00a700a7 	.word	0x00a700a7
 8007184:	00a700a7 	.word	0x00a700a7
 8007188:	00a700a7 	.word	0x00a700a7
 800718c:	00a700a7 	.word	0x00a700a7
 8007190:	00a701d3 	.word	0x00a701d3
 8007194:	00a700a7 	.word	0x00a700a7
 8007198:	00a700a7 	.word	0x00a700a7
 800719c:	00fc      	.short	0x00fc
 800719e:	28b5      	cmp	r0, #181	@ 0xb5
 80071a0:	d07f      	beq.n	80072a2 <_UG_PutChar+0x17a>
 80071a2:	28c4      	cmp	r0, #196	@ 0xc4
 80071a4:	bf08      	it	eq
 80071a6:	248e      	moveq	r4, #142	@ 0x8e
 80071a8:	d175      	bne.n	8007296 <_UG_PutChar+0x16e>
      case 0xC4: bt = 0x8E; break; // 
      case 0xB5: bt = 0xE6; break; // 
      case 0xB0: bt = 0xF8; break; // 
   }

   if (bt < font->start_char || bt > font->end_char) return;
 80071aa:	f8da e010 	ldr.w	lr, [sl, #16]
 80071ae:	45a6      	cmp	lr, r4
 80071b0:	d86e      	bhi.n	8007290 <_UG_PutChar+0x168>
 80071b2:	f8da 3014 	ldr.w	r3, [sl, #20]
 80071b6:	42a3      	cmp	r3, r4
 80071b8:	d36a      	bcc.n	8007290 <_UG_PutChar+0x168>
   
   yo = y;
   bn = font->char_width;
 80071ba:	f8da 3008 	ldr.w	r3, [sl, #8]
   if ( !bn ) return;
 80071be:	2b00      	cmp	r3, #0
 80071c0:	d066      	beq.n	8007290 <_UG_PutChar+0x168>
   bn >>= 3;
 80071c2:	08da      	lsrs	r2, r3, #3
   if ( font->char_width % 8 ) bn++;
 80071c4:	0758      	lsls	r0, r3, #29
   bn >>= 3;
 80071c6:	9202      	str	r2, [sp, #8]
   if ( font->char_width % 8 ) bn++;
 80071c8:	bf1c      	itt	ne
 80071ca:	3201      	addne	r2, #1
 80071cc:	9202      	strne	r2, [sp, #8]
   actual_char_width = (font->widths ? font->widths[bt - font->start_char] : font->char_width);
 80071ce:	f8da 2018 	ldr.w	r2, [sl, #24]
 80071d2:	2a00      	cmp	r2, #0
 80071d4:	f000 80c0 	beq.w	8007358 <_UG_PutChar+0x230>
 80071d8:	eba4 000e 	sub.w	r0, r4, lr
 80071dc:	5c12      	ldrb	r2, [r2, r0]
 80071de:	9203      	str	r2, [sp, #12]

   /* Is hardware acceleration available? */
   if ( gui->driver[DRIVER_FILL_AREA].state & DRIVER_ENABLED )
 80071e0:	f8df b318 	ldr.w	fp, [pc, #792]	@ 80074fc <_UG_PutChar+0x3d4>
 80071e4:	f8db 0000 	ldr.w	r0, [fp]
 80071e8:	f890 2088 	ldrb.w	r2, [r0, #136]	@ 0x88
 80071ec:	f012 0202 	ands.w	r2, r2, #2
 80071f0:	d159      	bne.n	80072a6 <_UG_PutChar+0x17e>
	  }
   }
   else
   {
	   /*Not accelerated output*/
	   if (font->font_type == FONT_TYPE_1BPP)
 80071f2:	f89a 6004 	ldrb.w	r6, [sl, #4]
   yo = y;
 80071f6:	4689      	mov	r9, r1
	   if (font->font_type == FONT_TYPE_1BPP)
 80071f8:	2e00      	cmp	r6, #0
 80071fa:	f040 80af 	bne.w	800735c <_UG_PutChar+0x234>
	   {
         index = (bt - font->start_char)* font->char_height * bn;
 80071fe:	f8da 300c 	ldr.w	r3, [sl, #12]
 8007202:	eba4 0e0e 	sub.w	lr, r4, lr
 8007206:	fb03 fe0e 	mul.w	lr, r3, lr
         for( j=0;j<font->char_height;j++ )
 800720a:	2b00      	cmp	r3, #0
 800720c:	d040      	beq.n	8007290 <_UG_PutChar+0x168>
 800720e:	9b02      	ldr	r3, [sp, #8]
 8007210:	2b00      	cmp	r3, #0
 8007212:	d03d      	beq.n	8007290 <_UG_PutChar+0x168>
 8007214:	4650      	mov	r0, sl
 8007216:	46ca      	mov	sl, r9
 8007218:	f8dd 9050 	ldr.w	r9, [sp, #80]	@ 0x50
 800721c:	f8cd c014 	str.w	ip, [sp, #20]
 8007220:	fb0e 3103 	mla	r1, lr, r3, r3
 8007224:	4635      	mov	r5, r6
 8007226:	46b6      	mov	lr, r6
 8007228:	9b02      	ldr	r3, [sp, #8]
 800722a:	9e03      	ldr	r6, [sp, #12]
         {
           xo = x;
 800722c:	9c05      	ldr	r4, [sp, #20]
 800722e:	9504      	str	r5, [sp, #16]
 8007230:	1aca      	subs	r2, r1, r3
 8007232:	9101      	str	r1, [sp, #4]
           c=actual_char_width;
           for( i=0;i<bn;i++ )
           {
             b = font->p[index++];
 8007234:	6801      	ldr	r1, [r0, #0]
 8007236:	5c8d      	ldrb	r5, [r1, r2]
 8007238:	3201      	adds	r2, #1
             for( k=0;(k<8) && c;k++ )
 800723a:	b1e6      	cbz	r6, 8007276 <_UG_PutChar+0x14e>
 800723c:	f104 0808 	add.w	r8, r4, #8
 8007240:	9200      	str	r2, [sp, #0]
 8007242:	9015      	str	r0, [sp, #84]	@ 0x54
 8007244:	e000      	b.n	8007248 <_UG_PutChar+0x120>
 8007246:	b1a6      	cbz	r6, 8007272 <_UG_PutChar+0x14a>
             {
               if( b & 0x01 )
               {
                  gui->pset(xo,yo,fc);
 8007248:	f8db 3000 	ldr.w	r3, [fp]
               if( b & 0x01 )
 800724c:	f015 0f01 	tst.w	r5, #1
                  gui->pset(xo,yo,fc);
 8007250:	4620      	mov	r0, r4
 8007252:	463a      	mov	r2, r7
               }
               else
               {
                  gui->pset(xo,yo,bc);
 8007254:	bf08      	it	eq
 8007256:	4620      	moveq	r0, r4
                  gui->pset(xo,yo,fc);
 8007258:	4651      	mov	r1, sl
                  gui->pset(xo,yo,bc);
 800725a:	bf04      	itt	eq
 800725c:	464a      	moveq	r2, r9
 800725e:	4651      	moveq	r1, sl
                  gui->pset(xo,yo,fc);
 8007260:	681b      	ldr	r3, [r3, #0]
               }
               b >>= 1;
               xo++;
 8007262:	3401      	adds	r4, #1
                  gui->pset(xo,yo,bc);
 8007264:	4798      	blx	r3
             for( k=0;(k<8) && c;k++ )
 8007266:	4544      	cmp	r4, r8
               c--;
 8007268:	f106 36ff 	add.w	r6, r6, #4294967295
               b >>= 1;
 800726c:	ea4f 0555 	mov.w	r5, r5, lsr #1
             for( k=0;(k<8) && c;k++ )
 8007270:	d1e9      	bne.n	8007246 <_UG_PutChar+0x11e>
 8007272:	9a00      	ldr	r2, [sp, #0]
 8007274:	9815      	ldr	r0, [sp, #84]	@ 0x54
           for( i=0;i<bn;i++ )
 8007276:	9b01      	ldr	r3, [sp, #4]
 8007278:	429a      	cmp	r2, r3
 800727a:	d1db      	bne.n	8007234 <_UG_PutChar+0x10c>
         for( j=0;j<font->char_height;j++ )
 800727c:	4619      	mov	r1, r3
 800727e:	9b02      	ldr	r3, [sp, #8]
 8007280:	9d04      	ldr	r5, [sp, #16]
 8007282:	4419      	add	r1, r3
 8007284:	68c3      	ldr	r3, [r0, #12]
 8007286:	3501      	adds	r5, #1
 8007288:	42ab      	cmp	r3, r5
             }
           }
           yo++;
 800728a:	f10a 0a01 	add.w	sl, sl, #1
         for( j=0;j<font->char_height;j++ )
 800728e:	d8cb      	bhi.n	8007228 <_UG_PutChar+0x100>
            index += font->char_width - actual_char_width;
            yo++;
         }
      }
   }
}
 8007290:	b00b      	add	sp, #44	@ 0x2c
 8007292:	e8bd 8ff0 	ldmia.w	sp!, {r4, r5, r6, r7, r8, r9, sl, fp, pc}
   switch ( bt )
 8007296:	28b0      	cmp	r0, #176	@ 0xb0
 8007298:	bf08      	it	eq
 800729a:	24f8      	moveq	r4, #248	@ 0xf8
 800729c:	d085      	beq.n	80071aa <_UG_PutChar+0x82>
   if (bt < font->start_char || bt > font->end_char) return;
 800729e:	4604      	mov	r4, r0
 80072a0:	e783      	b.n	80071aa <_UG_PutChar+0x82>
   switch ( bt )
 80072a2:	24e6      	movs	r4, #230	@ 0xe6
 80072a4:	e781      	b.n	80071aa <_UG_PutChar+0x82>
      push_pixel = ((void*(*)(UG_S16, UG_S16, UG_S16, UG_S16))gui->driver[DRIVER_FILL_AREA].driver)(x,y,x+actual_char_width-1,y+font->char_height-1);
 80072a6:	f8da 300c 	ldr.w	r3, [sl, #12]
 80072aa:	f8d0 6084 	ldr.w	r6, [r0, #132]	@ 0x84
 80072ae:	9803      	ldr	r0, [sp, #12]
 80072b0:	440b      	add	r3, r1
 80072b2:	f10c 32ff 	add.w	r2, ip, #4294967295
 80072b6:	3b01      	subs	r3, #1
 80072b8:	4402      	add	r2, r0
 80072ba:	4660      	mov	r0, ip
 80072bc:	47b0      	blx	r6
      if (font->font_type == FONT_TYPE_1BPP)
 80072be:	f89a 3004 	ldrb.w	r3, [sl, #4]
      push_pixel = ((void*(*)(UG_S16, UG_S16, UG_S16, UG_S16))gui->driver[DRIVER_FILL_AREA].driver)(x,y,x+actual_char_width-1,y+font->char_height-1);
 80072c2:	4680      	mov	r8, r0
      if (font->font_type == FONT_TYPE_1BPP)
 80072c4:	2b00      	cmp	r3, #0
 80072c6:	f040 80b0 	bne.w	800742a <_UG_PutChar+0x302>
	      index = (bt - font->start_char)* font->char_height * bn;
 80072ca:	f8da 2010 	ldr.w	r2, [sl, #16]
 80072ce:	f8da 100c 	ldr.w	r1, [sl, #12]
 80072d2:	1aa2      	subs	r2, r4, r2
 80072d4:	fb01 f202 	mul.w	r2, r1, r2
		  for( j=0;j<font->char_height;j++ )
 80072d8:	2900      	cmp	r1, #0
 80072da:	d0d9      	beq.n	8007290 <_UG_PutChar+0x168>
 80072dc:	9902      	ldr	r1, [sp, #8]
 80072de:	2900      	cmp	r1, #0
 80072e0:	d0d6      	beq.n	8007290 <_UG_PutChar+0x168>
 80072e2:	fb02 1901 	mla	r9, r2, r1, r1
 80072e6:	4649      	mov	r1, r9
 80072e8:	f8dd 9050 	ldr.w	r9, [sp, #80]	@ 0x50
 80072ec:	461a      	mov	r2, r3
 80072ee:	4655      	mov	r5, sl
 80072f0:	9b02      	ldr	r3, [sp, #8]
 80072f2:	9c03      	ldr	r4, [sp, #12]
 80072f4:	e9cd 1200 	strd	r1, r2, [sp]
 80072f8:	eba1 0b03 	sub.w	fp, r1, r3
			 for( i=0;i<bn;i++ )
 80072fc:	46aa      	mov	sl, r5
 80072fe:	465d      	mov	r5, fp
				b = font->p[index++];
 8007300:	f8da 1000 	ldr.w	r1, [sl]
 8007304:	f1a4 0608 	sub.w	r6, r4, #8
 8007308:	f811 b005 	ldrb.w	fp, [r1, r5]
 800730c:	3501      	adds	r5, #1
				for( k=0;(k<8) && c;k++ )
 800730e:	b90c      	cbnz	r4, 8007314 <_UG_PutChar+0x1ec>
 8007310:	e020      	b.n	8007354 <_UG_PutChar+0x22c>
 8007312:	b1fc      	cbz	r4, 8007354 <_UG_PutChar+0x22c>
				   if( b & 0x01 )
 8007314:	f01b 0f01 	tst.w	fp, #1
					  push_pixel(fc);
 8007318:	4638      	mov	r0, r7
				   c--;
 800731a:	f104 34ff 	add.w	r4, r4, #4294967295
					  push_pixel(bc);
 800731e:	bf08      	it	eq
 8007320:	4648      	moveq	r0, r9
 8007322:	47c0      	blx	r8
				for( k=0;(k<8) && c;k++ )
 8007324:	42b4      	cmp	r4, r6
				   b >>= 1;
 8007326:	ea4f 0b5b 	mov.w	fp, fp, lsr #1
				for( k=0;(k<8) && c;k++ )
 800732a:	d1f2      	bne.n	8007312 <_UG_PutChar+0x1ea>
			 for( i=0;i<bn;i++ )
 800732c:	9b00      	ldr	r3, [sp, #0]
 800732e:	42ab      	cmp	r3, r5
 8007330:	d1e6      	bne.n	8007300 <_UG_PutChar+0x1d8>
		  for( j=0;j<font->char_height;j++ )
 8007332:	4619      	mov	r1, r3
 8007334:	9b02      	ldr	r3, [sp, #8]
 8007336:	9a01      	ldr	r2, [sp, #4]
 8007338:	4419      	add	r1, r3
 800733a:	f8da 300c 	ldr.w	r3, [sl, #12]
 800733e:	3201      	adds	r2, #1
 8007340:	4293      	cmp	r3, r2
 8007342:	4655      	mov	r5, sl
 8007344:	d8d4      	bhi.n	80072f0 <_UG_PutChar+0x1c8>
 8007346:	e7a3      	b.n	8007290 <_UG_PutChar+0x168>
      case 0xFC: bt = 0x81; break; // 
 8007348:	2481      	movs	r4, #129	@ 0x81
 800734a:	e72e      	b.n	80071aa <_UG_PutChar+0x82>
      case 0xDC: bt = 0x9A; break; // 
 800734c:	249a      	movs	r4, #154	@ 0x9a
 800734e:	e72c      	b.n	80071aa <_UG_PutChar+0x82>
      case 0xE4: bt = 0x84; break; // 
 8007350:	2484      	movs	r4, #132	@ 0x84
 8007352:	e72a      	b.n	80071aa <_UG_PutChar+0x82>
				   c--;
 8007354:	2400      	movs	r4, #0
 8007356:	e7e9      	b.n	800732c <_UG_PutChar+0x204>
 8007358:	9303      	str	r3, [sp, #12]
 800735a:	e741      	b.n	80071e0 <_UG_PutChar+0xb8>
      else if (font->font_type == FONT_TYPE_8BPP)
 800735c:	2e01      	cmp	r6, #1
 800735e:	d197      	bne.n	8007290 <_UG_PutChar+0x168>
         index = (bt - font->start_char)* font->char_height * font->char_width;
 8007360:	f8da 000c 	ldr.w	r0, [sl, #12]
 8007364:	eba4 040e 	sub.w	r4, r4, lr
 8007368:	fb00 f303 	mul.w	r3, r0, r3
 800736c:	fb04 fe03 	mul.w	lr, r4, r3
         for( j=0;j<font->char_height;j++ )
 8007370:	2800      	cmp	r0, #0
 8007372:	d08d      	beq.n	8007290 <_UG_PutChar+0x168>
 8007374:	9b03      	ldr	r3, [sp, #12]
 8007376:	2b00      	cmp	r3, #0
 8007378:	d08a      	beq.n	8007290 <_UG_PutChar+0x168>
 800737a:	f10c 33ff 	add.w	r3, ip, #4294967295
 800737e:	9308      	str	r3, [sp, #32]
 8007380:	9b14      	ldr	r3, [sp, #80]	@ 0x50
 8007382:	9109      	str	r1, [sp, #36]	@ 0x24
 8007384:	b2dd      	uxtb	r5, r3
 8007386:	f407 437f 	and.w	r3, r7, #65280	@ 0xff00
 800738a:	9300      	str	r3, [sp, #0]
 800738c:	f407 037f 	and.w	r3, r7, #16711680	@ 0xff0000
 8007390:	9301      	str	r3, [sp, #4]
 8007392:	9b14      	ldr	r3, [sp, #80]	@ 0x50
 8007394:	f403 437f 	and.w	r3, r3, #65280	@ 0xff00
 8007398:	9305      	str	r3, [sp, #20]
 800739a:	9b14      	ldr	r3, [sp, #80]	@ 0x50
 800739c:	b2fe      	uxtb	r6, r7
 800739e:	f403 097f 	and.w	r9, r3, #16711680	@ 0xff0000
 80073a2:	4694      	mov	ip, r2
               gui->pset(xo,yo,color);
 80073a4:	9b09      	ldr	r3, [sp, #36]	@ 0x24
 80073a6:	4463      	add	r3, ip
 80073a8:	9302      	str	r3, [sp, #8]
 80073aa:	9b03      	ldr	r3, [sp, #12]
 80073ac:	eb03 080e 	add.w	r8, r3, lr
 80073b0:	9b08      	ldr	r3, [sp, #32]
 80073b2:	e9cd ec06 	strd	lr, ip, [sp, #24]
 80073b6:	eba3 070e 	sub.w	r7, r3, lr
 80073ba:	4674      	mov	r4, lr
 80073bc:	9704      	str	r7, [sp, #16]
               b = font->p[index++];
 80073be:	f8da 2000 	ldr.w	r2, [sl]
                       ((((fc & 0xFF00) * b + (bc & 0xFF00) * (256 - b)) >> 8)  & 0xFF00) |     // Green
 80073c2:	9905      	ldr	r1, [sp, #20]
                       ((((fc & 0xFF0000) * b + (bc & 0xFF0000) * (256 - b)) >> 8) & 0xFF0000); // Red
 80073c4:	9f01      	ldr	r7, [sp, #4]
 80073c6:	4623      	mov	r3, r4
               b = font->p[index++];
 80073c8:	3401      	adds	r4, #1
 80073ca:	f812 c003 	ldrb.w	ip, [r2, r3]
               gui->pset(xo,yo,color);
 80073ce:	f8db 3000 	ldr.w	r3, [fp]
               color = ((((fc & 0xFF) * b + (bc & 0xFF) * (256 - b)) >> 8) & 0xFF)        |     // Blue
 80073d2:	f5cc 7280 	rsb	r2, ip, #256	@ 0x100
                       ((((fc & 0xFF00) * b + (bc & 0xFF00) * (256 - b)) >> 8)  & 0xFF00) |     // Green
 80073d6:	fb01 f002 	mul.w	r0, r1, r2
 80073da:	9900      	ldr	r1, [sp, #0]
               gui->pset(xo,yo,color);
 80073dc:	681b      	ldr	r3, [r3, #0]
                       ((((fc & 0xFF00) * b + (bc & 0xFF00) * (256 - b)) >> 8)  & 0xFF00) |     // Green
 80073de:	fb01 000c 	mla	r0, r1, ip, r0
               color = ((((fc & 0xFF) * b + (bc & 0xFF) * (256 - b)) >> 8) & 0xFF)        |     // Blue
 80073e2:	fb05 f102 	mul.w	r1, r5, r2
 80073e6:	fb06 110c 	mla	r1, r6, ip, r1
                       ((((fc & 0xFF00) * b + (bc & 0xFF00) * (256 - b)) >> 8)  & 0xFF00) |     // Green
 80073ea:	0a00      	lsrs	r0, r0, #8
                       ((((fc & 0xFF0000) * b + (bc & 0xFF0000) * (256 - b)) >> 8) & 0xFF0000); // Red
 80073ec:	fb09 f202 	mul.w	r2, r9, r2
                       ((((fc & 0xFF00) * b + (bc & 0xFF00) * (256 - b)) >> 8)  & 0xFF00) |     // Green
 80073f0:	f400 407f 	and.w	r0, r0, #65280	@ 0xff00
                       ((((fc & 0xFF0000) * b + (bc & 0xFF0000) * (256 - b)) >> 8) & 0xFF0000); // Red
 80073f4:	fb07 220c 	mla	r2, r7, ip, r2
               color = ((((fc & 0xFF) * b + (bc & 0xFF) * (256 - b)) >> 8) & 0xFF)        |     // Blue
 80073f8:	f3c1 2107 	ubfx	r1, r1, #8, #8
 80073fc:	4301      	orrs	r1, r0
                       ((((fc & 0xFF0000) * b + (bc & 0xFF0000) * (256 - b)) >> 8) & 0xFF0000); // Red
 80073fe:	0a12      	lsrs	r2, r2, #8
               gui->pset(xo,yo,color);
 8007400:	9804      	ldr	r0, [sp, #16]
                       ((((fc & 0xFF0000) * b + (bc & 0xFF0000) * (256 - b)) >> 8) & 0xFF0000); // Red
 8007402:	f402 027f 	and.w	r2, r2, #16711680	@ 0xff0000
               gui->pset(xo,yo,color);
 8007406:	430a      	orrs	r2, r1
 8007408:	4420      	add	r0, r4
 800740a:	9902      	ldr	r1, [sp, #8]
 800740c:	4798      	blx	r3
            for( i=0;i<actual_char_width;i++ )
 800740e:	4544      	cmp	r4, r8
 8007410:	d1d5      	bne.n	80073be <_UG_PutChar+0x296>
         for( j=0;j<font->char_height;j++ )
 8007412:	e9dd ec06 	ldrd	lr, ip, [sp, #24]
            index += font->char_width - actual_char_width;
 8007416:	f8da 3008 	ldr.w	r3, [sl, #8]
 800741a:	449e      	add	lr, r3
         for( j=0;j<font->char_height;j++ )
 800741c:	f8da 300c 	ldr.w	r3, [sl, #12]
 8007420:	f10c 0c01 	add.w	ip, ip, #1
 8007424:	4563      	cmp	r3, ip
 8007426:	d8bd      	bhi.n	80073a4 <_UG_PutChar+0x27c>
 8007428:	e732      	b.n	8007290 <_UG_PutChar+0x168>
	  else if (font->font_type == FONT_TYPE_8BPP)
 800742a:	2b01      	cmp	r3, #1
 800742c:	f47f af30 	bne.w	8007290 <_UG_PutChar+0x168>
		   index = (bt - font->start_char)* font->char_height * font->char_width;
 8007430:	e9da 3102 	ldrd	r3, r1, [sl, #8]
 8007434:	f8da 2010 	ldr.w	r2, [sl, #16]
 8007438:	fb01 f303 	mul.w	r3, r1, r3
 800743c:	1aa2      	subs	r2, r4, r2
 800743e:	fb02 fb03 	mul.w	fp, r2, r3
		   for( j=0;j<font->char_height;j++ )
 8007442:	2900      	cmp	r1, #0
 8007444:	f43f af24 	beq.w	8007290 <_UG_PutChar+0x168>
 8007448:	9b03      	ldr	r3, [sp, #12]
 800744a:	2b00      	cmp	r3, #0
 800744c:	f43f af20 	beq.w	8007290 <_UG_PutChar+0x168>
 8007450:	9b14      	ldr	r3, [sp, #80]	@ 0x50
 8007452:	9a14      	ldr	r2, [sp, #80]	@ 0x50
 8007454:	b2dd      	uxtb	r5, r3
 8007456:	f407 437f 	and.w	r3, r7, #65280	@ 0xff00
 800745a:	9300      	str	r3, [sp, #0]
 800745c:	f407 037f 	and.w	r3, r7, #16711680	@ 0xff0000
 8007460:	9301      	str	r3, [sp, #4]
 8007462:	9b14      	ldr	r3, [sp, #80]	@ 0x50
 8007464:	f403 437f 	and.w	r3, r3, #65280	@ 0xff00
 8007468:	2100      	movs	r1, #0
 800746a:	46de      	mov	lr, fp
 800746c:	469b      	mov	fp, r3
 800746e:	462b      	mov	r3, r5
 8007470:	b2fe      	uxtb	r6, r7
 8007472:	4655      	mov	r5, sl
 8007474:	f402 097f 	and.w	r9, r2, #16711680	@ 0xff0000
 8007478:	468c      	mov	ip, r1
 800747a:	469a      	mov	sl, r3
			  for( i=0;i<actual_char_width;i++ )
 800747c:	9515      	str	r5, [sp, #84]	@ 0x54
 800747e:	9b03      	ldr	r3, [sp, #12]
 8007480:	9f15      	ldr	r7, [sp, #84]	@ 0x54
 8007482:	f8cd e008 	str.w	lr, [sp, #8]
 8007486:	eb03 040e 	add.w	r4, r3, lr
 800748a:	f8cd c010 	str.w	ip, [sp, #16]
 800748e:	4675      	mov	r5, lr
				 b = font->p[index++];
 8007490:	6838      	ldr	r0, [r7, #0]
				         ((((fc & 0xFF00) * b + (bc & 0xFF00) * (256 - b)) >> 8)  & 0xFF00) |     // Green
 8007492:	9a00      	ldr	r2, [sp, #0]
 8007494:	462b      	mov	r3, r5
				 b = font->p[index++];
 8007496:	3501      	adds	r5, #1
 8007498:	f810 e003 	ldrb.w	lr, [r0, r3]
				 color = ((((fc & 0xFF) * b + (bc & 0xFF) * (256 - b)) >> 8) & 0xFF)        |     // Blue
 800749c:	f5ce 7380 	rsb	r3, lr, #256	@ 0x100
				         ((((fc & 0xFF00) * b + (bc & 0xFF00) * (256 - b)) >> 8)  & 0xFF00) |     // Green
 80074a0:	fb0b fc03 	mul.w	ip, fp, r3
 80074a4:	fb02 cc0e 	mla	ip, r2, lr, ip
				         ((((fc & 0xFF0000) * b + (bc & 0xFF0000) * (256 - b)) >> 8) & 0xFF0000); // Red
 80074a8:	9a01      	ldr	r2, [sp, #4]
				 color = ((((fc & 0xFF) * b + (bc & 0xFF) * (256 - b)) >> 8) & 0xFF)        |     // Blue
 80074aa:	fb0a f003 	mul.w	r0, sl, r3
				         ((((fc & 0xFF0000) * b + (bc & 0xFF0000) * (256 - b)) >> 8) & 0xFF0000); // Red
 80074ae:	fb09 f303 	mul.w	r3, r9, r3
				 color = ((((fc & 0xFF) * b + (bc & 0xFF) * (256 - b)) >> 8) & 0xFF)        |     // Blue
 80074b2:	fb06 000e 	mla	r0, r6, lr, r0
				         ((((fc & 0xFF0000) * b + (bc & 0xFF0000) * (256 - b)) >> 8) & 0xFF0000); // Red
 80074b6:	fb02 330e 	mla	r3, r2, lr, r3
				         ((((fc & 0xFF00) * b + (bc & 0xFF00) * (256 - b)) >> 8)  & 0xFF00) |     // Green
 80074ba:	ea4f 2c1c 	mov.w	ip, ip, lsr #8
 80074be:	f40c 4c7f 	and.w	ip, ip, #65280	@ 0xff00
				 color = ((((fc & 0xFF) * b + (bc & 0xFF) * (256 - b)) >> 8) & 0xFF)        |     // Blue
 80074c2:	f3c0 2007 	ubfx	r0, r0, #8, #8
				         ((((fc & 0xFF0000) * b + (bc & 0xFF0000) * (256 - b)) >> 8) & 0xFF0000); // Red
 80074c6:	0a1b      	lsrs	r3, r3, #8
				 color = ((((fc & 0xFF) * b + (bc & 0xFF) * (256 - b)) >> 8) & 0xFF)        |     // Blue
 80074c8:	ea40 000c 	orr.w	r0, r0, ip
				         ((((fc & 0xFF0000) * b + (bc & 0xFF0000) * (256 - b)) >> 8) & 0xFF0000); // Red
 80074cc:	f403 037f 	and.w	r3, r3, #16711680	@ 0xff0000
				 push_pixel(color);
 80074d0:	4318      	orrs	r0, r3
 80074d2:	47c0      	blx	r8
			  for( i=0;i<actual_char_width;i++ )
 80074d4:	42a5      	cmp	r5, r4
 80074d6:	d1db      	bne.n	8007490 <_UG_PutChar+0x368>
			  index += font->char_width - actual_char_width;
 80074d8:	68bb      	ldr	r3, [r7, #8]
		   for( j=0;j<font->char_height;j++ )
 80074da:	f8dd e008 	ldr.w	lr, [sp, #8]
 80074de:	f8dd c010 	ldr.w	ip, [sp, #16]
			  index += font->char_width - actual_char_width;
 80074e2:	449e      	add	lr, r3
		   for( j=0;j<font->char_height;j++ )
 80074e4:	68fb      	ldr	r3, [r7, #12]
 80074e6:	f10c 0c01 	add.w	ip, ip, #1
 80074ea:	4563      	cmp	r3, ip
 80074ec:	463d      	mov	r5, r7
 80074ee:	d8c5      	bhi.n	800747c <_UG_PutChar+0x354>
 80074f0:	e6ce      	b.n	8007290 <_UG_PutChar+0x168>
   switch ( bt )
 80074f2:	2499      	movs	r4, #153	@ 0x99
 80074f4:	e659      	b.n	80071aa <_UG_PutChar+0x82>
 80074f6:	2494      	movs	r4, #148	@ 0x94
 80074f8:	e657      	b.n	80071aa <_UG_PutChar+0x82>
 80074fa:	bf00      	nop
 80074fc:	20001330 	.word	0x20001330

08007500 <UG_PutString>:
{
 8007500:	e92d 47f0 	stmdb	sp!, {r4, r5, r6, r7, r8, r9, sl, lr}
 8007504:	4680      	mov	r8, r0
   while ( *str != 0 )
 8007506:	7810      	ldrb	r0, [r2, #0]
{
 8007508:	b082      	sub	sp, #8
   while ( *str != 0 )
 800750a:	b380      	cbz	r0, 800756e <UG_PutString+0x6e>
	  if (chr < gui->font.start_char || chr > gui->font.end_char) continue;
 800750c:	f8df 9070 	ldr.w	r9, [pc, #112]	@ 8007580 <UG_PutString+0x80>
 8007510:	f8d9 4000 	ldr.w	r4, [r9]
 8007514:	4615      	mov	r5, r2
 8007516:	468a      	mov	sl, r1
   xp=x;
 8007518:	4646      	mov	r6, r8
	  if (chr < gui->font.start_char || chr > gui->font.end_char) continue;
 800751a:	6d62      	ldr	r2, [r4, #84]	@ 0x54
 800751c:	4290      	cmp	r0, r2
 800751e:	d322      	bcc.n	8007566 <UG_PutString+0x66>
 8007520:	6da3      	ldr	r3, [r4, #88]	@ 0x58
 8007522:	4298      	cmp	r0, r3
 8007524:	d81f      	bhi.n	8007566 <UG_PutString+0x66>
      if ( chr == '\n' )
 8007526:	280a      	cmp	r0, #10
         xp = gui->x_dim;
 8007528:	6861      	ldr	r1, [r4, #4]
      if ( chr == '\n' )
 800752a:	d026      	beq.n	800757a <UG_PutString+0x7a>
	  cw = gui->font.widths ? gui->font.widths[chr - gui->font.start_char] : gui->font.char_width;
 800752c:	6de3      	ldr	r3, [r4, #92]	@ 0x5c
 800752e:	b30b      	cbz	r3, 8007574 <UG_PutString+0x74>
 8007530:	1a82      	subs	r2, r0, r2
 8007532:	5c9f      	ldrb	r7, [r3, r2]
      if ( xp + cw > gui->x_dim - 1 )
 8007534:	19bb      	adds	r3, r7, r6
 8007536:	428b      	cmp	r3, r1
 8007538:	db05      	blt.n	8007546 <UG_PutString+0x46>
         yp += gui->font.char_height+gui->char_v_space;
 800753a:	f994 3061 	ldrsb.w	r3, [r4, #97]	@ 0x61
 800753e:	6d22      	ldr	r2, [r4, #80]	@ 0x50
 8007540:	4413      	add	r3, r2
 8007542:	449a      	add	sl, r3
         xp = x;
 8007544:	4646      	mov	r6, r8
	_UG_PutChar(chr,x,y,fc,bc,&gui->font);
 8007546:	f104 0244 	add.w	r2, r4, #68	@ 0x44
 800754a:	6e63      	ldr	r3, [r4, #100]	@ 0x64
 800754c:	9201      	str	r2, [sp, #4]
 800754e:	6ea4      	ldr	r4, [r4, #104]	@ 0x68
 8007550:	9400      	str	r4, [sp, #0]
 8007552:	4631      	mov	r1, r6
 8007554:	4652      	mov	r2, sl
 8007556:	f7ff fde7 	bl	8007128 <_UG_PutChar>
      xp += cw + gui->char_h_space;
 800755a:	f8d9 4000 	ldr.w	r4, [r9]
 800755e:	f994 3060 	ldrsb.w	r3, [r4, #96]	@ 0x60
 8007562:	443b      	add	r3, r7
 8007564:	441e      	add	r6, r3
   while ( *str != 0 )
 8007566:	f815 0f01 	ldrb.w	r0, [r5, #1]!
 800756a:	2800      	cmp	r0, #0
 800756c:	d1d5      	bne.n	800751a <UG_PutString+0x1a>
}
 800756e:	b002      	add	sp, #8
 8007570:	e8bd 87f0 	ldmia.w	sp!, {r4, r5, r6, r7, r8, r9, sl, pc}
	  cw = gui->font.widths ? gui->font.widths[chr - gui->font.start_char] : gui->font.char_width;
 8007574:	f894 704c 	ldrb.w	r7, [r4, #76]	@ 0x4c
 8007578:	e7dc      	b.n	8007534 <UG_PutString+0x34>
         xp = gui->x_dim;
 800757a:	460e      	mov	r6, r1
 800757c:	e7f3      	b.n	8007566 <UG_PutString+0x66>
 800757e:	bf00      	nop
 8007580:	20001330 	.word	0x20001330

08007584 <malloc>:
 8007584:	4b02      	ldr	r3, [pc, #8]	@ (8007590 <malloc+0xc>)
 8007586:	4601      	mov	r1, r0
 8007588:	6818      	ldr	r0, [r3, #0]
 800758a:	f000 b82d 	b.w	80075e8 <_malloc_r>
 800758e:	bf00      	nop
 8007590:	20000060 	.word	0x20000060

08007594 <free>:
 8007594:	4b02      	ldr	r3, [pc, #8]	@ (80075a0 <free+0xc>)
 8007596:	4601      	mov	r1, r0
 8007598:	6818      	ldr	r0, [r3, #0]
 800759a:	f000 bc47 	b.w	8007e2c <_free_r>
 800759e:	bf00      	nop
 80075a0:	20000060 	.word	0x20000060

080075a4 <sbrk_aligned>:
 80075a4:	b570      	push	{r4, r5, r6, lr}
 80075a6:	4e0f      	ldr	r6, [pc, #60]	@ (80075e4 <sbrk_aligned+0x40>)
 80075a8:	460c      	mov	r4, r1
 80075aa:	6831      	ldr	r1, [r6, #0]
 80075ac:	4605      	mov	r5, r0
 80075ae:	b911      	cbnz	r1, 80075b6 <sbrk_aligned+0x12>
 80075b0:	f000 fbce 	bl	8007d50 <_sbrk_r>
 80075b4:	6030      	str	r0, [r6, #0]
 80075b6:	4621      	mov	r1, r4
 80075b8:	4628      	mov	r0, r5
 80075ba:	f000 fbc9 	bl	8007d50 <_sbrk_r>
 80075be:	1c43      	adds	r3, r0, #1
 80075c0:	d103      	bne.n	80075ca <sbrk_aligned+0x26>
 80075c2:	f04f 34ff 	mov.w	r4, #4294967295
 80075c6:	4620      	mov	r0, r4
 80075c8:	bd70      	pop	{r4, r5, r6, pc}
 80075ca:	1cc4      	adds	r4, r0, #3
 80075cc:	f024 0403 	bic.w	r4, r4, #3
 80075d0:	42a0      	cmp	r0, r4
 80075d2:	d0f8      	beq.n	80075c6 <sbrk_aligned+0x22>
 80075d4:	1a21      	subs	r1, r4, r0
 80075d6:	4628      	mov	r0, r5
 80075d8:	f000 fbba 	bl	8007d50 <_sbrk_r>
 80075dc:	3001      	adds	r0, #1
 80075de:	d1f2      	bne.n	80075c6 <sbrk_aligned+0x22>
 80075e0:	e7ef      	b.n	80075c2 <sbrk_aligned+0x1e>
 80075e2:	bf00      	nop
 80075e4:	20001334 	.word	0x20001334

080075e8 <_malloc_r>:
 80075e8:	e92d 43f8 	stmdb	sp!, {r3, r4, r5, r6, r7, r8, r9, lr}
 80075ec:	1ccd      	adds	r5, r1, #3
 80075ee:	f025 0503 	bic.w	r5, r5, #3
 80075f2:	3508      	adds	r5, #8
 80075f4:	2d0c      	cmp	r5, #12
 80075f6:	bf38      	it	cc
 80075f8:	250c      	movcc	r5, #12
 80075fa:	2d00      	cmp	r5, #0
 80075fc:	4606      	mov	r6, r0
 80075fe:	db01      	blt.n	8007604 <_malloc_r+0x1c>
 8007600:	42a9      	cmp	r1, r5
 8007602:	d904      	bls.n	800760e <_malloc_r+0x26>
 8007604:	230c      	movs	r3, #12
 8007606:	6033      	str	r3, [r6, #0]
 8007608:	2000      	movs	r0, #0
 800760a:	e8bd 83f8 	ldmia.w	sp!, {r3, r4, r5, r6, r7, r8, r9, pc}
 800760e:	f8df 80d4 	ldr.w	r8, [pc, #212]	@ 80076e4 <_malloc_r+0xfc>
 8007612:	f000 f869 	bl	80076e8 <__malloc_lock>
 8007616:	f8d8 3000 	ldr.w	r3, [r8]
 800761a:	461c      	mov	r4, r3
 800761c:	bb44      	cbnz	r4, 8007670 <_malloc_r+0x88>
 800761e:	4629      	mov	r1, r5
 8007620:	4630      	mov	r0, r6
 8007622:	f7ff ffbf 	bl	80075a4 <sbrk_aligned>
 8007626:	1c43      	adds	r3, r0, #1
 8007628:	4604      	mov	r4, r0
 800762a:	d158      	bne.n	80076de <_malloc_r+0xf6>
 800762c:	f8d8 4000 	ldr.w	r4, [r8]
 8007630:	4627      	mov	r7, r4
 8007632:	2f00      	cmp	r7, #0
 8007634:	d143      	bne.n	80076be <_malloc_r+0xd6>
 8007636:	2c00      	cmp	r4, #0
 8007638:	d04b      	beq.n	80076d2 <_malloc_r+0xea>
 800763a:	6823      	ldr	r3, [r4, #0]
 800763c:	4639      	mov	r1, r7
 800763e:	4630      	mov	r0, r6
 8007640:	eb04 0903 	add.w	r9, r4, r3
 8007644:	f000 fb84 	bl	8007d50 <_sbrk_r>
 8007648:	4581      	cmp	r9, r0
 800764a:	d142      	bne.n	80076d2 <_malloc_r+0xea>
 800764c:	6821      	ldr	r1, [r4, #0]
 800764e:	1a6d      	subs	r5, r5, r1
 8007650:	4629      	mov	r1, r5
 8007652:	4630      	mov	r0, r6
 8007654:	f7ff ffa6 	bl	80075a4 <sbrk_aligned>
 8007658:	3001      	adds	r0, #1
 800765a:	d03a      	beq.n	80076d2 <_malloc_r+0xea>
 800765c:	6823      	ldr	r3, [r4, #0]
 800765e:	442b      	add	r3, r5
 8007660:	6023      	str	r3, [r4, #0]
 8007662:	f8d8 3000 	ldr.w	r3, [r8]
 8007666:	685a      	ldr	r2, [r3, #4]
 8007668:	bb62      	cbnz	r2, 80076c4 <_malloc_r+0xdc>
 800766a:	f8c8 7000 	str.w	r7, [r8]
 800766e:	e00f      	b.n	8007690 <_malloc_r+0xa8>
 8007670:	6822      	ldr	r2, [r4, #0]
 8007672:	1b52      	subs	r2, r2, r5
 8007674:	d420      	bmi.n	80076b8 <_malloc_r+0xd0>
 8007676:	2a0b      	cmp	r2, #11
 8007678:	d917      	bls.n	80076aa <_malloc_r+0xc2>
 800767a:	1961      	adds	r1, r4, r5
 800767c:	42a3      	cmp	r3, r4
 800767e:	6025      	str	r5, [r4, #0]
 8007680:	bf18      	it	ne
 8007682:	6059      	strne	r1, [r3, #4]
 8007684:	6863      	ldr	r3, [r4, #4]
 8007686:	bf08      	it	eq
 8007688:	f8c8 1000 	streq.w	r1, [r8]
 800768c:	5162      	str	r2, [r4, r5]
 800768e:	604b      	str	r3, [r1, #4]
 8007690:	4630      	mov	r0, r6
 8007692:	f000 f82f 	bl	80076f4 <__malloc_unlock>
 8007696:	f104 000b 	add.w	r0, r4, #11
 800769a:	1d23      	adds	r3, r4, #4
 800769c:	f020 0007 	bic.w	r0, r0, #7
 80076a0:	1ac2      	subs	r2, r0, r3
 80076a2:	bf1c      	itt	ne
 80076a4:	1a1b      	subne	r3, r3, r0
 80076a6:	50a3      	strne	r3, [r4, r2]
 80076a8:	e7af      	b.n	800760a <_malloc_r+0x22>
 80076aa:	6862      	ldr	r2, [r4, #4]
 80076ac:	42a3      	cmp	r3, r4
 80076ae:	bf0c      	ite	eq
 80076b0:	f8c8 2000 	streq.w	r2, [r8]
 80076b4:	605a      	strne	r2, [r3, #4]
 80076b6:	e7eb      	b.n	8007690 <_malloc_r+0xa8>
 80076b8:	4623      	mov	r3, r4
 80076ba:	6864      	ldr	r4, [r4, #4]
 80076bc:	e7ae      	b.n	800761c <_malloc_r+0x34>
 80076be:	463c      	mov	r4, r7
 80076c0:	687f      	ldr	r7, [r7, #4]
 80076c2:	e7b6      	b.n	8007632 <_malloc_r+0x4a>
 80076c4:	461a      	mov	r2, r3
 80076c6:	685b      	ldr	r3, [r3, #4]
 80076c8:	42a3      	cmp	r3, r4
 80076ca:	d1fb      	bne.n	80076c4 <_malloc_r+0xdc>
 80076cc:	2300      	movs	r3, #0
 80076ce:	6053      	str	r3, [r2, #4]
 80076d0:	e7de      	b.n	8007690 <_malloc_r+0xa8>
 80076d2:	230c      	movs	r3, #12
 80076d4:	6033      	str	r3, [r6, #0]
 80076d6:	4630      	mov	r0, r6
 80076d8:	f000 f80c 	bl	80076f4 <__malloc_unlock>
 80076dc:	e794      	b.n	8007608 <_malloc_r+0x20>
 80076de:	6005      	str	r5, [r0, #0]
 80076e0:	e7d6      	b.n	8007690 <_malloc_r+0xa8>
 80076e2:	bf00      	nop
 80076e4:	20001338 	.word	0x20001338

080076e8 <__malloc_lock>:
 80076e8:	4801      	ldr	r0, [pc, #4]	@ (80076f0 <__malloc_lock+0x8>)
 80076ea:	f000 bb7e 	b.w	8007dea <__retarget_lock_acquire_recursive>
 80076ee:	bf00      	nop
 80076f0:	2000147c 	.word	0x2000147c

080076f4 <__malloc_unlock>:
 80076f4:	4801      	ldr	r0, [pc, #4]	@ (80076fc <__malloc_unlock+0x8>)
 80076f6:	f000 bb79 	b.w	8007dec <__retarget_lock_release_recursive>
 80076fa:	bf00      	nop
 80076fc:	2000147c 	.word	0x2000147c

08007700 <srand>:
 8007700:	b538      	push	{r3, r4, r5, lr}
 8007702:	4b10      	ldr	r3, [pc, #64]	@ (8007744 <srand+0x44>)
 8007704:	681d      	ldr	r5, [r3, #0]
 8007706:	6b2b      	ldr	r3, [r5, #48]	@ 0x30
 8007708:	4604      	mov	r4, r0
 800770a:	b9b3      	cbnz	r3, 800773a <srand+0x3a>
 800770c:	2018      	movs	r0, #24
 800770e:	f7ff ff39 	bl	8007584 <malloc>
 8007712:	4602      	mov	r2, r0
 8007714:	6328      	str	r0, [r5, #48]	@ 0x30
 8007716:	b920      	cbnz	r0, 8007722 <srand+0x22>
 8007718:	4b0b      	ldr	r3, [pc, #44]	@ (8007748 <srand+0x48>)
 800771a:	480c      	ldr	r0, [pc, #48]	@ (800774c <srand+0x4c>)
 800771c:	2146      	movs	r1, #70	@ 0x46
 800771e:	f000 fb67 	bl	8007df0 <__assert_func>
 8007722:	490b      	ldr	r1, [pc, #44]	@ (8007750 <srand+0x50>)
 8007724:	4b0b      	ldr	r3, [pc, #44]	@ (8007754 <srand+0x54>)
 8007726:	e9c0 1300 	strd	r1, r3, [r0]
 800772a:	4b0b      	ldr	r3, [pc, #44]	@ (8007758 <srand+0x58>)
 800772c:	6083      	str	r3, [r0, #8]
 800772e:	230b      	movs	r3, #11
 8007730:	8183      	strh	r3, [r0, #12]
 8007732:	2100      	movs	r1, #0
 8007734:	2001      	movs	r0, #1
 8007736:	e9c2 0104 	strd	r0, r1, [r2, #16]
 800773a:	6b2b      	ldr	r3, [r5, #48]	@ 0x30
 800773c:	2200      	movs	r2, #0
 800773e:	611c      	str	r4, [r3, #16]
 8007740:	615a      	str	r2, [r3, #20]
 8007742:	bd38      	pop	{r3, r4, r5, pc}
 8007744:	20000060 	.word	0x20000060
 8007748:	08064500 	.word	0x08064500
 800774c:	08064517 	.word	0x08064517
 8007750:	abcd330e 	.word	0xabcd330e
 8007754:	e66d1234 	.word	0xe66d1234
 8007758:	0005deec 	.word	0x0005deec

0800775c <rand>:
 800775c:	4b16      	ldr	r3, [pc, #88]	@ (80077b8 <rand+0x5c>)
 800775e:	b510      	push	{r4, lr}
 8007760:	681c      	ldr	r4, [r3, #0]
 8007762:	6b23      	ldr	r3, [r4, #48]	@ 0x30
 8007764:	b9b3      	cbnz	r3, 8007794 <rand+0x38>
 8007766:	2018      	movs	r0, #24
 8007768:	f7ff ff0c 	bl	8007584 <malloc>
 800776c:	4602      	mov	r2, r0
 800776e:	6320      	str	r0, [r4, #48]	@ 0x30
 8007770:	b920      	cbnz	r0, 800777c <rand+0x20>
 8007772:	4b12      	ldr	r3, [pc, #72]	@ (80077bc <rand+0x60>)
 8007774:	4812      	ldr	r0, [pc, #72]	@ (80077c0 <rand+0x64>)
 8007776:	2152      	movs	r1, #82	@ 0x52
 8007778:	f000 fb3a 	bl	8007df0 <__assert_func>
 800777c:	4911      	ldr	r1, [pc, #68]	@ (80077c4 <rand+0x68>)
 800777e:	4b12      	ldr	r3, [pc, #72]	@ (80077c8 <rand+0x6c>)
 8007780:	e9c0 1300 	strd	r1, r3, [r0]
 8007784:	4b11      	ldr	r3, [pc, #68]	@ (80077cc <rand+0x70>)
 8007786:	6083      	str	r3, [r0, #8]
 8007788:	230b      	movs	r3, #11
 800778a:	8183      	strh	r3, [r0, #12]
 800778c:	2100      	movs	r1, #0
 800778e:	2001      	movs	r0, #1
 8007790:	e9c2 0104 	strd	r0, r1, [r2, #16]
 8007794:	6b21      	ldr	r1, [r4, #48]	@ 0x30
 8007796:	480e      	ldr	r0, [pc, #56]	@ (80077d0 <rand+0x74>)
 8007798:	690b      	ldr	r3, [r1, #16]
 800779a:	694c      	ldr	r4, [r1, #20]
 800779c:	4a0d      	ldr	r2, [pc, #52]	@ (80077d4 <rand+0x78>)
 800779e:	4358      	muls	r0, r3
 80077a0:	fb02 0004 	mla	r0, r2, r4, r0
 80077a4:	fba3 3202 	umull	r3, r2, r3, r2
 80077a8:	3301      	adds	r3, #1
 80077aa:	eb40 0002 	adc.w	r0, r0, r2
 80077ae:	e9c1 3004 	strd	r3, r0, [r1, #16]
 80077b2:	f020 4000 	bic.w	r0, r0, #2147483648	@ 0x80000000
 80077b6:	bd10      	pop	{r4, pc}
 80077b8:	20000060 	.word	0x20000060
 80077bc:	08064500 	.word	0x08064500
 80077c0:	08064517 	.word	0x08064517
 80077c4:	abcd330e 	.word	0xabcd330e
 80077c8:	e66d1234 	.word	0xe66d1234
 80077cc:	0005deec 	.word	0x0005deec
 80077d0:	5851f42d 	.word	0x5851f42d
 80077d4:	4c957f2d 	.word	0x4c957f2d

080077d8 <std>:
 80077d8:	2300      	movs	r3, #0
 80077da:	b510      	push	{r4, lr}
 80077dc:	4604      	mov	r4, r0
 80077de:	e9c0 3300 	strd	r3, r3, [r0]
 80077e2:	e9c0 3304 	strd	r3, r3, [r0, #16]
 80077e6:	6083      	str	r3, [r0, #8]
 80077e8:	8181      	strh	r1, [r0, #12]
 80077ea:	6643      	str	r3, [r0, #100]	@ 0x64
 80077ec:	81c2      	strh	r2, [r0, #14]
 80077ee:	6183      	str	r3, [r0, #24]
 80077f0:	4619      	mov	r1, r3
 80077f2:	2208      	movs	r2, #8
 80077f4:	305c      	adds	r0, #92	@ 0x5c
 80077f6:	f000 fa6f 	bl	8007cd8 <memset>
 80077fa:	4b0d      	ldr	r3, [pc, #52]	@ (8007830 <std+0x58>)
 80077fc:	6263      	str	r3, [r4, #36]	@ 0x24
 80077fe:	4b0d      	ldr	r3, [pc, #52]	@ (8007834 <std+0x5c>)
 8007800:	62a3      	str	r3, [r4, #40]	@ 0x28
 8007802:	4b0d      	ldr	r3, [pc, #52]	@ (8007838 <std+0x60>)
 8007804:	62e3      	str	r3, [r4, #44]	@ 0x2c
 8007806:	4b0d      	ldr	r3, [pc, #52]	@ (800783c <std+0x64>)
 8007808:	6323      	str	r3, [r4, #48]	@ 0x30
 800780a:	4b0d      	ldr	r3, [pc, #52]	@ (8007840 <std+0x68>)
 800780c:	6224      	str	r4, [r4, #32]
 800780e:	429c      	cmp	r4, r3
 8007810:	d006      	beq.n	8007820 <std+0x48>
 8007812:	f103 0268 	add.w	r2, r3, #104	@ 0x68
 8007816:	4294      	cmp	r4, r2
 8007818:	d002      	beq.n	8007820 <std+0x48>
 800781a:	33d0      	adds	r3, #208	@ 0xd0
 800781c:	429c      	cmp	r4, r3
 800781e:	d105      	bne.n	800782c <std+0x54>
 8007820:	f104 0058 	add.w	r0, r4, #88	@ 0x58
 8007824:	e8bd 4010 	ldmia.w	sp!, {r4, lr}
 8007828:	f000 bade 	b.w	8007de8 <__retarget_lock_init_recursive>
 800782c:	bd10      	pop	{r4, pc}
 800782e:	bf00      	nop
 8007830:	08007b29 	.word	0x08007b29
 8007834:	08007b4b 	.word	0x08007b4b
 8007838:	08007b83 	.word	0x08007b83
 800783c:	08007ba7 	.word	0x08007ba7
 8007840:	2000133c 	.word	0x2000133c

08007844 <stdio_exit_handler>:
 8007844:	4a02      	ldr	r2, [pc, #8]	@ (8007850 <stdio_exit_handler+0xc>)
 8007846:	4903      	ldr	r1, [pc, #12]	@ (8007854 <stdio_exit_handler+0x10>)
 8007848:	4803      	ldr	r0, [pc, #12]	@ (8007858 <stdio_exit_handler+0x14>)
 800784a:	f000 b869 	b.w	8007920 <_fwalk_sglue>
 800784e:	bf00      	nop
 8007850:	20000054 	.word	0x20000054
 8007854:	08008819 	.word	0x08008819
 8007858:	20000064 	.word	0x20000064

0800785c <cleanup_stdio>:
 800785c:	6841      	ldr	r1, [r0, #4]
 800785e:	4b0c      	ldr	r3, [pc, #48]	@ (8007890 <cleanup_stdio+0x34>)
 8007860:	4299      	cmp	r1, r3
 8007862:	b510      	push	{r4, lr}
 8007864:	4604      	mov	r4, r0
 8007866:	d001      	beq.n	800786c <cleanup_stdio+0x10>
 8007868:	f000 ffd6 	bl	8008818 <_fflush_r>
 800786c:	68a1      	ldr	r1, [r4, #8]
 800786e:	4b09      	ldr	r3, [pc, #36]	@ (8007894 <cleanup_stdio+0x38>)
 8007870:	4299      	cmp	r1, r3
 8007872:	d002      	beq.n	800787a <cleanup_stdio+0x1e>
 8007874:	4620      	mov	r0, r4
 8007876:	f000 ffcf 	bl	8008818 <_fflush_r>
 800787a:	68e1      	ldr	r1, [r4, #12]
 800787c:	4b06      	ldr	r3, [pc, #24]	@ (8007898 <cleanup_stdio+0x3c>)
 800787e:	4299      	cmp	r1, r3
 8007880:	d004      	beq.n	800788c <cleanup_stdio+0x30>
 8007882:	4620      	mov	r0, r4
 8007884:	e8bd 4010 	ldmia.w	sp!, {r4, lr}
 8007888:	f000 bfc6 	b.w	8008818 <_fflush_r>
 800788c:	bd10      	pop	{r4, pc}
 800788e:	bf00      	nop
 8007890:	2000133c 	.word	0x2000133c
 8007894:	200013a4 	.word	0x200013a4
 8007898:	2000140c 	.word	0x2000140c

0800789c <global_stdio_init.part.0>:
 800789c:	b510      	push	{r4, lr}
 800789e:	4b0b      	ldr	r3, [pc, #44]	@ (80078cc <global_stdio_init.part.0+0x30>)
 80078a0:	4c0b      	ldr	r4, [pc, #44]	@ (80078d0 <global_stdio_init.part.0+0x34>)
 80078a2:	4a0c      	ldr	r2, [pc, #48]	@ (80078d4 <global_stdio_init.part.0+0x38>)
 80078a4:	601a      	str	r2, [r3, #0]
 80078a6:	4620      	mov	r0, r4
 80078a8:	2200      	movs	r2, #0
 80078aa:	2104      	movs	r1, #4
 80078ac:	f7ff ff94 	bl	80077d8 <std>
 80078b0:	f104 0068 	add.w	r0, r4, #104	@ 0x68
 80078b4:	2201      	movs	r2, #1
 80078b6:	2109      	movs	r1, #9
 80078b8:	f7ff ff8e 	bl	80077d8 <std>
 80078bc:	f104 00d0 	add.w	r0, r4, #208	@ 0xd0
 80078c0:	2202      	movs	r2, #2
 80078c2:	e8bd 4010 	ldmia.w	sp!, {r4, lr}
 80078c6:	2112      	movs	r1, #18
 80078c8:	f7ff bf86 	b.w	80077d8 <std>
 80078cc:	20001474 	.word	0x20001474
 80078d0:	2000133c 	.word	0x2000133c
 80078d4:	08007845 	.word	0x08007845

080078d8 <__sfp_lock_acquire>:
 80078d8:	4801      	ldr	r0, [pc, #4]	@ (80078e0 <__sfp_lock_acquire+0x8>)
 80078da:	f000 ba86 	b.w	8007dea <__retarget_lock_acquire_recursive>
 80078de:	bf00      	nop
 80078e0:	2000147d 	.word	0x2000147d

080078e4 <__sfp_lock_release>:
 80078e4:	4801      	ldr	r0, [pc, #4]	@ (80078ec <__sfp_lock_release+0x8>)
 80078e6:	f000 ba81 	b.w	8007dec <__retarget_lock_release_recursive>
 80078ea:	bf00      	nop
 80078ec:	2000147d 	.word	0x2000147d

080078f0 <__sinit>:
 80078f0:	b510      	push	{r4, lr}
 80078f2:	4604      	mov	r4, r0
 80078f4:	f7ff fff0 	bl	80078d8 <__sfp_lock_acquire>
 80078f8:	6a23      	ldr	r3, [r4, #32]
 80078fa:	b11b      	cbz	r3, 8007904 <__sinit+0x14>
 80078fc:	e8bd 4010 	ldmia.w	sp!, {r4, lr}
 8007900:	f7ff bff0 	b.w	80078e4 <__sfp_lock_release>
 8007904:	4b04      	ldr	r3, [pc, #16]	@ (8007918 <__sinit+0x28>)
 8007906:	6223      	str	r3, [r4, #32]
 8007908:	4b04      	ldr	r3, [pc, #16]	@ (800791c <__sinit+0x2c>)
 800790a:	681b      	ldr	r3, [r3, #0]
 800790c:	2b00      	cmp	r3, #0
 800790e:	d1f5      	bne.n	80078fc <__sinit+0xc>
 8007910:	f7ff ffc4 	bl	800789c <global_stdio_init.part.0>
 8007914:	e7f2      	b.n	80078fc <__sinit+0xc>
 8007916:	bf00      	nop
 8007918:	0800785d 	.word	0x0800785d
 800791c:	20001474 	.word	0x20001474

08007920 <_fwalk_sglue>:
 8007920:	e92d 43f8 	stmdb	sp!, {r3, r4, r5, r6, r7, r8, r9, lr}
 8007924:	4607      	mov	r7, r0
 8007926:	4688      	mov	r8, r1
 8007928:	4614      	mov	r4, r2
 800792a:	2600      	movs	r6, #0
 800792c:	e9d4 9501 	ldrd	r9, r5, [r4, #4]
 8007930:	f1b9 0901 	subs.w	r9, r9, #1
 8007934:	d505      	bpl.n	8007942 <_fwalk_sglue+0x22>
 8007936:	6824      	ldr	r4, [r4, #0]
 8007938:	2c00      	cmp	r4, #0
 800793a:	d1f7      	bne.n	800792c <_fwalk_sglue+0xc>
 800793c:	4630      	mov	r0, r6
 800793e:	e8bd 83f8 	ldmia.w	sp!, {r3, r4, r5, r6, r7, r8, r9, pc}
 8007942:	89ab      	ldrh	r3, [r5, #12]
 8007944:	2b01      	cmp	r3, #1
 8007946:	d907      	bls.n	8007958 <_fwalk_sglue+0x38>
 8007948:	f9b5 300e 	ldrsh.w	r3, [r5, #14]
 800794c:	3301      	adds	r3, #1
 800794e:	d003      	beq.n	8007958 <_fwalk_sglue+0x38>
 8007950:	4629      	mov	r1, r5
 8007952:	4638      	mov	r0, r7
 8007954:	47c0      	blx	r8
 8007956:	4306      	orrs	r6, r0
 8007958:	3568      	adds	r5, #104	@ 0x68
 800795a:	e7e9      	b.n	8007930 <_fwalk_sglue+0x10>

0800795c <iprintf>:
 800795c:	b40f      	push	{r0, r1, r2, r3}
 800795e:	b507      	push	{r0, r1, r2, lr}
 8007960:	4906      	ldr	r1, [pc, #24]	@ (800797c <iprintf+0x20>)
 8007962:	ab04      	add	r3, sp, #16
 8007964:	6808      	ldr	r0, [r1, #0]
 8007966:	f853 2b04 	ldr.w	r2, [r3], #4
 800796a:	6881      	ldr	r1, [r0, #8]
 800796c:	9301      	str	r3, [sp, #4]
 800796e:	f000 fc29 	bl	80081c4 <_vfiprintf_r>
 8007972:	b003      	add	sp, #12
 8007974:	f85d eb04 	ldr.w	lr, [sp], #4
 8007978:	b004      	add	sp, #16
 800797a:	4770      	bx	lr
 800797c:	20000060 	.word	0x20000060

08007980 <setvbuf>:
 8007980:	e92d 43f7 	stmdb	sp!, {r0, r1, r2, r4, r5, r6, r7, r8, r9, lr}
 8007984:	461d      	mov	r5, r3
 8007986:	4b57      	ldr	r3, [pc, #348]	@ (8007ae4 <setvbuf+0x164>)
 8007988:	681f      	ldr	r7, [r3, #0]
 800798a:	4604      	mov	r4, r0
 800798c:	460e      	mov	r6, r1
 800798e:	4690      	mov	r8, r2
 8007990:	b127      	cbz	r7, 800799c <setvbuf+0x1c>
 8007992:	6a3b      	ldr	r3, [r7, #32]
 8007994:	b913      	cbnz	r3, 800799c <setvbuf+0x1c>
 8007996:	4638      	mov	r0, r7
 8007998:	f7ff ffaa 	bl	80078f0 <__sinit>
 800799c:	f1b8 0f02 	cmp.w	r8, #2
 80079a0:	d006      	beq.n	80079b0 <setvbuf+0x30>
 80079a2:	f1b8 0f01 	cmp.w	r8, #1
 80079a6:	f200 809a 	bhi.w	8007ade <setvbuf+0x15e>
 80079aa:	2d00      	cmp	r5, #0
 80079ac:	f2c0 8097 	blt.w	8007ade <setvbuf+0x15e>
 80079b0:	6e63      	ldr	r3, [r4, #100]	@ 0x64
 80079b2:	07d9      	lsls	r1, r3, #31
 80079b4:	d405      	bmi.n	80079c2 <setvbuf+0x42>
 80079b6:	89a3      	ldrh	r3, [r4, #12]
 80079b8:	059a      	lsls	r2, r3, #22
 80079ba:	d402      	bmi.n	80079c2 <setvbuf+0x42>
 80079bc:	6da0      	ldr	r0, [r4, #88]	@ 0x58
 80079be:	f000 fa14 	bl	8007dea <__retarget_lock_acquire_recursive>
 80079c2:	4621      	mov	r1, r4
 80079c4:	4638      	mov	r0, r7
 80079c6:	f000 ff27 	bl	8008818 <_fflush_r>
 80079ca:	6b61      	ldr	r1, [r4, #52]	@ 0x34
 80079cc:	b141      	cbz	r1, 80079e0 <setvbuf+0x60>
 80079ce:	f104 0344 	add.w	r3, r4, #68	@ 0x44
 80079d2:	4299      	cmp	r1, r3
 80079d4:	d002      	beq.n	80079dc <setvbuf+0x5c>
 80079d6:	4638      	mov	r0, r7
 80079d8:	f000 fa28 	bl	8007e2c <_free_r>
 80079dc:	2300      	movs	r3, #0
 80079de:	6363      	str	r3, [r4, #52]	@ 0x34
 80079e0:	2300      	movs	r3, #0
 80079e2:	61a3      	str	r3, [r4, #24]
 80079e4:	6063      	str	r3, [r4, #4]
 80079e6:	89a3      	ldrh	r3, [r4, #12]
 80079e8:	061b      	lsls	r3, r3, #24
 80079ea:	d503      	bpl.n	80079f4 <setvbuf+0x74>
 80079ec:	6921      	ldr	r1, [r4, #16]
 80079ee:	4638      	mov	r0, r7
 80079f0:	f000 fa1c 	bl	8007e2c <_free_r>
 80079f4:	89a3      	ldrh	r3, [r4, #12]
 80079f6:	f423 634a 	bic.w	r3, r3, #3232	@ 0xca0
 80079fa:	f023 0303 	bic.w	r3, r3, #3
 80079fe:	f1b8 0f02 	cmp.w	r8, #2
 8007a02:	81a3      	strh	r3, [r4, #12]
 8007a04:	d061      	beq.n	8007aca <setvbuf+0x14a>
 8007a06:	ab01      	add	r3, sp, #4
 8007a08:	466a      	mov	r2, sp
 8007a0a:	4621      	mov	r1, r4
 8007a0c:	4638      	mov	r0, r7
 8007a0e:	f000 ff3d 	bl	800888c <__swhatbuf_r>
 8007a12:	89a3      	ldrh	r3, [r4, #12]
 8007a14:	4318      	orrs	r0, r3
 8007a16:	81a0      	strh	r0, [r4, #12]
 8007a18:	bb2d      	cbnz	r5, 8007a66 <setvbuf+0xe6>
 8007a1a:	9d00      	ldr	r5, [sp, #0]
 8007a1c:	4628      	mov	r0, r5
 8007a1e:	f7ff fdb1 	bl	8007584 <malloc>
 8007a22:	4606      	mov	r6, r0
 8007a24:	2800      	cmp	r0, #0
 8007a26:	d152      	bne.n	8007ace <setvbuf+0x14e>
 8007a28:	f8dd 9000 	ldr.w	r9, [sp]
 8007a2c:	45a9      	cmp	r9, r5
 8007a2e:	d140      	bne.n	8007ab2 <setvbuf+0x132>
 8007a30:	f04f 35ff 	mov.w	r5, #4294967295
 8007a34:	f9b4 300c 	ldrsh.w	r3, [r4, #12]
 8007a38:	f043 0202 	orr.w	r2, r3, #2
 8007a3c:	81a2      	strh	r2, [r4, #12]
 8007a3e:	2200      	movs	r2, #0
 8007a40:	60a2      	str	r2, [r4, #8]
 8007a42:	f104 0247 	add.w	r2, r4, #71	@ 0x47
 8007a46:	6022      	str	r2, [r4, #0]
 8007a48:	6122      	str	r2, [r4, #16]
 8007a4a:	2201      	movs	r2, #1
 8007a4c:	6162      	str	r2, [r4, #20]
 8007a4e:	6e62      	ldr	r2, [r4, #100]	@ 0x64
 8007a50:	07d6      	lsls	r6, r2, #31
 8007a52:	d404      	bmi.n	8007a5e <setvbuf+0xde>
 8007a54:	0598      	lsls	r0, r3, #22
 8007a56:	d402      	bmi.n	8007a5e <setvbuf+0xde>
 8007a58:	6da0      	ldr	r0, [r4, #88]	@ 0x58
 8007a5a:	f000 f9c7 	bl	8007dec <__retarget_lock_release_recursive>
 8007a5e:	4628      	mov	r0, r5
 8007a60:	b003      	add	sp, #12
 8007a62:	e8bd 83f0 	ldmia.w	sp!, {r4, r5, r6, r7, r8, r9, pc}
 8007a66:	2e00      	cmp	r6, #0
 8007a68:	d0d8      	beq.n	8007a1c <setvbuf+0x9c>
 8007a6a:	6a3b      	ldr	r3, [r7, #32]
 8007a6c:	b913      	cbnz	r3, 8007a74 <setvbuf+0xf4>
 8007a6e:	4638      	mov	r0, r7
 8007a70:	f7ff ff3e 	bl	80078f0 <__sinit>
 8007a74:	f1b8 0f01 	cmp.w	r8, #1
 8007a78:	bf08      	it	eq
 8007a7a:	89a3      	ldrheq	r3, [r4, #12]
 8007a7c:	6026      	str	r6, [r4, #0]
 8007a7e:	bf04      	itt	eq
 8007a80:	f043 0301 	orreq.w	r3, r3, #1
 8007a84:	81a3      	strheq	r3, [r4, #12]
 8007a86:	f9b4 300c 	ldrsh.w	r3, [r4, #12]
 8007a8a:	f013 0208 	ands.w	r2, r3, #8
 8007a8e:	e9c4 6504 	strd	r6, r5, [r4, #16]
 8007a92:	d01e      	beq.n	8007ad2 <setvbuf+0x152>
 8007a94:	07d9      	lsls	r1, r3, #31
 8007a96:	bf41      	itttt	mi
 8007a98:	2200      	movmi	r2, #0
 8007a9a:	426d      	negmi	r5, r5
 8007a9c:	60a2      	strmi	r2, [r4, #8]
 8007a9e:	61a5      	strmi	r5, [r4, #24]
 8007aa0:	bf58      	it	pl
 8007aa2:	60a5      	strpl	r5, [r4, #8]
 8007aa4:	6e62      	ldr	r2, [r4, #100]	@ 0x64
 8007aa6:	07d2      	lsls	r2, r2, #31
 8007aa8:	d401      	bmi.n	8007aae <setvbuf+0x12e>
 8007aaa:	059b      	lsls	r3, r3, #22
 8007aac:	d513      	bpl.n	8007ad6 <setvbuf+0x156>
 8007aae:	2500      	movs	r5, #0
 8007ab0:	e7d5      	b.n	8007a5e <setvbuf+0xde>
 8007ab2:	4648      	mov	r0, r9
 8007ab4:	f7ff fd66 	bl	8007584 <malloc>
 8007ab8:	4606      	mov	r6, r0
 8007aba:	2800      	cmp	r0, #0
 8007abc:	d0b8      	beq.n	8007a30 <setvbuf+0xb0>
 8007abe:	89a3      	ldrh	r3, [r4, #12]
 8007ac0:	f043 0380 	orr.w	r3, r3, #128	@ 0x80
 8007ac4:	81a3      	strh	r3, [r4, #12]
 8007ac6:	464d      	mov	r5, r9
 8007ac8:	e7cf      	b.n	8007a6a <setvbuf+0xea>
 8007aca:	2500      	movs	r5, #0
 8007acc:	e7b2      	b.n	8007a34 <setvbuf+0xb4>
 8007ace:	46a9      	mov	r9, r5
 8007ad0:	e7f5      	b.n	8007abe <setvbuf+0x13e>
 8007ad2:	60a2      	str	r2, [r4, #8]
 8007ad4:	e7e6      	b.n	8007aa4 <setvbuf+0x124>
 8007ad6:	6da0      	ldr	r0, [r4, #88]	@ 0x58
 8007ad8:	f000 f988 	bl	8007dec <__retarget_lock_release_recursive>
 8007adc:	e7e7      	b.n	8007aae <setvbuf+0x12e>
 8007ade:	f04f 35ff 	mov.w	r5, #4294967295
 8007ae2:	e7bc      	b.n	8007a5e <setvbuf+0xde>
 8007ae4:	20000060 	.word	0x20000060

08007ae8 <siprintf>:
 8007ae8:	b40e      	push	{r1, r2, r3}
 8007aea:	b500      	push	{lr}
 8007aec:	b09c      	sub	sp, #112	@ 0x70
 8007aee:	ab1d      	add	r3, sp, #116	@ 0x74
 8007af0:	9002      	str	r0, [sp, #8]
 8007af2:	9006      	str	r0, [sp, #24]
 8007af4:	f06f 4100 	mvn.w	r1, #2147483648	@ 0x80000000
 8007af8:	4809      	ldr	r0, [pc, #36]	@ (8007b20 <siprintf+0x38>)
 8007afa:	9107      	str	r1, [sp, #28]
 8007afc:	9104      	str	r1, [sp, #16]
 8007afe:	4909      	ldr	r1, [pc, #36]	@ (8007b24 <siprintf+0x3c>)
 8007b00:	f853 2b04 	ldr.w	r2, [r3], #4
 8007b04:	9105      	str	r1, [sp, #20]
 8007b06:	6800      	ldr	r0, [r0, #0]
 8007b08:	9301      	str	r3, [sp, #4]
 8007b0a:	a902      	add	r1, sp, #8
 8007b0c:	f000 fa34 	bl	8007f78 <_svfiprintf_r>
 8007b10:	9b02      	ldr	r3, [sp, #8]
 8007b12:	2200      	movs	r2, #0
 8007b14:	701a      	strb	r2, [r3, #0]
 8007b16:	b01c      	add	sp, #112	@ 0x70
 8007b18:	f85d eb04 	ldr.w	lr, [sp], #4
 8007b1c:	b003      	add	sp, #12
 8007b1e:	4770      	bx	lr
 8007b20:	20000060 	.word	0x20000060
 8007b24:	ffff0208 	.word	0xffff0208

08007b28 <__sread>:
 8007b28:	b510      	push	{r4, lr}
 8007b2a:	460c      	mov	r4, r1
 8007b2c:	f9b1 100e 	ldrsh.w	r1, [r1, #14]
 8007b30:	f000 f8fc 	bl	8007d2c <_read_r>
 8007b34:	2800      	cmp	r0, #0
 8007b36:	bfab      	itete	ge
 8007b38:	6d63      	ldrge	r3, [r4, #84]	@ 0x54
 8007b3a:	89a3      	ldrhlt	r3, [r4, #12]
 8007b3c:	181b      	addge	r3, r3, r0
 8007b3e:	f423 5380 	biclt.w	r3, r3, #4096	@ 0x1000
 8007b42:	bfac      	ite	ge
 8007b44:	6563      	strge	r3, [r4, #84]	@ 0x54
 8007b46:	81a3      	strhlt	r3, [r4, #12]
 8007b48:	bd10      	pop	{r4, pc}

08007b4a <__swrite>:
 8007b4a:	e92d 41f0 	stmdb	sp!, {r4, r5, r6, r7, r8, lr}
 8007b4e:	461f      	mov	r7, r3
 8007b50:	898b      	ldrh	r3, [r1, #12]
 8007b52:	05db      	lsls	r3, r3, #23
 8007b54:	4605      	mov	r5, r0
 8007b56:	460c      	mov	r4, r1
 8007b58:	4616      	mov	r6, r2
 8007b5a:	d505      	bpl.n	8007b68 <__swrite+0x1e>
 8007b5c:	f9b1 100e 	ldrsh.w	r1, [r1, #14]
 8007b60:	2302      	movs	r3, #2
 8007b62:	2200      	movs	r2, #0
 8007b64:	f000 f8d0 	bl	8007d08 <_lseek_r>
 8007b68:	89a3      	ldrh	r3, [r4, #12]
 8007b6a:	f9b4 100e 	ldrsh.w	r1, [r4, #14]
 8007b6e:	f423 5380 	bic.w	r3, r3, #4096	@ 0x1000
 8007b72:	81a3      	strh	r3, [r4, #12]
 8007b74:	4632      	mov	r2, r6
 8007b76:	463b      	mov	r3, r7
 8007b78:	4628      	mov	r0, r5
 8007b7a:	e8bd 41f0 	ldmia.w	sp!, {r4, r5, r6, r7, r8, lr}
 8007b7e:	f000 b8f7 	b.w	8007d70 <_write_r>

08007b82 <__sseek>:
 8007b82:	b510      	push	{r4, lr}
 8007b84:	460c      	mov	r4, r1
 8007b86:	f9b1 100e 	ldrsh.w	r1, [r1, #14]
 8007b8a:	f000 f8bd 	bl	8007d08 <_lseek_r>
 8007b8e:	1c43      	adds	r3, r0, #1
 8007b90:	89a3      	ldrh	r3, [r4, #12]
 8007b92:	bf15      	itete	ne
 8007b94:	6560      	strne	r0, [r4, #84]	@ 0x54
 8007b96:	f423 5380 	biceq.w	r3, r3, #4096	@ 0x1000
 8007b9a:	f443 5380 	orrne.w	r3, r3, #4096	@ 0x1000
 8007b9e:	81a3      	strheq	r3, [r4, #12]
 8007ba0:	bf18      	it	ne
 8007ba2:	81a3      	strhne	r3, [r4, #12]
 8007ba4:	bd10      	pop	{r4, pc}

08007ba6 <__sclose>:
 8007ba6:	f9b1 100e 	ldrsh.w	r1, [r1, #14]
 8007baa:	f000 b89d 	b.w	8007ce8 <_close_r>

08007bae <__swbuf_r>:
 8007bae:	b5f8      	push	{r3, r4, r5, r6, r7, lr}
 8007bb0:	460e      	mov	r6, r1
 8007bb2:	4614      	mov	r4, r2
 8007bb4:	4605      	mov	r5, r0
 8007bb6:	b118      	cbz	r0, 8007bc0 <__swbuf_r+0x12>
 8007bb8:	6a03      	ldr	r3, [r0, #32]
 8007bba:	b90b      	cbnz	r3, 8007bc0 <__swbuf_r+0x12>
 8007bbc:	f7ff fe98 	bl	80078f0 <__sinit>
 8007bc0:	69a3      	ldr	r3, [r4, #24]
 8007bc2:	60a3      	str	r3, [r4, #8]
 8007bc4:	89a3      	ldrh	r3, [r4, #12]
 8007bc6:	071a      	lsls	r2, r3, #28
 8007bc8:	d501      	bpl.n	8007bce <__swbuf_r+0x20>
 8007bca:	6923      	ldr	r3, [r4, #16]
 8007bcc:	b943      	cbnz	r3, 8007be0 <__swbuf_r+0x32>
 8007bce:	4621      	mov	r1, r4
 8007bd0:	4628      	mov	r0, r5
 8007bd2:	f000 f82b 	bl	8007c2c <__swsetup_r>
 8007bd6:	b118      	cbz	r0, 8007be0 <__swbuf_r+0x32>
 8007bd8:	f04f 37ff 	mov.w	r7, #4294967295
 8007bdc:	4638      	mov	r0, r7
 8007bde:	bdf8      	pop	{r3, r4, r5, r6, r7, pc}
 8007be0:	6823      	ldr	r3, [r4, #0]
 8007be2:	6922      	ldr	r2, [r4, #16]
 8007be4:	1a98      	subs	r0, r3, r2
 8007be6:	6963      	ldr	r3, [r4, #20]
 8007be8:	b2f6      	uxtb	r6, r6
 8007bea:	4283      	cmp	r3, r0
 8007bec:	4637      	mov	r7, r6
 8007bee:	dc05      	bgt.n	8007bfc <__swbuf_r+0x4e>
 8007bf0:	4621      	mov	r1, r4
 8007bf2:	4628      	mov	r0, r5
 8007bf4:	f000 fe10 	bl	8008818 <_fflush_r>
 8007bf8:	2800      	cmp	r0, #0
 8007bfa:	d1ed      	bne.n	8007bd8 <__swbuf_r+0x2a>
 8007bfc:	68a3      	ldr	r3, [r4, #8]
 8007bfe:	3b01      	subs	r3, #1
 8007c00:	60a3      	str	r3, [r4, #8]
 8007c02:	6823      	ldr	r3, [r4, #0]
 8007c04:	1c5a      	adds	r2, r3, #1
 8007c06:	6022      	str	r2, [r4, #0]
 8007c08:	701e      	strb	r6, [r3, #0]
 8007c0a:	6962      	ldr	r2, [r4, #20]
 8007c0c:	1c43      	adds	r3, r0, #1
 8007c0e:	429a      	cmp	r2, r3
 8007c10:	d004      	beq.n	8007c1c <__swbuf_r+0x6e>
 8007c12:	89a3      	ldrh	r3, [r4, #12]
 8007c14:	07db      	lsls	r3, r3, #31
 8007c16:	d5e1      	bpl.n	8007bdc <__swbuf_r+0x2e>
 8007c18:	2e0a      	cmp	r6, #10
 8007c1a:	d1df      	bne.n	8007bdc <__swbuf_r+0x2e>
 8007c1c:	4621      	mov	r1, r4
 8007c1e:	4628      	mov	r0, r5
 8007c20:	f000 fdfa 	bl	8008818 <_fflush_r>
 8007c24:	2800      	cmp	r0, #0
 8007c26:	d0d9      	beq.n	8007bdc <__swbuf_r+0x2e>
 8007c28:	e7d6      	b.n	8007bd8 <__swbuf_r+0x2a>
	...

08007c2c <__swsetup_r>:
 8007c2c:	b538      	push	{r3, r4, r5, lr}
 8007c2e:	4b29      	ldr	r3, [pc, #164]	@ (8007cd4 <__swsetup_r+0xa8>)
 8007c30:	4605      	mov	r5, r0
 8007c32:	6818      	ldr	r0, [r3, #0]
 8007c34:	460c      	mov	r4, r1
 8007c36:	b118      	cbz	r0, 8007c40 <__swsetup_r+0x14>
 8007c38:	6a03      	ldr	r3, [r0, #32]
 8007c3a:	b90b      	cbnz	r3, 8007c40 <__swsetup_r+0x14>
 8007c3c:	f7ff fe58 	bl	80078f0 <__sinit>
 8007c40:	f9b4 300c 	ldrsh.w	r3, [r4, #12]
 8007c44:	0719      	lsls	r1, r3, #28
 8007c46:	d422      	bmi.n	8007c8e <__swsetup_r+0x62>
 8007c48:	06da      	lsls	r2, r3, #27
 8007c4a:	d407      	bmi.n	8007c5c <__swsetup_r+0x30>
 8007c4c:	2209      	movs	r2, #9
 8007c4e:	602a      	str	r2, [r5, #0]
 8007c50:	f043 0340 	orr.w	r3, r3, #64	@ 0x40
 8007c54:	81a3      	strh	r3, [r4, #12]
 8007c56:	f04f 30ff 	mov.w	r0, #4294967295
 8007c5a:	e033      	b.n	8007cc4 <__swsetup_r+0x98>
 8007c5c:	0758      	lsls	r0, r3, #29
 8007c5e:	d512      	bpl.n	8007c86 <__swsetup_r+0x5a>
 8007c60:	6b61      	ldr	r1, [r4, #52]	@ 0x34
 8007c62:	b141      	cbz	r1, 8007c76 <__swsetup_r+0x4a>
 8007c64:	f104 0344 	add.w	r3, r4, #68	@ 0x44
 8007c68:	4299      	cmp	r1, r3
 8007c6a:	d002      	beq.n	8007c72 <__swsetup_r+0x46>
 8007c6c:	4628      	mov	r0, r5
 8007c6e:	f000 f8dd 	bl	8007e2c <_free_r>
 8007c72:	2300      	movs	r3, #0
 8007c74:	6363      	str	r3, [r4, #52]	@ 0x34
 8007c76:	89a3      	ldrh	r3, [r4, #12]
 8007c78:	f023 0324 	bic.w	r3, r3, #36	@ 0x24
 8007c7c:	81a3      	strh	r3, [r4, #12]
 8007c7e:	2300      	movs	r3, #0
 8007c80:	6063      	str	r3, [r4, #4]
 8007c82:	6923      	ldr	r3, [r4, #16]
 8007c84:	6023      	str	r3, [r4, #0]
 8007c86:	89a3      	ldrh	r3, [r4, #12]
 8007c88:	f043 0308 	orr.w	r3, r3, #8
 8007c8c:	81a3      	strh	r3, [r4, #12]
 8007c8e:	6923      	ldr	r3, [r4, #16]
 8007c90:	b94b      	cbnz	r3, 8007ca6 <__swsetup_r+0x7a>
 8007c92:	89a3      	ldrh	r3, [r4, #12]
 8007c94:	f403 7320 	and.w	r3, r3, #640	@ 0x280
 8007c98:	f5b3 7f00 	cmp.w	r3, #512	@ 0x200
 8007c9c:	d003      	beq.n	8007ca6 <__swsetup_r+0x7a>
 8007c9e:	4621      	mov	r1, r4
 8007ca0:	4628      	mov	r0, r5
 8007ca2:	f000 fe19 	bl	80088d8 <__smakebuf_r>
 8007ca6:	f9b4 300c 	ldrsh.w	r3, [r4, #12]
 8007caa:	f013 0201 	ands.w	r2, r3, #1
 8007cae:	d00a      	beq.n	8007cc6 <__swsetup_r+0x9a>
 8007cb0:	2200      	movs	r2, #0
 8007cb2:	60a2      	str	r2, [r4, #8]
 8007cb4:	6962      	ldr	r2, [r4, #20]
 8007cb6:	4252      	negs	r2, r2
 8007cb8:	61a2      	str	r2, [r4, #24]
 8007cba:	6922      	ldr	r2, [r4, #16]
 8007cbc:	b942      	cbnz	r2, 8007cd0 <__swsetup_r+0xa4>
 8007cbe:	f013 0080 	ands.w	r0, r3, #128	@ 0x80
 8007cc2:	d1c5      	bne.n	8007c50 <__swsetup_r+0x24>
 8007cc4:	bd38      	pop	{r3, r4, r5, pc}
 8007cc6:	0799      	lsls	r1, r3, #30
 8007cc8:	bf58      	it	pl
 8007cca:	6962      	ldrpl	r2, [r4, #20]
 8007ccc:	60a2      	str	r2, [r4, #8]
 8007cce:	e7f4      	b.n	8007cba <__swsetup_r+0x8e>
 8007cd0:	2000      	movs	r0, #0
 8007cd2:	e7f7      	b.n	8007cc4 <__swsetup_r+0x98>
 8007cd4:	20000060 	.word	0x20000060

08007cd8 <memset>:
 8007cd8:	4402      	add	r2, r0
 8007cda:	4603      	mov	r3, r0
 8007cdc:	4293      	cmp	r3, r2
 8007cde:	d100      	bne.n	8007ce2 <memset+0xa>
 8007ce0:	4770      	bx	lr
 8007ce2:	f803 1b01 	strb.w	r1, [r3], #1
 8007ce6:	e7f9      	b.n	8007cdc <memset+0x4>

08007ce8 <_close_r>:
 8007ce8:	b538      	push	{r3, r4, r5, lr}
 8007cea:	4d06      	ldr	r5, [pc, #24]	@ (8007d04 <_close_r+0x1c>)
 8007cec:	2300      	movs	r3, #0
 8007cee:	4604      	mov	r4, r0
 8007cf0:	4608      	mov	r0, r1
 8007cf2:	602b      	str	r3, [r5, #0]
 8007cf4:	f7fb fcce 	bl	8003694 <_close>
 8007cf8:	1c43      	adds	r3, r0, #1
 8007cfa:	d102      	bne.n	8007d02 <_close_r+0x1a>
 8007cfc:	682b      	ldr	r3, [r5, #0]
 8007cfe:	b103      	cbz	r3, 8007d02 <_close_r+0x1a>
 8007d00:	6023      	str	r3, [r4, #0]
 8007d02:	bd38      	pop	{r3, r4, r5, pc}
 8007d04:	20001478 	.word	0x20001478

08007d08 <_lseek_r>:
 8007d08:	b538      	push	{r3, r4, r5, lr}
 8007d0a:	4d07      	ldr	r5, [pc, #28]	@ (8007d28 <_lseek_r+0x20>)
 8007d0c:	4604      	mov	r4, r0
 8007d0e:	4608      	mov	r0, r1
 8007d10:	4611      	mov	r1, r2
 8007d12:	2200      	movs	r2, #0
 8007d14:	602a      	str	r2, [r5, #0]
 8007d16:	461a      	mov	r2, r3
 8007d18:	f7fb fcc8 	bl	80036ac <_lseek>
 8007d1c:	1c43      	adds	r3, r0, #1
 8007d1e:	d102      	bne.n	8007d26 <_lseek_r+0x1e>
 8007d20:	682b      	ldr	r3, [r5, #0]
 8007d22:	b103      	cbz	r3, 8007d26 <_lseek_r+0x1e>
 8007d24:	6023      	str	r3, [r4, #0]
 8007d26:	bd38      	pop	{r3, r4, r5, pc}
 8007d28:	20001478 	.word	0x20001478

08007d2c <_read_r>:
 8007d2c:	b538      	push	{r3, r4, r5, lr}
 8007d2e:	4d07      	ldr	r5, [pc, #28]	@ (8007d4c <_read_r+0x20>)
 8007d30:	4604      	mov	r4, r0
 8007d32:	4608      	mov	r0, r1
 8007d34:	4611      	mov	r1, r2
 8007d36:	2200      	movs	r2, #0
 8007d38:	602a      	str	r2, [r5, #0]
 8007d3a:	461a      	mov	r2, r3
 8007d3c:	f7fb fc9c 	bl	8003678 <_read>
 8007d40:	1c43      	adds	r3, r0, #1
 8007d42:	d102      	bne.n	8007d4a <_read_r+0x1e>
 8007d44:	682b      	ldr	r3, [r5, #0]
 8007d46:	b103      	cbz	r3, 8007d4a <_read_r+0x1e>
 8007d48:	6023      	str	r3, [r4, #0]
 8007d4a:	bd38      	pop	{r3, r4, r5, pc}
 8007d4c:	20001478 	.word	0x20001478

08007d50 <_sbrk_r>:
 8007d50:	b538      	push	{r3, r4, r5, lr}
 8007d52:	4d06      	ldr	r5, [pc, #24]	@ (8007d6c <_sbrk_r+0x1c>)
 8007d54:	2300      	movs	r3, #0
 8007d56:	4604      	mov	r4, r0
 8007d58:	4608      	mov	r0, r1
 8007d5a:	602b      	str	r3, [r5, #0]
 8007d5c:	f7fb fca8 	bl	80036b0 <_sbrk>
 8007d60:	1c43      	adds	r3, r0, #1
 8007d62:	d102      	bne.n	8007d6a <_sbrk_r+0x1a>
 8007d64:	682b      	ldr	r3, [r5, #0]
 8007d66:	b103      	cbz	r3, 8007d6a <_sbrk_r+0x1a>
 8007d68:	6023      	str	r3, [r4, #0]
 8007d6a:	bd38      	pop	{r3, r4, r5, pc}
 8007d6c:	20001478 	.word	0x20001478

08007d70 <_write_r>:
 8007d70:	b538      	push	{r3, r4, r5, lr}
 8007d72:	4d07      	ldr	r5, [pc, #28]	@ (8007d90 <_write_r+0x20>)
 8007d74:	4604      	mov	r4, r0
 8007d76:	4608      	mov	r0, r1
 8007d78:	4611      	mov	r1, r2
 8007d7a:	2200      	movs	r2, #0
 8007d7c:	602a      	str	r2, [r5, #0]
 8007d7e:	461a      	mov	r2, r3
 8007d80:	f7fe fe52 	bl	8006a28 <_write>
 8007d84:	1c43      	adds	r3, r0, #1
 8007d86:	d102      	bne.n	8007d8e <_write_r+0x1e>
 8007d88:	682b      	ldr	r3, [r5, #0]
 8007d8a:	b103      	cbz	r3, 8007d8e <_write_r+0x1e>
 8007d8c:	6023      	str	r3, [r4, #0]
 8007d8e:	bd38      	pop	{r3, r4, r5, pc}
 8007d90:	20001478 	.word	0x20001478

08007d94 <__errno>:
 8007d94:	4b01      	ldr	r3, [pc, #4]	@ (8007d9c <__errno+0x8>)
 8007d96:	6818      	ldr	r0, [r3, #0]
 8007d98:	4770      	bx	lr
 8007d9a:	bf00      	nop
 8007d9c:	20000060 	.word	0x20000060

08007da0 <__libc_init_array>:
 8007da0:	b570      	push	{r4, r5, r6, lr}
 8007da2:	4d0d      	ldr	r5, [pc, #52]	@ (8007dd8 <__libc_init_array+0x38>)
 8007da4:	4c0d      	ldr	r4, [pc, #52]	@ (8007ddc <__libc_init_array+0x3c>)
 8007da6:	1b64      	subs	r4, r4, r5
 8007da8:	10a4      	asrs	r4, r4, #2
 8007daa:	2600      	movs	r6, #0
 8007dac:	42a6      	cmp	r6, r4
 8007dae:	d109      	bne.n	8007dc4 <__libc_init_array+0x24>
 8007db0:	4d0b      	ldr	r5, [pc, #44]	@ (8007de0 <__libc_init_array+0x40>)
 8007db2:	4c0c      	ldr	r4, [pc, #48]	@ (8007de4 <__libc_init_array+0x44>)
 8007db4:	f000 fe98 	bl	8008ae8 <_init>
 8007db8:	1b64      	subs	r4, r4, r5
 8007dba:	10a4      	asrs	r4, r4, #2
 8007dbc:	2600      	movs	r6, #0
 8007dbe:	42a6      	cmp	r6, r4
 8007dc0:	d105      	bne.n	8007dce <__libc_init_array+0x2e>
 8007dc2:	bd70      	pop	{r4, r5, r6, pc}
 8007dc4:	f855 3b04 	ldr.w	r3, [r5], #4
 8007dc8:	4798      	blx	r3
 8007dca:	3601      	adds	r6, #1
 8007dcc:	e7ee      	b.n	8007dac <__libc_init_array+0xc>
 8007dce:	f855 3b04 	ldr.w	r3, [r5], #4
 8007dd2:	4798      	blx	r3
 8007dd4:	3601      	adds	r6, #1
 8007dd6:	e7f2      	b.n	8007dbe <__libc_init_array+0x1e>
 8007dd8:	080645e8 	.word	0x080645e8
 8007ddc:	080645e8 	.word	0x080645e8
 8007de0:	080645e8 	.word	0x080645e8
 8007de4:	080645ec 	.word	0x080645ec

08007de8 <__retarget_lock_init_recursive>:
 8007de8:	4770      	bx	lr

08007dea <__retarget_lock_acquire_recursive>:
 8007dea:	4770      	bx	lr

08007dec <__retarget_lock_release_recursive>:
 8007dec:	4770      	bx	lr
	...

08007df0 <__assert_func>:
 8007df0:	b51f      	push	{r0, r1, r2, r3, r4, lr}
 8007df2:	4614      	mov	r4, r2
 8007df4:	461a      	mov	r2, r3
 8007df6:	4b09      	ldr	r3, [pc, #36]	@ (8007e1c <__assert_func+0x2c>)
 8007df8:	681b      	ldr	r3, [r3, #0]
 8007dfa:	4605      	mov	r5, r0
 8007dfc:	68d8      	ldr	r0, [r3, #12]
 8007dfe:	b954      	cbnz	r4, 8007e16 <__assert_func+0x26>
 8007e00:	4b07      	ldr	r3, [pc, #28]	@ (8007e20 <__assert_func+0x30>)
 8007e02:	461c      	mov	r4, r3
 8007e04:	e9cd 3401 	strd	r3, r4, [sp, #4]
 8007e08:	9100      	str	r1, [sp, #0]
 8007e0a:	462b      	mov	r3, r5
 8007e0c:	4905      	ldr	r1, [pc, #20]	@ (8007e24 <__assert_func+0x34>)
 8007e0e:	f000 fd2b 	bl	8008868 <fiprintf>
 8007e12:	f000 fde7 	bl	80089e4 <abort>
 8007e16:	4b04      	ldr	r3, [pc, #16]	@ (8007e28 <__assert_func+0x38>)
 8007e18:	e7f4      	b.n	8007e04 <__assert_func+0x14>
 8007e1a:	bf00      	nop
 8007e1c:	20000060 	.word	0x20000060
 8007e20:	080645aa 	.word	0x080645aa
 8007e24:	0806457c 	.word	0x0806457c
 8007e28:	0806456f 	.word	0x0806456f

08007e2c <_free_r>:
 8007e2c:	b538      	push	{r3, r4, r5, lr}
 8007e2e:	4605      	mov	r5, r0
 8007e30:	2900      	cmp	r1, #0
 8007e32:	d041      	beq.n	8007eb8 <_free_r+0x8c>
 8007e34:	f851 3c04 	ldr.w	r3, [r1, #-4]
 8007e38:	1f0c      	subs	r4, r1, #4
 8007e3a:	2b00      	cmp	r3, #0
 8007e3c:	bfb8      	it	lt
 8007e3e:	18e4      	addlt	r4, r4, r3
 8007e40:	f7ff fc52 	bl	80076e8 <__malloc_lock>
 8007e44:	4a1d      	ldr	r2, [pc, #116]	@ (8007ebc <_free_r+0x90>)
 8007e46:	6813      	ldr	r3, [r2, #0]
 8007e48:	b933      	cbnz	r3, 8007e58 <_free_r+0x2c>
 8007e4a:	6063      	str	r3, [r4, #4]
 8007e4c:	6014      	str	r4, [r2, #0]
 8007e4e:	4628      	mov	r0, r5
 8007e50:	e8bd 4038 	ldmia.w	sp!, {r3, r4, r5, lr}
 8007e54:	f7ff bc4e 	b.w	80076f4 <__malloc_unlock>
 8007e58:	42a3      	cmp	r3, r4
 8007e5a:	d908      	bls.n	8007e6e <_free_r+0x42>
 8007e5c:	6820      	ldr	r0, [r4, #0]
 8007e5e:	1821      	adds	r1, r4, r0
 8007e60:	428b      	cmp	r3, r1
 8007e62:	bf01      	itttt	eq
 8007e64:	6819      	ldreq	r1, [r3, #0]
 8007e66:	685b      	ldreq	r3, [r3, #4]
 8007e68:	1809      	addeq	r1, r1, r0
 8007e6a:	6021      	streq	r1, [r4, #0]
 8007e6c:	e7ed      	b.n	8007e4a <_free_r+0x1e>
 8007e6e:	461a      	mov	r2, r3
 8007e70:	685b      	ldr	r3, [r3, #4]
 8007e72:	b10b      	cbz	r3, 8007e78 <_free_r+0x4c>
 8007e74:	42a3      	cmp	r3, r4
 8007e76:	d9fa      	bls.n	8007e6e <_free_r+0x42>
 8007e78:	6811      	ldr	r1, [r2, #0]
 8007e7a:	1850      	adds	r0, r2, r1
 8007e7c:	42a0      	cmp	r0, r4
 8007e7e:	d10b      	bne.n	8007e98 <_free_r+0x6c>
 8007e80:	6820      	ldr	r0, [r4, #0]
 8007e82:	4401      	add	r1, r0
 8007e84:	1850      	adds	r0, r2, r1
 8007e86:	4283      	cmp	r3, r0
 8007e88:	6011      	str	r1, [r2, #0]
 8007e8a:	d1e0      	bne.n	8007e4e <_free_r+0x22>
 8007e8c:	6818      	ldr	r0, [r3, #0]
 8007e8e:	685b      	ldr	r3, [r3, #4]
 8007e90:	6053      	str	r3, [r2, #4]
 8007e92:	4408      	add	r0, r1
 8007e94:	6010      	str	r0, [r2, #0]
 8007e96:	e7da      	b.n	8007e4e <_free_r+0x22>
 8007e98:	d902      	bls.n	8007ea0 <_free_r+0x74>
 8007e9a:	230c      	movs	r3, #12
 8007e9c:	602b      	str	r3, [r5, #0]
 8007e9e:	e7d6      	b.n	8007e4e <_free_r+0x22>
 8007ea0:	6820      	ldr	r0, [r4, #0]
 8007ea2:	1821      	adds	r1, r4, r0
 8007ea4:	428b      	cmp	r3, r1
 8007ea6:	bf04      	itt	eq
 8007ea8:	6819      	ldreq	r1, [r3, #0]
 8007eaa:	685b      	ldreq	r3, [r3, #4]
 8007eac:	6063      	str	r3, [r4, #4]
 8007eae:	bf04      	itt	eq
 8007eb0:	1809      	addeq	r1, r1, r0
 8007eb2:	6021      	streq	r1, [r4, #0]
 8007eb4:	6054      	str	r4, [r2, #4]
 8007eb6:	e7ca      	b.n	8007e4e <_free_r+0x22>
 8007eb8:	bd38      	pop	{r3, r4, r5, pc}
 8007eba:	bf00      	nop
 8007ebc:	20001338 	.word	0x20001338

08007ec0 <__ssputs_r>:
 8007ec0:	e92d 47f0 	stmdb	sp!, {r4, r5, r6, r7, r8, r9, sl, lr}
 8007ec4:	688e      	ldr	r6, [r1, #8]
 8007ec6:	461f      	mov	r7, r3
 8007ec8:	42be      	cmp	r6, r7
 8007eca:	680b      	ldr	r3, [r1, #0]
 8007ecc:	4682      	mov	sl, r0
 8007ece:	460c      	mov	r4, r1
 8007ed0:	4690      	mov	r8, r2
 8007ed2:	d82d      	bhi.n	8007f30 <__ssputs_r+0x70>
 8007ed4:	f9b1 200c 	ldrsh.w	r2, [r1, #12]
 8007ed8:	f412 6f90 	tst.w	r2, #1152	@ 0x480
 8007edc:	d026      	beq.n	8007f2c <__ssputs_r+0x6c>
 8007ede:	6965      	ldr	r5, [r4, #20]
 8007ee0:	6909      	ldr	r1, [r1, #16]
 8007ee2:	eb05 0545 	add.w	r5, r5, r5, lsl #1
 8007ee6:	eba3 0901 	sub.w	r9, r3, r1
 8007eea:	eb05 75d5 	add.w	r5, r5, r5, lsr #31
 8007eee:	1c7b      	adds	r3, r7, #1
 8007ef0:	444b      	add	r3, r9
 8007ef2:	106d      	asrs	r5, r5, #1
 8007ef4:	429d      	cmp	r5, r3
 8007ef6:	bf38      	it	cc
 8007ef8:	461d      	movcc	r5, r3
 8007efa:	0553      	lsls	r3, r2, #21
 8007efc:	d527      	bpl.n	8007f4e <__ssputs_r+0x8e>
 8007efe:	4629      	mov	r1, r5
 8007f00:	f7ff fb72 	bl	80075e8 <_malloc_r>
 8007f04:	4606      	mov	r6, r0
 8007f06:	b360      	cbz	r0, 8007f62 <__ssputs_r+0xa2>
 8007f08:	6921      	ldr	r1, [r4, #16]
 8007f0a:	464a      	mov	r2, r9
 8007f0c:	f000 fd5c 	bl	80089c8 <memcpy>
 8007f10:	89a3      	ldrh	r3, [r4, #12]
 8007f12:	f423 6390 	bic.w	r3, r3, #1152	@ 0x480
 8007f16:	f043 0380 	orr.w	r3, r3, #128	@ 0x80
 8007f1a:	81a3      	strh	r3, [r4, #12]
 8007f1c:	6126      	str	r6, [r4, #16]
 8007f1e:	6165      	str	r5, [r4, #20]
 8007f20:	444e      	add	r6, r9
 8007f22:	eba5 0509 	sub.w	r5, r5, r9
 8007f26:	6026      	str	r6, [r4, #0]
 8007f28:	60a5      	str	r5, [r4, #8]
 8007f2a:	463e      	mov	r6, r7
 8007f2c:	42be      	cmp	r6, r7
 8007f2e:	d900      	bls.n	8007f32 <__ssputs_r+0x72>
 8007f30:	463e      	mov	r6, r7
 8007f32:	6820      	ldr	r0, [r4, #0]
 8007f34:	4632      	mov	r2, r6
 8007f36:	4641      	mov	r1, r8
 8007f38:	f000 fd0a 	bl	8008950 <memmove>
 8007f3c:	68a3      	ldr	r3, [r4, #8]
 8007f3e:	1b9b      	subs	r3, r3, r6
 8007f40:	60a3      	str	r3, [r4, #8]
 8007f42:	6823      	ldr	r3, [r4, #0]
 8007f44:	4433      	add	r3, r6
 8007f46:	6023      	str	r3, [r4, #0]
 8007f48:	2000      	movs	r0, #0
 8007f4a:	e8bd 87f0 	ldmia.w	sp!, {r4, r5, r6, r7, r8, r9, sl, pc}
 8007f4e:	462a      	mov	r2, r5
 8007f50:	f000 fd4f 	bl	80089f2 <_realloc_r>
 8007f54:	4606      	mov	r6, r0
 8007f56:	2800      	cmp	r0, #0
 8007f58:	d1e0      	bne.n	8007f1c <__ssputs_r+0x5c>
 8007f5a:	6921      	ldr	r1, [r4, #16]
 8007f5c:	4650      	mov	r0, sl
 8007f5e:	f7ff ff65 	bl	8007e2c <_free_r>
 8007f62:	230c      	movs	r3, #12
 8007f64:	f8ca 3000 	str.w	r3, [sl]
 8007f68:	89a3      	ldrh	r3, [r4, #12]
 8007f6a:	f043 0340 	orr.w	r3, r3, #64	@ 0x40
 8007f6e:	81a3      	strh	r3, [r4, #12]
 8007f70:	f04f 30ff 	mov.w	r0, #4294967295
 8007f74:	e7e9      	b.n	8007f4a <__ssputs_r+0x8a>
	...

08007f78 <_svfiprintf_r>:
 8007f78:	e92d 4ff0 	stmdb	sp!, {r4, r5, r6, r7, r8, r9, sl, fp, lr}
 8007f7c:	4698      	mov	r8, r3
 8007f7e:	898b      	ldrh	r3, [r1, #12]
 8007f80:	061b      	lsls	r3, r3, #24
 8007f82:	b09d      	sub	sp, #116	@ 0x74
 8007f84:	4607      	mov	r7, r0
 8007f86:	460d      	mov	r5, r1
 8007f88:	4614      	mov	r4, r2
 8007f8a:	d510      	bpl.n	8007fae <_svfiprintf_r+0x36>
 8007f8c:	690b      	ldr	r3, [r1, #16]
 8007f8e:	b973      	cbnz	r3, 8007fae <_svfiprintf_r+0x36>
 8007f90:	2140      	movs	r1, #64	@ 0x40
 8007f92:	f7ff fb29 	bl	80075e8 <_malloc_r>
 8007f96:	6028      	str	r0, [r5, #0]
 8007f98:	6128      	str	r0, [r5, #16]
 8007f9a:	b930      	cbnz	r0, 8007faa <_svfiprintf_r+0x32>
 8007f9c:	230c      	movs	r3, #12
 8007f9e:	603b      	str	r3, [r7, #0]
 8007fa0:	f04f 30ff 	mov.w	r0, #4294967295
 8007fa4:	b01d      	add	sp, #116	@ 0x74
 8007fa6:	e8bd 8ff0 	ldmia.w	sp!, {r4, r5, r6, r7, r8, r9, sl, fp, pc}
 8007faa:	2340      	movs	r3, #64	@ 0x40
 8007fac:	616b      	str	r3, [r5, #20]
 8007fae:	2300      	movs	r3, #0
 8007fb0:	9309      	str	r3, [sp, #36]	@ 0x24
 8007fb2:	2320      	movs	r3, #32
 8007fb4:	f88d 3029 	strb.w	r3, [sp, #41]	@ 0x29
 8007fb8:	f8cd 800c 	str.w	r8, [sp, #12]
 8007fbc:	2330      	movs	r3, #48	@ 0x30
 8007fbe:	f8df 819c 	ldr.w	r8, [pc, #412]	@ 800815c <_svfiprintf_r+0x1e4>
 8007fc2:	f88d 302a 	strb.w	r3, [sp, #42]	@ 0x2a
 8007fc6:	f04f 0901 	mov.w	r9, #1
 8007fca:	4623      	mov	r3, r4
 8007fcc:	469a      	mov	sl, r3
 8007fce:	f813 2b01 	ldrb.w	r2, [r3], #1
 8007fd2:	b10a      	cbz	r2, 8007fd8 <_svfiprintf_r+0x60>
 8007fd4:	2a25      	cmp	r2, #37	@ 0x25
 8007fd6:	d1f9      	bne.n	8007fcc <_svfiprintf_r+0x54>
 8007fd8:	ebba 0b04 	subs.w	fp, sl, r4
 8007fdc:	d00b      	beq.n	8007ff6 <_svfiprintf_r+0x7e>
 8007fde:	465b      	mov	r3, fp
 8007fe0:	4622      	mov	r2, r4
 8007fe2:	4629      	mov	r1, r5
 8007fe4:	4638      	mov	r0, r7
 8007fe6:	f7ff ff6b 	bl	8007ec0 <__ssputs_r>
 8007fea:	3001      	adds	r0, #1
 8007fec:	f000 80a7 	beq.w	800813e <_svfiprintf_r+0x1c6>
 8007ff0:	9a09      	ldr	r2, [sp, #36]	@ 0x24
 8007ff2:	445a      	add	r2, fp
 8007ff4:	9209      	str	r2, [sp, #36]	@ 0x24
 8007ff6:	f89a 3000 	ldrb.w	r3, [sl]
 8007ffa:	2b00      	cmp	r3, #0
 8007ffc:	f000 809f 	beq.w	800813e <_svfiprintf_r+0x1c6>
 8008000:	2300      	movs	r3, #0
 8008002:	f04f 32ff 	mov.w	r2, #4294967295
 8008006:	e9cd 2305 	strd	r2, r3, [sp, #20]
 800800a:	f10a 0a01 	add.w	sl, sl, #1
 800800e:	9304      	str	r3, [sp, #16]
 8008010:	9307      	str	r3, [sp, #28]
 8008012:	f88d 3053 	strb.w	r3, [sp, #83]	@ 0x53
 8008016:	931a      	str	r3, [sp, #104]	@ 0x68
 8008018:	4654      	mov	r4, sl
 800801a:	2205      	movs	r2, #5
 800801c:	f814 1b01 	ldrb.w	r1, [r4], #1
 8008020:	484e      	ldr	r0, [pc, #312]	@ (800815c <_svfiprintf_r+0x1e4>)
 8008022:	f7f8 f8fd 	bl	8000220 <memchr>
 8008026:	9a04      	ldr	r2, [sp, #16]
 8008028:	b9d8      	cbnz	r0, 8008062 <_svfiprintf_r+0xea>
 800802a:	06d0      	lsls	r0, r2, #27
 800802c:	bf44      	itt	mi
 800802e:	2320      	movmi	r3, #32
 8008030:	f88d 3053 	strbmi.w	r3, [sp, #83]	@ 0x53
 8008034:	0711      	lsls	r1, r2, #28
 8008036:	bf44      	itt	mi
 8008038:	232b      	movmi	r3, #43	@ 0x2b
 800803a:	f88d 3053 	strbmi.w	r3, [sp, #83]	@ 0x53
 800803e:	f89a 3000 	ldrb.w	r3, [sl]
 8008042:	2b2a      	cmp	r3, #42	@ 0x2a
 8008044:	d015      	beq.n	8008072 <_svfiprintf_r+0xfa>
 8008046:	9a07      	ldr	r2, [sp, #28]
 8008048:	4654      	mov	r4, sl
 800804a:	2000      	movs	r0, #0
 800804c:	f04f 0c0a 	mov.w	ip, #10
 8008050:	4621      	mov	r1, r4
 8008052:	f811 3b01 	ldrb.w	r3, [r1], #1
 8008056:	3b30      	subs	r3, #48	@ 0x30
 8008058:	2b09      	cmp	r3, #9
 800805a:	d94b      	bls.n	80080f4 <_svfiprintf_r+0x17c>
 800805c:	b1b0      	cbz	r0, 800808c <_svfiprintf_r+0x114>
 800805e:	9207      	str	r2, [sp, #28]
 8008060:	e014      	b.n	800808c <_svfiprintf_r+0x114>
 8008062:	eba0 0308 	sub.w	r3, r0, r8
 8008066:	fa09 f303 	lsl.w	r3, r9, r3
 800806a:	4313      	orrs	r3, r2
 800806c:	9304      	str	r3, [sp, #16]
 800806e:	46a2      	mov	sl, r4
 8008070:	e7d2      	b.n	8008018 <_svfiprintf_r+0xa0>
 8008072:	9b03      	ldr	r3, [sp, #12]
 8008074:	1d19      	adds	r1, r3, #4
 8008076:	681b      	ldr	r3, [r3, #0]
 8008078:	9103      	str	r1, [sp, #12]
 800807a:	2b00      	cmp	r3, #0
 800807c:	bfbb      	ittet	lt
 800807e:	425b      	neglt	r3, r3
 8008080:	f042 0202 	orrlt.w	r2, r2, #2
 8008084:	9307      	strge	r3, [sp, #28]
 8008086:	9307      	strlt	r3, [sp, #28]
 8008088:	bfb8      	it	lt
 800808a:	9204      	strlt	r2, [sp, #16]
 800808c:	7823      	ldrb	r3, [r4, #0]
 800808e:	2b2e      	cmp	r3, #46	@ 0x2e
 8008090:	d10a      	bne.n	80080a8 <_svfiprintf_r+0x130>
 8008092:	7863      	ldrb	r3, [r4, #1]
 8008094:	2b2a      	cmp	r3, #42	@ 0x2a
 8008096:	d132      	bne.n	80080fe <_svfiprintf_r+0x186>
 8008098:	9b03      	ldr	r3, [sp, #12]
 800809a:	1d1a      	adds	r2, r3, #4
 800809c:	681b      	ldr	r3, [r3, #0]
 800809e:	9203      	str	r2, [sp, #12]
 80080a0:	ea43 73e3 	orr.w	r3, r3, r3, asr #31
 80080a4:	3402      	adds	r4, #2
 80080a6:	9305      	str	r3, [sp, #20]
 80080a8:	f8df a0c0 	ldr.w	sl, [pc, #192]	@ 800816c <_svfiprintf_r+0x1f4>
 80080ac:	7821      	ldrb	r1, [r4, #0]
 80080ae:	2203      	movs	r2, #3
 80080b0:	4650      	mov	r0, sl
 80080b2:	f7f8 f8b5 	bl	8000220 <memchr>
 80080b6:	b138      	cbz	r0, 80080c8 <_svfiprintf_r+0x150>
 80080b8:	9b04      	ldr	r3, [sp, #16]
 80080ba:	eba0 000a 	sub.w	r0, r0, sl
 80080be:	2240      	movs	r2, #64	@ 0x40
 80080c0:	4082      	lsls	r2, r0
 80080c2:	4313      	orrs	r3, r2
 80080c4:	3401      	adds	r4, #1
 80080c6:	9304      	str	r3, [sp, #16]
 80080c8:	f814 1b01 	ldrb.w	r1, [r4], #1
 80080cc:	4824      	ldr	r0, [pc, #144]	@ (8008160 <_svfiprintf_r+0x1e8>)
 80080ce:	f88d 1028 	strb.w	r1, [sp, #40]	@ 0x28
 80080d2:	2206      	movs	r2, #6
 80080d4:	f7f8 f8a4 	bl	8000220 <memchr>
 80080d8:	2800      	cmp	r0, #0
 80080da:	d036      	beq.n	800814a <_svfiprintf_r+0x1d2>
 80080dc:	4b21      	ldr	r3, [pc, #132]	@ (8008164 <_svfiprintf_r+0x1ec>)
 80080de:	bb1b      	cbnz	r3, 8008128 <_svfiprintf_r+0x1b0>
 80080e0:	9b03      	ldr	r3, [sp, #12]
 80080e2:	3307      	adds	r3, #7
 80080e4:	f023 0307 	bic.w	r3, r3, #7
 80080e8:	3308      	adds	r3, #8
 80080ea:	9303      	str	r3, [sp, #12]
 80080ec:	9b09      	ldr	r3, [sp, #36]	@ 0x24
 80080ee:	4433      	add	r3, r6
 80080f0:	9309      	str	r3, [sp, #36]	@ 0x24
 80080f2:	e76a      	b.n	8007fca <_svfiprintf_r+0x52>
 80080f4:	fb0c 3202 	mla	r2, ip, r2, r3
 80080f8:	460c      	mov	r4, r1
 80080fa:	2001      	movs	r0, #1
 80080fc:	e7a8      	b.n	8008050 <_svfiprintf_r+0xd8>
 80080fe:	2300      	movs	r3, #0
 8008100:	3401      	adds	r4, #1
 8008102:	9305      	str	r3, [sp, #20]
 8008104:	4619      	mov	r1, r3
 8008106:	f04f 0c0a 	mov.w	ip, #10
 800810a:	4620      	mov	r0, r4
 800810c:	f810 2b01 	ldrb.w	r2, [r0], #1
 8008110:	3a30      	subs	r2, #48	@ 0x30
 8008112:	2a09      	cmp	r2, #9
 8008114:	d903      	bls.n	800811e <_svfiprintf_r+0x1a6>
 8008116:	2b00      	cmp	r3, #0
 8008118:	d0c6      	beq.n	80080a8 <_svfiprintf_r+0x130>
 800811a:	9105      	str	r1, [sp, #20]
 800811c:	e7c4      	b.n	80080a8 <_svfiprintf_r+0x130>
 800811e:	fb0c 2101 	mla	r1, ip, r1, r2
 8008122:	4604      	mov	r4, r0
 8008124:	2301      	movs	r3, #1
 8008126:	e7f0      	b.n	800810a <_svfiprintf_r+0x192>
 8008128:	ab03      	add	r3, sp, #12
 800812a:	9300      	str	r3, [sp, #0]
 800812c:	462a      	mov	r2, r5
 800812e:	4b0e      	ldr	r3, [pc, #56]	@ (8008168 <_svfiprintf_r+0x1f0>)
 8008130:	a904      	add	r1, sp, #16
 8008132:	4638      	mov	r0, r7
 8008134:	f3af 8000 	nop.w
 8008138:	1c42      	adds	r2, r0, #1
 800813a:	4606      	mov	r6, r0
 800813c:	d1d6      	bne.n	80080ec <_svfiprintf_r+0x174>
 800813e:	89ab      	ldrh	r3, [r5, #12]
 8008140:	065b      	lsls	r3, r3, #25
 8008142:	f53f af2d 	bmi.w	8007fa0 <_svfiprintf_r+0x28>
 8008146:	9809      	ldr	r0, [sp, #36]	@ 0x24
 8008148:	e72c      	b.n	8007fa4 <_svfiprintf_r+0x2c>
 800814a:	ab03      	add	r3, sp, #12
 800814c:	9300      	str	r3, [sp, #0]
 800814e:	462a      	mov	r2, r5
 8008150:	4b05      	ldr	r3, [pc, #20]	@ (8008168 <_svfiprintf_r+0x1f0>)
 8008152:	a904      	add	r1, sp, #16
 8008154:	4638      	mov	r0, r7
 8008156:	f000 f9bb 	bl	80084d0 <_printf_i>
 800815a:	e7ed      	b.n	8008138 <_svfiprintf_r+0x1c0>
 800815c:	080645ab 	.word	0x080645ab
 8008160:	080645b5 	.word	0x080645b5
 8008164:	00000000 	.word	0x00000000
 8008168:	08007ec1 	.word	0x08007ec1
 800816c:	080645b1 	.word	0x080645b1

08008170 <__sfputc_r>:
 8008170:	6893      	ldr	r3, [r2, #8]
 8008172:	3b01      	subs	r3, #1
 8008174:	2b00      	cmp	r3, #0
 8008176:	b410      	push	{r4}
 8008178:	6093      	str	r3, [r2, #8]
 800817a:	da08      	bge.n	800818e <__sfputc_r+0x1e>
 800817c:	6994      	ldr	r4, [r2, #24]
 800817e:	42a3      	cmp	r3, r4
 8008180:	db01      	blt.n	8008186 <__sfputc_r+0x16>
 8008182:	290a      	cmp	r1, #10
 8008184:	d103      	bne.n	800818e <__sfputc_r+0x1e>
 8008186:	f85d 4b04 	ldr.w	r4, [sp], #4
 800818a:	f7ff bd10 	b.w	8007bae <__swbuf_r>
 800818e:	6813      	ldr	r3, [r2, #0]
 8008190:	1c58      	adds	r0, r3, #1
 8008192:	6010      	str	r0, [r2, #0]
 8008194:	7019      	strb	r1, [r3, #0]
 8008196:	4608      	mov	r0, r1
 8008198:	f85d 4b04 	ldr.w	r4, [sp], #4
 800819c:	4770      	bx	lr

0800819e <__sfputs_r>:
 800819e:	b5f8      	push	{r3, r4, r5, r6, r7, lr}
 80081a0:	4606      	mov	r6, r0
 80081a2:	460f      	mov	r7, r1
 80081a4:	4614      	mov	r4, r2
 80081a6:	18d5      	adds	r5, r2, r3
 80081a8:	42ac      	cmp	r4, r5
 80081aa:	d101      	bne.n	80081b0 <__sfputs_r+0x12>
 80081ac:	2000      	movs	r0, #0
 80081ae:	e007      	b.n	80081c0 <__sfputs_r+0x22>
 80081b0:	f814 1b01 	ldrb.w	r1, [r4], #1
 80081b4:	463a      	mov	r2, r7
 80081b6:	4630      	mov	r0, r6
 80081b8:	f7ff ffda 	bl	8008170 <__sfputc_r>
 80081bc:	1c43      	adds	r3, r0, #1
 80081be:	d1f3      	bne.n	80081a8 <__sfputs_r+0xa>
 80081c0:	bdf8      	pop	{r3, r4, r5, r6, r7, pc}
	...

080081c4 <_vfiprintf_r>:
 80081c4:	e92d 4ff0 	stmdb	sp!, {r4, r5, r6, r7, r8, r9, sl, fp, lr}
 80081c8:	460d      	mov	r5, r1
 80081ca:	b09d      	sub	sp, #116	@ 0x74
 80081cc:	4614      	mov	r4, r2
 80081ce:	4698      	mov	r8, r3
 80081d0:	4606      	mov	r6, r0
 80081d2:	b118      	cbz	r0, 80081dc <_vfiprintf_r+0x18>
 80081d4:	6a03      	ldr	r3, [r0, #32]
 80081d6:	b90b      	cbnz	r3, 80081dc <_vfiprintf_r+0x18>
 80081d8:	f7ff fb8a 	bl	80078f0 <__sinit>
 80081dc:	6e6b      	ldr	r3, [r5, #100]	@ 0x64
 80081de:	07d9      	lsls	r1, r3, #31
 80081e0:	d405      	bmi.n	80081ee <_vfiprintf_r+0x2a>
 80081e2:	89ab      	ldrh	r3, [r5, #12]
 80081e4:	059a      	lsls	r2, r3, #22
 80081e6:	d402      	bmi.n	80081ee <_vfiprintf_r+0x2a>
 80081e8:	6da8      	ldr	r0, [r5, #88]	@ 0x58
 80081ea:	f7ff fdfe 	bl	8007dea <__retarget_lock_acquire_recursive>
 80081ee:	89ab      	ldrh	r3, [r5, #12]
 80081f0:	071b      	lsls	r3, r3, #28
 80081f2:	d501      	bpl.n	80081f8 <_vfiprintf_r+0x34>
 80081f4:	692b      	ldr	r3, [r5, #16]
 80081f6:	b99b      	cbnz	r3, 8008220 <_vfiprintf_r+0x5c>
 80081f8:	4629      	mov	r1, r5
 80081fa:	4630      	mov	r0, r6
 80081fc:	f7ff fd16 	bl	8007c2c <__swsetup_r>
 8008200:	b170      	cbz	r0, 8008220 <_vfiprintf_r+0x5c>
 8008202:	6e6b      	ldr	r3, [r5, #100]	@ 0x64
 8008204:	07dc      	lsls	r4, r3, #31
 8008206:	d504      	bpl.n	8008212 <_vfiprintf_r+0x4e>
 8008208:	f04f 30ff 	mov.w	r0, #4294967295
 800820c:	b01d      	add	sp, #116	@ 0x74
 800820e:	e8bd 8ff0 	ldmia.w	sp!, {r4, r5, r6, r7, r8, r9, sl, fp, pc}
 8008212:	89ab      	ldrh	r3, [r5, #12]
 8008214:	0598      	lsls	r0, r3, #22
 8008216:	d4f7      	bmi.n	8008208 <_vfiprintf_r+0x44>
 8008218:	6da8      	ldr	r0, [r5, #88]	@ 0x58
 800821a:	f7ff fde7 	bl	8007dec <__retarget_lock_release_recursive>
 800821e:	e7f3      	b.n	8008208 <_vfiprintf_r+0x44>
 8008220:	2300      	movs	r3, #0
 8008222:	9309      	str	r3, [sp, #36]	@ 0x24
 8008224:	2320      	movs	r3, #32
 8008226:	f88d 3029 	strb.w	r3, [sp, #41]	@ 0x29
 800822a:	f8cd 800c 	str.w	r8, [sp, #12]
 800822e:	2330      	movs	r3, #48	@ 0x30
 8008230:	f8df 81ac 	ldr.w	r8, [pc, #428]	@ 80083e0 <_vfiprintf_r+0x21c>
 8008234:	f88d 302a 	strb.w	r3, [sp, #42]	@ 0x2a
 8008238:	f04f 0901 	mov.w	r9, #1
 800823c:	4623      	mov	r3, r4
 800823e:	469a      	mov	sl, r3
 8008240:	f813 2b01 	ldrb.w	r2, [r3], #1
 8008244:	b10a      	cbz	r2, 800824a <_vfiprintf_r+0x86>
 8008246:	2a25      	cmp	r2, #37	@ 0x25
 8008248:	d1f9      	bne.n	800823e <_vfiprintf_r+0x7a>
 800824a:	ebba 0b04 	subs.w	fp, sl, r4
 800824e:	d00b      	beq.n	8008268 <_vfiprintf_r+0xa4>
 8008250:	465b      	mov	r3, fp
 8008252:	4622      	mov	r2, r4
 8008254:	4629      	mov	r1, r5
 8008256:	4630      	mov	r0, r6
 8008258:	f7ff ffa1 	bl	800819e <__sfputs_r>
 800825c:	3001      	adds	r0, #1
 800825e:	f000 80a7 	beq.w	80083b0 <_vfiprintf_r+0x1ec>
 8008262:	9a09      	ldr	r2, [sp, #36]	@ 0x24
 8008264:	445a      	add	r2, fp
 8008266:	9209      	str	r2, [sp, #36]	@ 0x24
 8008268:	f89a 3000 	ldrb.w	r3, [sl]
 800826c:	2b00      	cmp	r3, #0
 800826e:	f000 809f 	beq.w	80083b0 <_vfiprintf_r+0x1ec>
 8008272:	2300      	movs	r3, #0
 8008274:	f04f 32ff 	mov.w	r2, #4294967295
 8008278:	e9cd 2305 	strd	r2, r3, [sp, #20]
 800827c:	f10a 0a01 	add.w	sl, sl, #1
 8008280:	9304      	str	r3, [sp, #16]
 8008282:	9307      	str	r3, [sp, #28]
 8008284:	f88d 3053 	strb.w	r3, [sp, #83]	@ 0x53
 8008288:	931a      	str	r3, [sp, #104]	@ 0x68
 800828a:	4654      	mov	r4, sl
 800828c:	2205      	movs	r2, #5
 800828e:	f814 1b01 	ldrb.w	r1, [r4], #1
 8008292:	4853      	ldr	r0, [pc, #332]	@ (80083e0 <_vfiprintf_r+0x21c>)
 8008294:	f7f7 ffc4 	bl	8000220 <memchr>
 8008298:	9a04      	ldr	r2, [sp, #16]
 800829a:	b9d8      	cbnz	r0, 80082d4 <_vfiprintf_r+0x110>
 800829c:	06d1      	lsls	r1, r2, #27
 800829e:	bf44      	itt	mi
 80082a0:	2320      	movmi	r3, #32
 80082a2:	f88d 3053 	strbmi.w	r3, [sp, #83]	@ 0x53
 80082a6:	0713      	lsls	r3, r2, #28
 80082a8:	bf44      	itt	mi
 80082aa:	232b      	movmi	r3, #43	@ 0x2b
 80082ac:	f88d 3053 	strbmi.w	r3, [sp, #83]	@ 0x53
 80082b0:	f89a 3000 	ldrb.w	r3, [sl]
 80082b4:	2b2a      	cmp	r3, #42	@ 0x2a
 80082b6:	d015      	beq.n	80082e4 <_vfiprintf_r+0x120>
 80082b8:	9a07      	ldr	r2, [sp, #28]
 80082ba:	4654      	mov	r4, sl
 80082bc:	2000      	movs	r0, #0
 80082be:	f04f 0c0a 	mov.w	ip, #10
 80082c2:	4621      	mov	r1, r4
 80082c4:	f811 3b01 	ldrb.w	r3, [r1], #1
 80082c8:	3b30      	subs	r3, #48	@ 0x30
 80082ca:	2b09      	cmp	r3, #9
 80082cc:	d94b      	bls.n	8008366 <_vfiprintf_r+0x1a2>
 80082ce:	b1b0      	cbz	r0, 80082fe <_vfiprintf_r+0x13a>
 80082d0:	9207      	str	r2, [sp, #28]
 80082d2:	e014      	b.n	80082fe <_vfiprintf_r+0x13a>
 80082d4:	eba0 0308 	sub.w	r3, r0, r8
 80082d8:	fa09 f303 	lsl.w	r3, r9, r3
 80082dc:	4313      	orrs	r3, r2
 80082de:	9304      	str	r3, [sp, #16]
 80082e0:	46a2      	mov	sl, r4
 80082e2:	e7d2      	b.n	800828a <_vfiprintf_r+0xc6>
 80082e4:	9b03      	ldr	r3, [sp, #12]
 80082e6:	1d19      	adds	r1, r3, #4
 80082e8:	681b      	ldr	r3, [r3, #0]
 80082ea:	9103      	str	r1, [sp, #12]
 80082ec:	2b00      	cmp	r3, #0
 80082ee:	bfbb      	ittet	lt
 80082f0:	425b      	neglt	r3, r3
 80082f2:	f042 0202 	orrlt.w	r2, r2, #2
 80082f6:	9307      	strge	r3, [sp, #28]
 80082f8:	9307      	strlt	r3, [sp, #28]
 80082fa:	bfb8      	it	lt
 80082fc:	9204      	strlt	r2, [sp, #16]
 80082fe:	7823      	ldrb	r3, [r4, #0]
 8008300:	2b2e      	cmp	r3, #46	@ 0x2e
 8008302:	d10a      	bne.n	800831a <_vfiprintf_r+0x156>
 8008304:	7863      	ldrb	r3, [r4, #1]
 8008306:	2b2a      	cmp	r3, #42	@ 0x2a
 8008308:	d132      	bne.n	8008370 <_vfiprintf_r+0x1ac>
 800830a:	9b03      	ldr	r3, [sp, #12]
 800830c:	1d1a      	adds	r2, r3, #4
 800830e:	681b      	ldr	r3, [r3, #0]
 8008310:	9203      	str	r2, [sp, #12]
 8008312:	ea43 73e3 	orr.w	r3, r3, r3, asr #31
 8008316:	3402      	adds	r4, #2
 8008318:	9305      	str	r3, [sp, #20]
 800831a:	f8df a0d4 	ldr.w	sl, [pc, #212]	@ 80083f0 <_vfiprintf_r+0x22c>
 800831e:	7821      	ldrb	r1, [r4, #0]
 8008320:	2203      	movs	r2, #3
 8008322:	4650      	mov	r0, sl
 8008324:	f7f7 ff7c 	bl	8000220 <memchr>
 8008328:	b138      	cbz	r0, 800833a <_vfiprintf_r+0x176>
 800832a:	9b04      	ldr	r3, [sp, #16]
 800832c:	eba0 000a 	sub.w	r0, r0, sl
 8008330:	2240      	movs	r2, #64	@ 0x40
 8008332:	4082      	lsls	r2, r0
 8008334:	4313      	orrs	r3, r2
 8008336:	3401      	adds	r4, #1
 8008338:	9304      	str	r3, [sp, #16]
 800833a:	f814 1b01 	ldrb.w	r1, [r4], #1
 800833e:	4829      	ldr	r0, [pc, #164]	@ (80083e4 <_vfiprintf_r+0x220>)
 8008340:	f88d 1028 	strb.w	r1, [sp, #40]	@ 0x28
 8008344:	2206      	movs	r2, #6
 8008346:	f7f7 ff6b 	bl	8000220 <memchr>
 800834a:	2800      	cmp	r0, #0
 800834c:	d03f      	beq.n	80083ce <_vfiprintf_r+0x20a>
 800834e:	4b26      	ldr	r3, [pc, #152]	@ (80083e8 <_vfiprintf_r+0x224>)
 8008350:	bb1b      	cbnz	r3, 800839a <_vfiprintf_r+0x1d6>
 8008352:	9b03      	ldr	r3, [sp, #12]
 8008354:	3307      	adds	r3, #7
 8008356:	f023 0307 	bic.w	r3, r3, #7
 800835a:	3308      	adds	r3, #8
 800835c:	9303      	str	r3, [sp, #12]
 800835e:	9b09      	ldr	r3, [sp, #36]	@ 0x24
 8008360:	443b      	add	r3, r7
 8008362:	9309      	str	r3, [sp, #36]	@ 0x24
 8008364:	e76a      	b.n	800823c <_vfiprintf_r+0x78>
 8008366:	fb0c 3202 	mla	r2, ip, r2, r3
 800836a:	460c      	mov	r4, r1
 800836c:	2001      	movs	r0, #1
 800836e:	e7a8      	b.n	80082c2 <_vfiprintf_r+0xfe>
 8008370:	2300      	movs	r3, #0
 8008372:	3401      	adds	r4, #1
 8008374:	9305      	str	r3, [sp, #20]
 8008376:	4619      	mov	r1, r3
 8008378:	f04f 0c0a 	mov.w	ip, #10
 800837c:	4620      	mov	r0, r4
 800837e:	f810 2b01 	ldrb.w	r2, [r0], #1
 8008382:	3a30      	subs	r2, #48	@ 0x30
 8008384:	2a09      	cmp	r2, #9
 8008386:	d903      	bls.n	8008390 <_vfiprintf_r+0x1cc>
 8008388:	2b00      	cmp	r3, #0
 800838a:	d0c6      	beq.n	800831a <_vfiprintf_r+0x156>
 800838c:	9105      	str	r1, [sp, #20]
 800838e:	e7c4      	b.n	800831a <_vfiprintf_r+0x156>
 8008390:	fb0c 2101 	mla	r1, ip, r1, r2
 8008394:	4604      	mov	r4, r0
 8008396:	2301      	movs	r3, #1
 8008398:	e7f0      	b.n	800837c <_vfiprintf_r+0x1b8>
 800839a:	ab03      	add	r3, sp, #12
 800839c:	9300      	str	r3, [sp, #0]
 800839e:	462a      	mov	r2, r5
 80083a0:	4b12      	ldr	r3, [pc, #72]	@ (80083ec <_vfiprintf_r+0x228>)
 80083a2:	a904      	add	r1, sp, #16
 80083a4:	4630      	mov	r0, r6
 80083a6:	f3af 8000 	nop.w
 80083aa:	4607      	mov	r7, r0
 80083ac:	1c78      	adds	r0, r7, #1
 80083ae:	d1d6      	bne.n	800835e <_vfiprintf_r+0x19a>
 80083b0:	6e6b      	ldr	r3, [r5, #100]	@ 0x64
 80083b2:	07d9      	lsls	r1, r3, #31
 80083b4:	d405      	bmi.n	80083c2 <_vfiprintf_r+0x1fe>
 80083b6:	89ab      	ldrh	r3, [r5, #12]
 80083b8:	059a      	lsls	r2, r3, #22
 80083ba:	d402      	bmi.n	80083c2 <_vfiprintf_r+0x1fe>
 80083bc:	6da8      	ldr	r0, [r5, #88]	@ 0x58
 80083be:	f7ff fd15 	bl	8007dec <__retarget_lock_release_recursive>
 80083c2:	89ab      	ldrh	r3, [r5, #12]
 80083c4:	065b      	lsls	r3, r3, #25
 80083c6:	f53f af1f 	bmi.w	8008208 <_vfiprintf_r+0x44>
 80083ca:	9809      	ldr	r0, [sp, #36]	@ 0x24
 80083cc:	e71e      	b.n	800820c <_vfiprintf_r+0x48>
 80083ce:	ab03      	add	r3, sp, #12
 80083d0:	9300      	str	r3, [sp, #0]
 80083d2:	462a      	mov	r2, r5
 80083d4:	4b05      	ldr	r3, [pc, #20]	@ (80083ec <_vfiprintf_r+0x228>)
 80083d6:	a904      	add	r1, sp, #16
 80083d8:	4630      	mov	r0, r6
 80083da:	f000 f879 	bl	80084d0 <_printf_i>
 80083de:	e7e4      	b.n	80083aa <_vfiprintf_r+0x1e6>
 80083e0:	080645ab 	.word	0x080645ab
 80083e4:	080645b5 	.word	0x080645b5
 80083e8:	00000000 	.word	0x00000000
 80083ec:	0800819f 	.word	0x0800819f
 80083f0:	080645b1 	.word	0x080645b1

080083f4 <_printf_common>:
 80083f4:	e92d 47f0 	stmdb	sp!, {r4, r5, r6, r7, r8, r9, sl, lr}
 80083f8:	4616      	mov	r6, r2
 80083fa:	4698      	mov	r8, r3
 80083fc:	688a      	ldr	r2, [r1, #8]
 80083fe:	690b      	ldr	r3, [r1, #16]
 8008400:	f8dd 9020 	ldr.w	r9, [sp, #32]
 8008404:	4293      	cmp	r3, r2
 8008406:	bfb8      	it	lt
 8008408:	4613      	movlt	r3, r2
 800840a:	6033      	str	r3, [r6, #0]
 800840c:	f891 2043 	ldrb.w	r2, [r1, #67]	@ 0x43
 8008410:	4607      	mov	r7, r0
 8008412:	460c      	mov	r4, r1
 8008414:	b10a      	cbz	r2, 800841a <_printf_common+0x26>
 8008416:	3301      	adds	r3, #1
 8008418:	6033      	str	r3, [r6, #0]
 800841a:	6823      	ldr	r3, [r4, #0]
 800841c:	0699      	lsls	r1, r3, #26
 800841e:	bf42      	ittt	mi
 8008420:	6833      	ldrmi	r3, [r6, #0]
 8008422:	3302      	addmi	r3, #2
 8008424:	6033      	strmi	r3, [r6, #0]
 8008426:	6825      	ldr	r5, [r4, #0]
 8008428:	f015 0506 	ands.w	r5, r5, #6
 800842c:	d106      	bne.n	800843c <_printf_common+0x48>
 800842e:	f104 0a19 	add.w	sl, r4, #25
 8008432:	68e3      	ldr	r3, [r4, #12]
 8008434:	6832      	ldr	r2, [r6, #0]
 8008436:	1a9b      	subs	r3, r3, r2
 8008438:	42ab      	cmp	r3, r5
 800843a:	dc26      	bgt.n	800848a <_printf_common+0x96>
 800843c:	f894 3043 	ldrb.w	r3, [r4, #67]	@ 0x43
 8008440:	6822      	ldr	r2, [r4, #0]
 8008442:	3b00      	subs	r3, #0
 8008444:	bf18      	it	ne
 8008446:	2301      	movne	r3, #1
 8008448:	0692      	lsls	r2, r2, #26
 800844a:	d42b      	bmi.n	80084a4 <_printf_common+0xb0>
 800844c:	f104 0243 	add.w	r2, r4, #67	@ 0x43
 8008450:	4641      	mov	r1, r8
 8008452:	4638      	mov	r0, r7
 8008454:	47c8      	blx	r9
 8008456:	3001      	adds	r0, #1
 8008458:	d01e      	beq.n	8008498 <_printf_common+0xa4>
 800845a:	6823      	ldr	r3, [r4, #0]
 800845c:	6922      	ldr	r2, [r4, #16]
 800845e:	f003 0306 	and.w	r3, r3, #6
 8008462:	2b04      	cmp	r3, #4
 8008464:	bf02      	ittt	eq
 8008466:	68e5      	ldreq	r5, [r4, #12]
 8008468:	6833      	ldreq	r3, [r6, #0]
 800846a:	1aed      	subeq	r5, r5, r3
 800846c:	68a3      	ldr	r3, [r4, #8]
 800846e:	bf0c      	ite	eq
 8008470:	ea25 75e5 	biceq.w	r5, r5, r5, asr #31
 8008474:	2500      	movne	r5, #0
 8008476:	4293      	cmp	r3, r2
 8008478:	bfc4      	itt	gt
 800847a:	1a9b      	subgt	r3, r3, r2
 800847c:	18ed      	addgt	r5, r5, r3
 800847e:	2600      	movs	r6, #0
 8008480:	341a      	adds	r4, #26
 8008482:	42b5      	cmp	r5, r6
 8008484:	d11a      	bne.n	80084bc <_printf_common+0xc8>
 8008486:	2000      	movs	r0, #0
 8008488:	e008      	b.n	800849c <_printf_common+0xa8>
 800848a:	2301      	movs	r3, #1
 800848c:	4652      	mov	r2, sl
 800848e:	4641      	mov	r1, r8
 8008490:	4638      	mov	r0, r7
 8008492:	47c8      	blx	r9
 8008494:	3001      	adds	r0, #1
 8008496:	d103      	bne.n	80084a0 <_printf_common+0xac>
 8008498:	f04f 30ff 	mov.w	r0, #4294967295
 800849c:	e8bd 87f0 	ldmia.w	sp!, {r4, r5, r6, r7, r8, r9, sl, pc}
 80084a0:	3501      	adds	r5, #1
 80084a2:	e7c6      	b.n	8008432 <_printf_common+0x3e>
 80084a4:	18e1      	adds	r1, r4, r3
 80084a6:	1c5a      	adds	r2, r3, #1
 80084a8:	2030      	movs	r0, #48	@ 0x30
 80084aa:	f881 0043 	strb.w	r0, [r1, #67]	@ 0x43
 80084ae:	4422      	add	r2, r4
 80084b0:	f894 1045 	ldrb.w	r1, [r4, #69]	@ 0x45
 80084b4:	f882 1043 	strb.w	r1, [r2, #67]	@ 0x43
 80084b8:	3302      	adds	r3, #2
 80084ba:	e7c7      	b.n	800844c <_printf_common+0x58>
 80084bc:	2301      	movs	r3, #1
 80084be:	4622      	mov	r2, r4
 80084c0:	4641      	mov	r1, r8
 80084c2:	4638      	mov	r0, r7
 80084c4:	47c8      	blx	r9
 80084c6:	3001      	adds	r0, #1
 80084c8:	d0e6      	beq.n	8008498 <_printf_common+0xa4>
 80084ca:	3601      	adds	r6, #1
 80084cc:	e7d9      	b.n	8008482 <_printf_common+0x8e>
	...

080084d0 <_printf_i>:
 80084d0:	e92d 47ff 	stmdb	sp!, {r0, r1, r2, r3, r4, r5, r6, r7, r8, r9, sl, lr}
 80084d4:	7e0f      	ldrb	r7, [r1, #24]
 80084d6:	9e0c      	ldr	r6, [sp, #48]	@ 0x30
 80084d8:	2f78      	cmp	r7, #120	@ 0x78
 80084da:	4691      	mov	r9, r2
 80084dc:	4680      	mov	r8, r0
 80084de:	460c      	mov	r4, r1
 80084e0:	469a      	mov	sl, r3
 80084e2:	f101 0243 	add.w	r2, r1, #67	@ 0x43
 80084e6:	d807      	bhi.n	80084f8 <_printf_i+0x28>
 80084e8:	2f62      	cmp	r7, #98	@ 0x62
 80084ea:	d80a      	bhi.n	8008502 <_printf_i+0x32>
 80084ec:	2f00      	cmp	r7, #0
 80084ee:	f000 80d2 	beq.w	8008696 <_printf_i+0x1c6>
 80084f2:	2f58      	cmp	r7, #88	@ 0x58
 80084f4:	f000 80b9 	beq.w	800866a <_printf_i+0x19a>
 80084f8:	f104 0642 	add.w	r6, r4, #66	@ 0x42
 80084fc:	f884 7042 	strb.w	r7, [r4, #66]	@ 0x42
 8008500:	e03a      	b.n	8008578 <_printf_i+0xa8>
 8008502:	f1a7 0363 	sub.w	r3, r7, #99	@ 0x63
 8008506:	2b15      	cmp	r3, #21
 8008508:	d8f6      	bhi.n	80084f8 <_printf_i+0x28>
 800850a:	a101      	add	r1, pc, #4	@ (adr r1, 8008510 <_printf_i+0x40>)
 800850c:	f851 f023 	ldr.w	pc, [r1, r3, lsl #2]
 8008510:	08008569 	.word	0x08008569
 8008514:	0800857d 	.word	0x0800857d
 8008518:	080084f9 	.word	0x080084f9
 800851c:	080084f9 	.word	0x080084f9
 8008520:	080084f9 	.word	0x080084f9
 8008524:	080084f9 	.word	0x080084f9
 8008528:	0800857d 	.word	0x0800857d
 800852c:	080084f9 	.word	0x080084f9
 8008530:	080084f9 	.word	0x080084f9
 8008534:	080084f9 	.word	0x080084f9
 8008538:	080084f9 	.word	0x080084f9
 800853c:	0800867d 	.word	0x0800867d
 8008540:	080085a7 	.word	0x080085a7
 8008544:	08008637 	.word	0x08008637
 8008548:	080084f9 	.word	0x080084f9
 800854c:	080084f9 	.word	0x080084f9
 8008550:	0800869f 	.word	0x0800869f
 8008554:	080084f9 	.word	0x080084f9
 8008558:	080085a7 	.word	0x080085a7
 800855c:	080084f9 	.word	0x080084f9
 8008560:	080084f9 	.word	0x080084f9
 8008564:	0800863f 	.word	0x0800863f
 8008568:	6833      	ldr	r3, [r6, #0]
 800856a:	1d1a      	adds	r2, r3, #4
 800856c:	681b      	ldr	r3, [r3, #0]
 800856e:	6032      	str	r2, [r6, #0]
 8008570:	f104 0642 	add.w	r6, r4, #66	@ 0x42
 8008574:	f884 3042 	strb.w	r3, [r4, #66]	@ 0x42
 8008578:	2301      	movs	r3, #1
 800857a:	e09d      	b.n	80086b8 <_printf_i+0x1e8>
 800857c:	6833      	ldr	r3, [r6, #0]
 800857e:	6820      	ldr	r0, [r4, #0]
 8008580:	1d19      	adds	r1, r3, #4
 8008582:	6031      	str	r1, [r6, #0]
 8008584:	0606      	lsls	r6, r0, #24
 8008586:	d501      	bpl.n	800858c <_printf_i+0xbc>
 8008588:	681d      	ldr	r5, [r3, #0]
 800858a:	e003      	b.n	8008594 <_printf_i+0xc4>
 800858c:	0645      	lsls	r5, r0, #25
 800858e:	d5fb      	bpl.n	8008588 <_printf_i+0xb8>
 8008590:	f9b3 5000 	ldrsh.w	r5, [r3]
 8008594:	2d00      	cmp	r5, #0
 8008596:	da03      	bge.n	80085a0 <_printf_i+0xd0>
 8008598:	232d      	movs	r3, #45	@ 0x2d
 800859a:	426d      	negs	r5, r5
 800859c:	f884 3043 	strb.w	r3, [r4, #67]	@ 0x43
 80085a0:	4859      	ldr	r0, [pc, #356]	@ (8008708 <_printf_i+0x238>)
 80085a2:	230a      	movs	r3, #10
 80085a4:	e011      	b.n	80085ca <_printf_i+0xfa>
 80085a6:	6821      	ldr	r1, [r4, #0]
 80085a8:	6833      	ldr	r3, [r6, #0]
 80085aa:	0608      	lsls	r0, r1, #24
 80085ac:	f853 5b04 	ldr.w	r5, [r3], #4
 80085b0:	d402      	bmi.n	80085b8 <_printf_i+0xe8>
 80085b2:	0649      	lsls	r1, r1, #25
 80085b4:	bf48      	it	mi
 80085b6:	b2ad      	uxthmi	r5, r5
 80085b8:	2f6f      	cmp	r7, #111	@ 0x6f
 80085ba:	4853      	ldr	r0, [pc, #332]	@ (8008708 <_printf_i+0x238>)
 80085bc:	6033      	str	r3, [r6, #0]
 80085be:	bf14      	ite	ne
 80085c0:	230a      	movne	r3, #10
 80085c2:	2308      	moveq	r3, #8
 80085c4:	2100      	movs	r1, #0
 80085c6:	f884 1043 	strb.w	r1, [r4, #67]	@ 0x43
 80085ca:	6866      	ldr	r6, [r4, #4]
 80085cc:	60a6      	str	r6, [r4, #8]
 80085ce:	2e00      	cmp	r6, #0
 80085d0:	bfa2      	ittt	ge
 80085d2:	6821      	ldrge	r1, [r4, #0]
 80085d4:	f021 0104 	bicge.w	r1, r1, #4
 80085d8:	6021      	strge	r1, [r4, #0]
 80085da:	b90d      	cbnz	r5, 80085e0 <_printf_i+0x110>
 80085dc:	2e00      	cmp	r6, #0
 80085de:	d04b      	beq.n	8008678 <_printf_i+0x1a8>
 80085e0:	4616      	mov	r6, r2
 80085e2:	fbb5 f1f3 	udiv	r1, r5, r3
 80085e6:	fb03 5711 	mls	r7, r3, r1, r5
 80085ea:	5dc7      	ldrb	r7, [r0, r7]
 80085ec:	f806 7d01 	strb.w	r7, [r6, #-1]!
 80085f0:	462f      	mov	r7, r5
 80085f2:	42bb      	cmp	r3, r7
 80085f4:	460d      	mov	r5, r1
 80085f6:	d9f4      	bls.n	80085e2 <_printf_i+0x112>
 80085f8:	2b08      	cmp	r3, #8
 80085fa:	d10b      	bne.n	8008614 <_printf_i+0x144>
 80085fc:	6823      	ldr	r3, [r4, #0]
 80085fe:	07df      	lsls	r7, r3, #31
 8008600:	d508      	bpl.n	8008614 <_printf_i+0x144>
 8008602:	6923      	ldr	r3, [r4, #16]
 8008604:	6861      	ldr	r1, [r4, #4]
 8008606:	4299      	cmp	r1, r3
 8008608:	bfde      	ittt	le
 800860a:	2330      	movle	r3, #48	@ 0x30
 800860c:	f806 3c01 	strble.w	r3, [r6, #-1]
 8008610:	f106 36ff 	addle.w	r6, r6, #4294967295
 8008614:	1b92      	subs	r2, r2, r6
 8008616:	6122      	str	r2, [r4, #16]
 8008618:	f8cd a000 	str.w	sl, [sp]
 800861c:	464b      	mov	r3, r9
 800861e:	aa03      	add	r2, sp, #12
 8008620:	4621      	mov	r1, r4
 8008622:	4640      	mov	r0, r8
 8008624:	f7ff fee6 	bl	80083f4 <_printf_common>
 8008628:	3001      	adds	r0, #1
 800862a:	d14a      	bne.n	80086c2 <_printf_i+0x1f2>
 800862c:	f04f 30ff 	mov.w	r0, #4294967295
 8008630:	b004      	add	sp, #16
 8008632:	e8bd 87f0 	ldmia.w	sp!, {r4, r5, r6, r7, r8, r9, sl, pc}
 8008636:	6823      	ldr	r3, [r4, #0]
 8008638:	f043 0320 	orr.w	r3, r3, #32
 800863c:	6023      	str	r3, [r4, #0]
 800863e:	4833      	ldr	r0, [pc, #204]	@ (800870c <_printf_i+0x23c>)
 8008640:	2778      	movs	r7, #120	@ 0x78
 8008642:	f884 7045 	strb.w	r7, [r4, #69]	@ 0x45
 8008646:	6823      	ldr	r3, [r4, #0]
 8008648:	6831      	ldr	r1, [r6, #0]
 800864a:	061f      	lsls	r7, r3, #24
 800864c:	f851 5b04 	ldr.w	r5, [r1], #4
 8008650:	d402      	bmi.n	8008658 <_printf_i+0x188>
 8008652:	065f      	lsls	r7, r3, #25
 8008654:	bf48      	it	mi
 8008656:	b2ad      	uxthmi	r5, r5
 8008658:	6031      	str	r1, [r6, #0]
 800865a:	07d9      	lsls	r1, r3, #31
 800865c:	bf44      	itt	mi
 800865e:	f043 0320 	orrmi.w	r3, r3, #32
 8008662:	6023      	strmi	r3, [r4, #0]
 8008664:	b11d      	cbz	r5, 800866e <_printf_i+0x19e>
 8008666:	2310      	movs	r3, #16
 8008668:	e7ac      	b.n	80085c4 <_printf_i+0xf4>
 800866a:	4827      	ldr	r0, [pc, #156]	@ (8008708 <_printf_i+0x238>)
 800866c:	e7e9      	b.n	8008642 <_printf_i+0x172>
 800866e:	6823      	ldr	r3, [r4, #0]
 8008670:	f023 0320 	bic.w	r3, r3, #32
 8008674:	6023      	str	r3, [r4, #0]
 8008676:	e7f6      	b.n	8008666 <_printf_i+0x196>
 8008678:	4616      	mov	r6, r2
 800867a:	e7bd      	b.n	80085f8 <_printf_i+0x128>
 800867c:	6833      	ldr	r3, [r6, #0]
 800867e:	6825      	ldr	r5, [r4, #0]
 8008680:	6961      	ldr	r1, [r4, #20]
 8008682:	1d18      	adds	r0, r3, #4
 8008684:	6030      	str	r0, [r6, #0]
 8008686:	062e      	lsls	r6, r5, #24
 8008688:	681b      	ldr	r3, [r3, #0]
 800868a:	d501      	bpl.n	8008690 <_printf_i+0x1c0>
 800868c:	6019      	str	r1, [r3, #0]
 800868e:	e002      	b.n	8008696 <_printf_i+0x1c6>
 8008690:	0668      	lsls	r0, r5, #25
 8008692:	d5fb      	bpl.n	800868c <_printf_i+0x1bc>
 8008694:	8019      	strh	r1, [r3, #0]
 8008696:	2300      	movs	r3, #0
 8008698:	6123      	str	r3, [r4, #16]
 800869a:	4616      	mov	r6, r2
 800869c:	e7bc      	b.n	8008618 <_printf_i+0x148>
 800869e:	6833      	ldr	r3, [r6, #0]
 80086a0:	1d1a      	adds	r2, r3, #4
 80086a2:	6032      	str	r2, [r6, #0]
 80086a4:	681e      	ldr	r6, [r3, #0]
 80086a6:	6862      	ldr	r2, [r4, #4]
 80086a8:	2100      	movs	r1, #0
 80086aa:	4630      	mov	r0, r6
 80086ac:	f7f7 fdb8 	bl	8000220 <memchr>
 80086b0:	b108      	cbz	r0, 80086b6 <_printf_i+0x1e6>
 80086b2:	1b80      	subs	r0, r0, r6
 80086b4:	6060      	str	r0, [r4, #4]
 80086b6:	6863      	ldr	r3, [r4, #4]
 80086b8:	6123      	str	r3, [r4, #16]
 80086ba:	2300      	movs	r3, #0
 80086bc:	f884 3043 	strb.w	r3, [r4, #67]	@ 0x43
 80086c0:	e7aa      	b.n	8008618 <_printf_i+0x148>
 80086c2:	6923      	ldr	r3, [r4, #16]
 80086c4:	4632      	mov	r2, r6
 80086c6:	4649      	mov	r1, r9
 80086c8:	4640      	mov	r0, r8
 80086ca:	47d0      	blx	sl
 80086cc:	3001      	adds	r0, #1
 80086ce:	d0ad      	beq.n	800862c <_printf_i+0x15c>
 80086d0:	6823      	ldr	r3, [r4, #0]
 80086d2:	079b      	lsls	r3, r3, #30
 80086d4:	d413      	bmi.n	80086fe <_printf_i+0x22e>
 80086d6:	68e0      	ldr	r0, [r4, #12]
 80086d8:	9b03      	ldr	r3, [sp, #12]
 80086da:	4298      	cmp	r0, r3
 80086dc:	bfb8      	it	lt
 80086de:	4618      	movlt	r0, r3
 80086e0:	e7a6      	b.n	8008630 <_printf_i+0x160>
 80086e2:	2301      	movs	r3, #1
 80086e4:	4632      	mov	r2, r6
 80086e6:	4649      	mov	r1, r9
 80086e8:	4640      	mov	r0, r8
 80086ea:	47d0      	blx	sl
 80086ec:	3001      	adds	r0, #1
 80086ee:	d09d      	beq.n	800862c <_printf_i+0x15c>
 80086f0:	3501      	adds	r5, #1
 80086f2:	68e3      	ldr	r3, [r4, #12]
 80086f4:	9903      	ldr	r1, [sp, #12]
 80086f6:	1a5b      	subs	r3, r3, r1
 80086f8:	42ab      	cmp	r3, r5
 80086fa:	dcf2      	bgt.n	80086e2 <_printf_i+0x212>
 80086fc:	e7eb      	b.n	80086d6 <_printf_i+0x206>
 80086fe:	2500      	movs	r5, #0
 8008700:	f104 0619 	add.w	r6, r4, #25
 8008704:	e7f5      	b.n	80086f2 <_printf_i+0x222>
 8008706:	bf00      	nop
 8008708:	080645bc 	.word	0x080645bc
 800870c:	080645cd 	.word	0x080645cd

08008710 <__sflush_r>:
 8008710:	f9b1 200c 	ldrsh.w	r2, [r1, #12]
 8008714:	e92d 41f0 	stmdb	sp!, {r4, r5, r6, r7, r8, lr}
 8008718:	0716      	lsls	r6, r2, #28
 800871a:	4605      	mov	r5, r0
 800871c:	460c      	mov	r4, r1
 800871e:	d454      	bmi.n	80087ca <__sflush_r+0xba>
 8008720:	684b      	ldr	r3, [r1, #4]
 8008722:	2b00      	cmp	r3, #0
 8008724:	dc02      	bgt.n	800872c <__sflush_r+0x1c>
 8008726:	6c0b      	ldr	r3, [r1, #64]	@ 0x40
 8008728:	2b00      	cmp	r3, #0
 800872a:	dd48      	ble.n	80087be <__sflush_r+0xae>
 800872c:	6ae6      	ldr	r6, [r4, #44]	@ 0x2c
 800872e:	2e00      	cmp	r6, #0
 8008730:	d045      	beq.n	80087be <__sflush_r+0xae>
 8008732:	2300      	movs	r3, #0
 8008734:	f412 5280 	ands.w	r2, r2, #4096	@ 0x1000
 8008738:	682f      	ldr	r7, [r5, #0]
 800873a:	6a21      	ldr	r1, [r4, #32]
 800873c:	602b      	str	r3, [r5, #0]
 800873e:	d030      	beq.n	80087a2 <__sflush_r+0x92>
 8008740:	6d62      	ldr	r2, [r4, #84]	@ 0x54
 8008742:	89a3      	ldrh	r3, [r4, #12]
 8008744:	0759      	lsls	r1, r3, #29
 8008746:	d505      	bpl.n	8008754 <__sflush_r+0x44>
 8008748:	6863      	ldr	r3, [r4, #4]
 800874a:	1ad2      	subs	r2, r2, r3
 800874c:	6b63      	ldr	r3, [r4, #52]	@ 0x34
 800874e:	b10b      	cbz	r3, 8008754 <__sflush_r+0x44>
 8008750:	6c23      	ldr	r3, [r4, #64]	@ 0x40
 8008752:	1ad2      	subs	r2, r2, r3
 8008754:	2300      	movs	r3, #0
 8008756:	6ae6      	ldr	r6, [r4, #44]	@ 0x2c
 8008758:	6a21      	ldr	r1, [r4, #32]
 800875a:	4628      	mov	r0, r5
 800875c:	47b0      	blx	r6
 800875e:	1c43      	adds	r3, r0, #1
 8008760:	89a3      	ldrh	r3, [r4, #12]
 8008762:	d106      	bne.n	8008772 <__sflush_r+0x62>
 8008764:	6829      	ldr	r1, [r5, #0]
 8008766:	291d      	cmp	r1, #29
 8008768:	d82b      	bhi.n	80087c2 <__sflush_r+0xb2>
 800876a:	4a2a      	ldr	r2, [pc, #168]	@ (8008814 <__sflush_r+0x104>)
 800876c:	410a      	asrs	r2, r1
 800876e:	07d6      	lsls	r6, r2, #31
 8008770:	d427      	bmi.n	80087c2 <__sflush_r+0xb2>
 8008772:	2200      	movs	r2, #0
 8008774:	6062      	str	r2, [r4, #4]
 8008776:	04d9      	lsls	r1, r3, #19
 8008778:	6922      	ldr	r2, [r4, #16]
 800877a:	6022      	str	r2, [r4, #0]
 800877c:	d504      	bpl.n	8008788 <__sflush_r+0x78>
 800877e:	1c42      	adds	r2, r0, #1
 8008780:	d101      	bne.n	8008786 <__sflush_r+0x76>
 8008782:	682b      	ldr	r3, [r5, #0]
 8008784:	b903      	cbnz	r3, 8008788 <__sflush_r+0x78>
 8008786:	6560      	str	r0, [r4, #84]	@ 0x54
 8008788:	6b61      	ldr	r1, [r4, #52]	@ 0x34
 800878a:	602f      	str	r7, [r5, #0]
 800878c:	b1b9      	cbz	r1, 80087be <__sflush_r+0xae>
 800878e:	f104 0344 	add.w	r3, r4, #68	@ 0x44
 8008792:	4299      	cmp	r1, r3
 8008794:	d002      	beq.n	800879c <__sflush_r+0x8c>
 8008796:	4628      	mov	r0, r5
 8008798:	f7ff fb48 	bl	8007e2c <_free_r>
 800879c:	2300      	movs	r3, #0
 800879e:	6363      	str	r3, [r4, #52]	@ 0x34
 80087a0:	e00d      	b.n	80087be <__sflush_r+0xae>
 80087a2:	2301      	movs	r3, #1
 80087a4:	4628      	mov	r0, r5
 80087a6:	47b0      	blx	r6
 80087a8:	4602      	mov	r2, r0
 80087aa:	1c50      	adds	r0, r2, #1
 80087ac:	d1c9      	bne.n	8008742 <__sflush_r+0x32>
 80087ae:	682b      	ldr	r3, [r5, #0]
 80087b0:	2b00      	cmp	r3, #0
 80087b2:	d0c6      	beq.n	8008742 <__sflush_r+0x32>
 80087b4:	2b1d      	cmp	r3, #29
 80087b6:	d001      	beq.n	80087bc <__sflush_r+0xac>
 80087b8:	2b16      	cmp	r3, #22
 80087ba:	d11e      	bne.n	80087fa <__sflush_r+0xea>
 80087bc:	602f      	str	r7, [r5, #0]
 80087be:	2000      	movs	r0, #0
 80087c0:	e022      	b.n	8008808 <__sflush_r+0xf8>
 80087c2:	f043 0340 	orr.w	r3, r3, #64	@ 0x40
 80087c6:	b21b      	sxth	r3, r3
 80087c8:	e01b      	b.n	8008802 <__sflush_r+0xf2>
 80087ca:	690f      	ldr	r7, [r1, #16]
 80087cc:	2f00      	cmp	r7, #0
 80087ce:	d0f6      	beq.n	80087be <__sflush_r+0xae>
 80087d0:	0793      	lsls	r3, r2, #30
 80087d2:	680e      	ldr	r6, [r1, #0]
 80087d4:	bf08      	it	eq
 80087d6:	694b      	ldreq	r3, [r1, #20]
 80087d8:	600f      	str	r7, [r1, #0]
 80087da:	bf18      	it	ne
 80087dc:	2300      	movne	r3, #0
 80087de:	eba6 0807 	sub.w	r8, r6, r7
 80087e2:	608b      	str	r3, [r1, #8]
 80087e4:	f1b8 0f00 	cmp.w	r8, #0
 80087e8:	dde9      	ble.n	80087be <__sflush_r+0xae>
 80087ea:	6a21      	ldr	r1, [r4, #32]
 80087ec:	6aa6      	ldr	r6, [r4, #40]	@ 0x28
 80087ee:	4643      	mov	r3, r8
 80087f0:	463a      	mov	r2, r7
 80087f2:	4628      	mov	r0, r5
 80087f4:	47b0      	blx	r6
 80087f6:	2800      	cmp	r0, #0
 80087f8:	dc08      	bgt.n	800880c <__sflush_r+0xfc>
 80087fa:	f9b4 300c 	ldrsh.w	r3, [r4, #12]
 80087fe:	f043 0340 	orr.w	r3, r3, #64	@ 0x40
 8008802:	81a3      	strh	r3, [r4, #12]
 8008804:	f04f 30ff 	mov.w	r0, #4294967295
 8008808:	e8bd 81f0 	ldmia.w	sp!, {r4, r5, r6, r7, r8, pc}
 800880c:	4407      	add	r7, r0
 800880e:	eba8 0800 	sub.w	r8, r8, r0
 8008812:	e7e7      	b.n	80087e4 <__sflush_r+0xd4>
 8008814:	dfbffffe 	.word	0xdfbffffe

08008818 <_fflush_r>:
 8008818:	b538      	push	{r3, r4, r5, lr}
 800881a:	690b      	ldr	r3, [r1, #16]
 800881c:	4605      	mov	r5, r0
 800881e:	460c      	mov	r4, r1
 8008820:	b913      	cbnz	r3, 8008828 <_fflush_r+0x10>
 8008822:	2500      	movs	r5, #0
 8008824:	4628      	mov	r0, r5
 8008826:	bd38      	pop	{r3, r4, r5, pc}
 8008828:	b118      	cbz	r0, 8008832 <_fflush_r+0x1a>
 800882a:	6a03      	ldr	r3, [r0, #32]
 800882c:	b90b      	cbnz	r3, 8008832 <_fflush_r+0x1a>
 800882e:	f7ff f85f 	bl	80078f0 <__sinit>
 8008832:	f9b4 300c 	ldrsh.w	r3, [r4, #12]
 8008836:	2b00      	cmp	r3, #0
 8008838:	d0f3      	beq.n	8008822 <_fflush_r+0xa>
 800883a:	6e62      	ldr	r2, [r4, #100]	@ 0x64
 800883c:	07d0      	lsls	r0, r2, #31
 800883e:	d404      	bmi.n	800884a <_fflush_r+0x32>
 8008840:	0599      	lsls	r1, r3, #22
 8008842:	d402      	bmi.n	800884a <_fflush_r+0x32>
 8008844:	6da0      	ldr	r0, [r4, #88]	@ 0x58
 8008846:	f7ff fad0 	bl	8007dea <__retarget_lock_acquire_recursive>
 800884a:	4628      	mov	r0, r5
 800884c:	4621      	mov	r1, r4
 800884e:	f7ff ff5f 	bl	8008710 <__sflush_r>
 8008852:	6e63      	ldr	r3, [r4, #100]	@ 0x64
 8008854:	07da      	lsls	r2, r3, #31
 8008856:	4605      	mov	r5, r0
 8008858:	d4e4      	bmi.n	8008824 <_fflush_r+0xc>
 800885a:	89a3      	ldrh	r3, [r4, #12]
 800885c:	059b      	lsls	r3, r3, #22
 800885e:	d4e1      	bmi.n	8008824 <_fflush_r+0xc>
 8008860:	6da0      	ldr	r0, [r4, #88]	@ 0x58
 8008862:	f7ff fac3 	bl	8007dec <__retarget_lock_release_recursive>
 8008866:	e7dd      	b.n	8008824 <_fflush_r+0xc>

08008868 <fiprintf>:
 8008868:	b40e      	push	{r1, r2, r3}
 800886a:	b503      	push	{r0, r1, lr}
 800886c:	4601      	mov	r1, r0
 800886e:	ab03      	add	r3, sp, #12
 8008870:	4805      	ldr	r0, [pc, #20]	@ (8008888 <fiprintf+0x20>)
 8008872:	f853 2b04 	ldr.w	r2, [r3], #4
 8008876:	6800      	ldr	r0, [r0, #0]
 8008878:	9301      	str	r3, [sp, #4]
 800887a:	f7ff fca3 	bl	80081c4 <_vfiprintf_r>
 800887e:	b002      	add	sp, #8
 8008880:	f85d eb04 	ldr.w	lr, [sp], #4
 8008884:	b003      	add	sp, #12
 8008886:	4770      	bx	lr
 8008888:	20000060 	.word	0x20000060

0800888c <__swhatbuf_r>:
 800888c:	b570      	push	{r4, r5, r6, lr}
 800888e:	460c      	mov	r4, r1
 8008890:	f9b1 100e 	ldrsh.w	r1, [r1, #14]
 8008894:	2900      	cmp	r1, #0
 8008896:	b096      	sub	sp, #88	@ 0x58
 8008898:	4615      	mov	r5, r2
 800889a:	461e      	mov	r6, r3
 800889c:	da0d      	bge.n	80088ba <__swhatbuf_r+0x2e>
 800889e:	89a3      	ldrh	r3, [r4, #12]
 80088a0:	f013 0f80 	tst.w	r3, #128	@ 0x80
 80088a4:	f04f 0100 	mov.w	r1, #0
 80088a8:	bf14      	ite	ne
 80088aa:	2340      	movne	r3, #64	@ 0x40
 80088ac:	f44f 6380 	moveq.w	r3, #1024	@ 0x400
 80088b0:	2000      	movs	r0, #0
 80088b2:	6031      	str	r1, [r6, #0]
 80088b4:	602b      	str	r3, [r5, #0]
 80088b6:	b016      	add	sp, #88	@ 0x58
 80088b8:	bd70      	pop	{r4, r5, r6, pc}
 80088ba:	466a      	mov	r2, sp
 80088bc:	f000 f862 	bl	8008984 <_fstat_r>
 80088c0:	2800      	cmp	r0, #0
 80088c2:	dbec      	blt.n	800889e <__swhatbuf_r+0x12>
 80088c4:	9901      	ldr	r1, [sp, #4]
 80088c6:	f401 4170 	and.w	r1, r1, #61440	@ 0xf000
 80088ca:	f5a1 5300 	sub.w	r3, r1, #8192	@ 0x2000
 80088ce:	4259      	negs	r1, r3
 80088d0:	4159      	adcs	r1, r3
 80088d2:	f44f 6380 	mov.w	r3, #1024	@ 0x400
 80088d6:	e7eb      	b.n	80088b0 <__swhatbuf_r+0x24>

080088d8 <__smakebuf_r>:
 80088d8:	898b      	ldrh	r3, [r1, #12]
 80088da:	b5f7      	push	{r0, r1, r2, r4, r5, r6, r7, lr}
 80088dc:	079d      	lsls	r5, r3, #30
 80088de:	4606      	mov	r6, r0
 80088e0:	460c      	mov	r4, r1
 80088e2:	d507      	bpl.n	80088f4 <__smakebuf_r+0x1c>
 80088e4:	f104 0347 	add.w	r3, r4, #71	@ 0x47
 80088e8:	6023      	str	r3, [r4, #0]
 80088ea:	6123      	str	r3, [r4, #16]
 80088ec:	2301      	movs	r3, #1
 80088ee:	6163      	str	r3, [r4, #20]
 80088f0:	b003      	add	sp, #12
 80088f2:	bdf0      	pop	{r4, r5, r6, r7, pc}
 80088f4:	ab01      	add	r3, sp, #4
 80088f6:	466a      	mov	r2, sp
 80088f8:	f7ff ffc8 	bl	800888c <__swhatbuf_r>
 80088fc:	9f00      	ldr	r7, [sp, #0]
 80088fe:	4605      	mov	r5, r0
 8008900:	4639      	mov	r1, r7
 8008902:	4630      	mov	r0, r6
 8008904:	f7fe fe70 	bl	80075e8 <_malloc_r>
 8008908:	b948      	cbnz	r0, 800891e <__smakebuf_r+0x46>
 800890a:	f9b4 300c 	ldrsh.w	r3, [r4, #12]
 800890e:	059a      	lsls	r2, r3, #22
 8008910:	d4ee      	bmi.n	80088f0 <__smakebuf_r+0x18>
 8008912:	f023 0303 	bic.w	r3, r3, #3
 8008916:	f043 0302 	orr.w	r3, r3, #2
 800891a:	81a3      	strh	r3, [r4, #12]
 800891c:	e7e2      	b.n	80088e4 <__smakebuf_r+0xc>
 800891e:	89a3      	ldrh	r3, [r4, #12]
 8008920:	6020      	str	r0, [r4, #0]
 8008922:	f043 0380 	orr.w	r3, r3, #128	@ 0x80
 8008926:	81a3      	strh	r3, [r4, #12]
 8008928:	9b01      	ldr	r3, [sp, #4]
 800892a:	e9c4 0704 	strd	r0, r7, [r4, #16]
 800892e:	b15b      	cbz	r3, 8008948 <__smakebuf_r+0x70>
 8008930:	f9b4 100e 	ldrsh.w	r1, [r4, #14]
 8008934:	4630      	mov	r0, r6
 8008936:	f000 f837 	bl	80089a8 <_isatty_r>
 800893a:	b128      	cbz	r0, 8008948 <__smakebuf_r+0x70>
 800893c:	89a3      	ldrh	r3, [r4, #12]
 800893e:	f023 0303 	bic.w	r3, r3, #3
 8008942:	f043 0301 	orr.w	r3, r3, #1
 8008946:	81a3      	strh	r3, [r4, #12]
 8008948:	89a3      	ldrh	r3, [r4, #12]
 800894a:	431d      	orrs	r5, r3
 800894c:	81a5      	strh	r5, [r4, #12]
 800894e:	e7cf      	b.n	80088f0 <__smakebuf_r+0x18>

08008950 <memmove>:
 8008950:	4288      	cmp	r0, r1
 8008952:	b510      	push	{r4, lr}
 8008954:	eb01 0402 	add.w	r4, r1, r2
 8008958:	d902      	bls.n	8008960 <memmove+0x10>
 800895a:	4284      	cmp	r4, r0
 800895c:	4623      	mov	r3, r4
 800895e:	d807      	bhi.n	8008970 <memmove+0x20>
 8008960:	1e43      	subs	r3, r0, #1
 8008962:	42a1      	cmp	r1, r4
 8008964:	d008      	beq.n	8008978 <memmove+0x28>
 8008966:	f811 2b01 	ldrb.w	r2, [r1], #1
 800896a:	f803 2f01 	strb.w	r2, [r3, #1]!
 800896e:	e7f8      	b.n	8008962 <memmove+0x12>
 8008970:	4402      	add	r2, r0
 8008972:	4601      	mov	r1, r0
 8008974:	428a      	cmp	r2, r1
 8008976:	d100      	bne.n	800897a <memmove+0x2a>
 8008978:	bd10      	pop	{r4, pc}
 800897a:	f813 4d01 	ldrb.w	r4, [r3, #-1]!
 800897e:	f802 4d01 	strb.w	r4, [r2, #-1]!
 8008982:	e7f7      	b.n	8008974 <memmove+0x24>

08008984 <_fstat_r>:
 8008984:	b538      	push	{r3, r4, r5, lr}
 8008986:	4d07      	ldr	r5, [pc, #28]	@ (80089a4 <_fstat_r+0x20>)
 8008988:	2300      	movs	r3, #0
 800898a:	4604      	mov	r4, r0
 800898c:	4608      	mov	r0, r1
 800898e:	4611      	mov	r1, r2
 8008990:	602b      	str	r3, [r5, #0]
 8008992:	f7fa fe83 	bl	800369c <_fstat>
 8008996:	1c43      	adds	r3, r0, #1
 8008998:	d102      	bne.n	80089a0 <_fstat_r+0x1c>
 800899a:	682b      	ldr	r3, [r5, #0]
 800899c:	b103      	cbz	r3, 80089a0 <_fstat_r+0x1c>
 800899e:	6023      	str	r3, [r4, #0]
 80089a0:	bd38      	pop	{r3, r4, r5, pc}
 80089a2:	bf00      	nop
 80089a4:	20001478 	.word	0x20001478

080089a8 <_isatty_r>:
 80089a8:	b538      	push	{r3, r4, r5, lr}
 80089aa:	4d06      	ldr	r5, [pc, #24]	@ (80089c4 <_isatty_r+0x1c>)
 80089ac:	2300      	movs	r3, #0
 80089ae:	4604      	mov	r4, r0
 80089b0:	4608      	mov	r0, r1
 80089b2:	602b      	str	r3, [r5, #0]
 80089b4:	f7fa fe78 	bl	80036a8 <_isatty>
 80089b8:	1c43      	adds	r3, r0, #1
 80089ba:	d102      	bne.n	80089c2 <_isatty_r+0x1a>
 80089bc:	682b      	ldr	r3, [r5, #0]
 80089be:	b103      	cbz	r3, 80089c2 <_isatty_r+0x1a>
 80089c0:	6023      	str	r3, [r4, #0]
 80089c2:	bd38      	pop	{r3, r4, r5, pc}
 80089c4:	20001478 	.word	0x20001478

080089c8 <memcpy>:
 80089c8:	440a      	add	r2, r1
 80089ca:	4291      	cmp	r1, r2
 80089cc:	f100 33ff 	add.w	r3, r0, #4294967295
 80089d0:	d100      	bne.n	80089d4 <memcpy+0xc>
 80089d2:	4770      	bx	lr
 80089d4:	b510      	push	{r4, lr}
 80089d6:	f811 4b01 	ldrb.w	r4, [r1], #1
 80089da:	f803 4f01 	strb.w	r4, [r3, #1]!
 80089de:	4291      	cmp	r1, r2
 80089e0:	d1f9      	bne.n	80089d6 <memcpy+0xe>
 80089e2:	bd10      	pop	{r4, pc}

080089e4 <abort>:
 80089e4:	b508      	push	{r3, lr}
 80089e6:	2006      	movs	r0, #6
 80089e8:	f000 f85a 	bl	8008aa0 <raise>
 80089ec:	2001      	movs	r0, #1
 80089ee:	f7fa fe3d 	bl	800366c <_exit>

080089f2 <_realloc_r>:
 80089f2:	e92d 41f0 	stmdb	sp!, {r4, r5, r6, r7, r8, lr}
 80089f6:	4680      	mov	r8, r0
 80089f8:	4615      	mov	r5, r2
 80089fa:	460c      	mov	r4, r1
 80089fc:	b921      	cbnz	r1, 8008a08 <_realloc_r+0x16>
 80089fe:	e8bd 41f0 	ldmia.w	sp!, {r4, r5, r6, r7, r8, lr}
 8008a02:	4611      	mov	r1, r2
 8008a04:	f7fe bdf0 	b.w	80075e8 <_malloc_r>
 8008a08:	b92a      	cbnz	r2, 8008a16 <_realloc_r+0x24>
 8008a0a:	f7ff fa0f 	bl	8007e2c <_free_r>
 8008a0e:	2400      	movs	r4, #0
 8008a10:	4620      	mov	r0, r4
 8008a12:	e8bd 81f0 	ldmia.w	sp!, {r4, r5, r6, r7, r8, pc}
 8008a16:	f000 f85f 	bl	8008ad8 <_malloc_usable_size_r>
 8008a1a:	4285      	cmp	r5, r0
 8008a1c:	4606      	mov	r6, r0
 8008a1e:	d802      	bhi.n	8008a26 <_realloc_r+0x34>
 8008a20:	ebb5 0f50 	cmp.w	r5, r0, lsr #1
 8008a24:	d8f4      	bhi.n	8008a10 <_realloc_r+0x1e>
 8008a26:	4629      	mov	r1, r5
 8008a28:	4640      	mov	r0, r8
 8008a2a:	f7fe fddd 	bl	80075e8 <_malloc_r>
 8008a2e:	4607      	mov	r7, r0
 8008a30:	2800      	cmp	r0, #0
 8008a32:	d0ec      	beq.n	8008a0e <_realloc_r+0x1c>
 8008a34:	42b5      	cmp	r5, r6
 8008a36:	462a      	mov	r2, r5
 8008a38:	4621      	mov	r1, r4
 8008a3a:	bf28      	it	cs
 8008a3c:	4632      	movcs	r2, r6
 8008a3e:	f7ff ffc3 	bl	80089c8 <memcpy>
 8008a42:	4621      	mov	r1, r4
 8008a44:	4640      	mov	r0, r8
 8008a46:	f7ff f9f1 	bl	8007e2c <_free_r>
 8008a4a:	463c      	mov	r4, r7
 8008a4c:	e7e0      	b.n	8008a10 <_realloc_r+0x1e>

08008a4e <_raise_r>:
 8008a4e:	291f      	cmp	r1, #31
 8008a50:	b538      	push	{r3, r4, r5, lr}
 8008a52:	4605      	mov	r5, r0
 8008a54:	460c      	mov	r4, r1
 8008a56:	d904      	bls.n	8008a62 <_raise_r+0x14>
 8008a58:	2316      	movs	r3, #22
 8008a5a:	6003      	str	r3, [r0, #0]
 8008a5c:	f04f 30ff 	mov.w	r0, #4294967295
 8008a60:	bd38      	pop	{r3, r4, r5, pc}
 8008a62:	6bc2      	ldr	r2, [r0, #60]	@ 0x3c
 8008a64:	b112      	cbz	r2, 8008a6c <_raise_r+0x1e>
 8008a66:	f852 3021 	ldr.w	r3, [r2, r1, lsl #2]
 8008a6a:	b94b      	cbnz	r3, 8008a80 <_raise_r+0x32>
 8008a6c:	4628      	mov	r0, r5
 8008a6e:	f000 f831 	bl	8008ad4 <_getpid_r>
 8008a72:	4622      	mov	r2, r4
 8008a74:	4601      	mov	r1, r0
 8008a76:	4628      	mov	r0, r5
 8008a78:	e8bd 4038 	ldmia.w	sp!, {r3, r4, r5, lr}
 8008a7c:	f000 b818 	b.w	8008ab0 <_kill_r>
 8008a80:	2b01      	cmp	r3, #1
 8008a82:	d00a      	beq.n	8008a9a <_raise_r+0x4c>
 8008a84:	1c59      	adds	r1, r3, #1
 8008a86:	d103      	bne.n	8008a90 <_raise_r+0x42>
 8008a88:	2316      	movs	r3, #22
 8008a8a:	6003      	str	r3, [r0, #0]
 8008a8c:	2001      	movs	r0, #1
 8008a8e:	e7e7      	b.n	8008a60 <_raise_r+0x12>
 8008a90:	2100      	movs	r1, #0
 8008a92:	f842 1024 	str.w	r1, [r2, r4, lsl #2]
 8008a96:	4620      	mov	r0, r4
 8008a98:	4798      	blx	r3
 8008a9a:	2000      	movs	r0, #0
 8008a9c:	e7e0      	b.n	8008a60 <_raise_r+0x12>
	...

08008aa0 <raise>:
 8008aa0:	4b02      	ldr	r3, [pc, #8]	@ (8008aac <raise+0xc>)
 8008aa2:	4601      	mov	r1, r0
 8008aa4:	6818      	ldr	r0, [r3, #0]
 8008aa6:	f7ff bfd2 	b.w	8008a4e <_raise_r>
 8008aaa:	bf00      	nop
 8008aac:	20000060 	.word	0x20000060

08008ab0 <_kill_r>:
 8008ab0:	b538      	push	{r3, r4, r5, lr}
 8008ab2:	4d07      	ldr	r5, [pc, #28]	@ (8008ad0 <_kill_r+0x20>)
 8008ab4:	2300      	movs	r3, #0
 8008ab6:	4604      	mov	r4, r0
 8008ab8:	4608      	mov	r0, r1
 8008aba:	4611      	mov	r1, r2
 8008abc:	602b      	str	r3, [r5, #0]
 8008abe:	f7fa fdcd 	bl	800365c <_kill>
 8008ac2:	1c43      	adds	r3, r0, #1
 8008ac4:	d102      	bne.n	8008acc <_kill_r+0x1c>
 8008ac6:	682b      	ldr	r3, [r5, #0]
 8008ac8:	b103      	cbz	r3, 8008acc <_kill_r+0x1c>
 8008aca:	6023      	str	r3, [r4, #0]
 8008acc:	bd38      	pop	{r3, r4, r5, pc}
 8008ace:	bf00      	nop
 8008ad0:	20001478 	.word	0x20001478

08008ad4 <_getpid_r>:
 8008ad4:	f7fa bdc0 	b.w	8003658 <_getpid>

08008ad8 <_malloc_usable_size_r>:
 8008ad8:	f851 3c04 	ldr.w	r3, [r1, #-4]
 8008adc:	1f18      	subs	r0, r3, #4
 8008ade:	2b00      	cmp	r3, #0
 8008ae0:	bfbc      	itt	lt
 8008ae2:	580b      	ldrlt	r3, [r1, r0]
 8008ae4:	18c0      	addlt	r0, r0, r3
 8008ae6:	4770      	bx	lr

08008ae8 <_init>:
 8008ae8:	b5f8      	push	{r3, r4, r5, r6, r7, lr}
 8008aea:	bf00      	nop
 8008aec:	bcf8      	pop	{r3, r4, r5, r6, r7}
 8008aee:	bc08      	pop	{r3}
 8008af0:	469e      	mov	lr, r3
 8008af2:	4770      	bx	lr

08008af4 <_fini>:
 8008af4:	b5f8      	push	{r3, r4, r5, r6, r7, lr}
 8008af6:	bf00      	nop
 8008af8:	bcf8      	pop	{r3, r4, r5, r6, r7}
 8008afa:	bc08      	pop	{r3}
 8008afc:	469e      	mov	lr, r3
 8008afe:	4770      	bx	lr
